Archive member included because of file (symbol)

../../fftw-3.3.4/.libs//libfftw3f.a(apiplan.o)
                              release/main.o (fftwf_destroy_plan)
../../fftw-3.3.4/.libs//libfftw3f.a(execute.o)
                              release/main.o (fftwf_execute)
../../fftw-3.3.4/.libs//libfftw3f.a(malloc.o)
                              release/main.o (fftwf_malloc)
../../fftw-3.3.4/.libs//libfftw3f.a(mapflags.o)
                              ../../fftw-3.3.4/.libs//libfftw3f.a(apiplan.o) (fftwf_mapflags)
../../fftw-3.3.4/.libs//libfftw3f.a(plan-dft-r2c-1d.o)
                              release/main.o (fftwf_plan_dft_r2c_1d)
../../fftw-3.3.4/.libs//libfftw3f.a(plan-dft-r2c.o)
                              ../../fftw-3.3.4/.libs//libfftw3f.a(plan-dft-r2c-1d.o) (fftwf_plan_dft_r2c)
../../fftw-3.3.4/.libs//libfftw3f.a(plan-many-dft-r2c.o)
                              ../../fftw-3.3.4/.libs//libfftw3f.a(plan-dft-r2c.o) (fftwf_plan_many_dft_r2c)
../../fftw-3.3.4/.libs//libfftw3f.a(rdft2-pad.o)
                              ../../fftw-3.3.4/.libs//libfftw3f.a(plan-many-dft-r2c.o) (fftwf_rdft2_pad)
../../fftw-3.3.4/.libs//libfftw3f.a(the-planner.o)
                              ../../fftw-3.3.4/.libs//libfftw3f.a(apiplan.o) (fftwf_the_planner)
../../fftw-3.3.4/.libs//libfftw3f.a(alloc.o)
                              ../../fftw-3.3.4/.libs//libfftw3f.a(apiplan.o) (fftwf_malloc_plain)
../../fftw-3.3.4/.libs//libfftw3f.a(assert.o)
                              ../../fftw-3.3.4/.libs//libfftw3f.a(alloc.o) (fftwf_assertion_failed)
../../fftw-3.3.4/.libs//libfftw3f.a(extract-reim.o)
                              ../../fftw-3.3.4/.libs//libfftw3f.a(plan-many-dft-r2c.o) (fftwf_extract_reim)
../../fftw-3.3.4/.libs//libfftw3f.a(kalloc.o)
                              ../../fftw-3.3.4/.libs//libfftw3f.a(malloc.o) (fftwf_kernel_malloc)
../../fftw-3.3.4/.libs//libfftw3f.a(plan.o)
                              ../../fftw-3.3.4/.libs//libfftw3f.a(apiplan.o) (fftwf_plan_destroy_internal)
../../fftw-3.3.4/.libs//libfftw3f.a(planner.o)
                              ../../fftw-3.3.4/.libs//libfftw3f.a(the-planner.o) (fftwf_mkplanner)
../../fftw-3.3.4/.libs//libfftw3f.a(primes.o)
                              ../../fftw-3.3.4/.libs//libfftw3f.a(planner.o) (fftwf_next_prime)
../../fftw-3.3.4/.libs//libfftw3f.a(problem.o)
                              ../../fftw-3.3.4/.libs//libfftw3f.a(apiplan.o) (fftwf_problem_destroy)
../../fftw-3.3.4/.libs//libfftw3f.a(solver.o)
                              ../../fftw-3.3.4/.libs//libfftw3f.a(planner.o) (fftwf_solver_use)
../../fftw-3.3.4/.libs//libfftw3f.a(tensor1.o)
                              ../../fftw-3.3.4/.libs//libfftw3f.a(plan-many-dft-r2c.o) (fftwf_mktensor_1d)
../../fftw-3.3.4/.libs//libfftw3f.a(timer.o)
                              ../../fftw-3.3.4/.libs//libfftw3f.a(apiplan.o) (fftwf_get_crude_time)
../../fftw-3.3.4/.libs//libfftw3f.a(problem2.o)
                              ../../fftw-3.3.4/.libs//libfftw3f.a(plan-many-dft-r2c.o) (fftwf_mkproblem_rdft2_d_3pointers)
../../fftw-3.3.4/.libs//libfftw3f.a(configure.o)
                              ../../fftw-3.3.4/.libs//libfftw3f.a(the-planner.o) (fftwf_configure_planner)
../../fftw-3.3.4/.libs//libfftw3f.a(mktensor-rowmajor.o)
                              ../../fftw-3.3.4/.libs//libfftw3f.a(plan-many-dft-r2c.o) (fftwf_mktensor_rowmajor)
../../fftw-3.3.4/.libs//libfftw3f.a(align.o)
                              ../../fftw-3.3.4/.libs//libfftw3f.a(problem2.o) (fftwf_alignment_of)
../../fftw-3.3.4/.libs//libfftw3f.a(hash.o)
                              ../../fftw-3.3.4/.libs//libfftw3f.a(planner.o) (fftwf_hash)
../../fftw-3.3.4/.libs//libfftw3f.a(md5-1.o)
                              ../../fftw-3.3.4/.libs//libfftw3f.a(planner.o) (fftwf_md5puts)
../../fftw-3.3.4/.libs//libfftw3f.a(md5.o)
                              ../../fftw-3.3.4/.libs//libfftw3f.a(planner.o) (fftwf_md5begin)
../../fftw-3.3.4/.libs//libfftw3f.a(ops.o)
                              ../../fftw-3.3.4/.libs//libfftw3f.a(plan.o) (fftwf_ops_zero)
../../fftw-3.3.4/.libs//libfftw3f.a(tensor.o)
                              ../../fftw-3.3.4/.libs//libfftw3f.a(tensor1.o) (fftwf_mktensor)
../../fftw-3.3.4/.libs//libfftw3f.a(tensor5.o)
                              ../../fftw-3.3.4/.libs//libfftw3f.a(problem2.o) (fftwf_tensor_copy)
../../fftw-3.3.4/.libs//libfftw3f.a(tensor7.o)
                              ../../fftw-3.3.4/.libs//libfftw3f.a(problem2.o) (fftwf_tensor_compress)
../../fftw-3.3.4/.libs//libfftw3f.a(tensor8.o)
                              ../../fftw-3.3.4/.libs//libfftw3f.a(problem2.o) (fftwf_tensor_destroy2)
../../fftw-3.3.4/.libs//libfftw3f.a(conf.o)
                              ../../fftw-3.3.4/.libs//libfftw3f.a(configure.o) (fftwf_dft_conf_standard)
../../fftw-3.3.4/.libs//libfftw3f.a(dftw-generic.o)
                              ../../fftw-3.3.4/.libs//libfftw3f.a(conf.o) (fftwf_ct_generic_register)
../../fftw-3.3.4/.libs//libfftw3f.a(dftw-genericbuf.o)
                              ../../fftw-3.3.4/.libs//libfftw3f.a(conf.o) (fftwf_ct_genericbuf_register)
../../fftw-3.3.4/.libs//libfftw3f.a(generic.o)
                              ../../fftw-3.3.4/.libs//libfftw3f.a(conf.o) (fftwf_dft_generic_register)
../../fftw-3.3.4/.libs//libfftw3f.a(indirect-transpose.o)
                              ../../fftw-3.3.4/.libs//libfftw3f.a(conf.o) (fftwf_dft_indirect_transpose_register)
../../fftw-3.3.4/.libs//libfftw3f.a(indirect.o)
                              ../../fftw-3.3.4/.libs//libfftw3f.a(conf.o) (fftwf_dft_indirect_register)
../../fftw-3.3.4/.libs//libfftw3f.a(nop.o)
                              ../../fftw-3.3.4/.libs//libfftw3f.a(conf.o) (fftwf_dft_nop_register)
../../fftw-3.3.4/.libs//libfftw3f.a(lt3-plan.o)
                              ../../fftw-3.3.4/.libs//libfftw3f.a(generic.o) (fftwf_mkplan_dft)
../../fftw-3.3.4/.libs//libfftw3f.a(lt4-problem.o)
                              ../../fftw-3.3.4/.libs//libfftw3f.a(dftw-generic.o) (fftwf_mkproblem_dft_d)
../../fftw-3.3.4/.libs//libfftw3f.a(lt5-rader.o)
                              ../../fftw-3.3.4/.libs//libfftw3f.a(conf.o) (fftwf_dft_rader_register)
../../fftw-3.3.4/.libs//libfftw3f.a(rank-geq2.o)
                              ../../fftw-3.3.4/.libs//libfftw3f.a(conf.o) (fftwf_dft_rank_geq2_register)
../../fftw-3.3.4/.libs//libfftw3f.a(solve.o)
                              ../../fftw-3.3.4/.libs//libfftw3f.a(generic.o) (fftwf_dft_solve)
../../fftw-3.3.4/.libs//libfftw3f.a(vrank-geq1.o)
                              ../../fftw-3.3.4/.libs//libfftw3f.a(conf.o) (fftwf_dft_vrank_geq1_register)
../../fftw-3.3.4/.libs//libfftw3f.a(zero.o)
                              ../../fftw-3.3.4/.libs//libfftw3f.a(problem2.o) (fftwf_dft_zerotens)
../../fftw-3.3.4/.libs//libfftw3f.a(codlist.o)
                              ../../fftw-3.3.4/.libs//libfftw3f.a(conf.o) (fftwf_solvtab_dft_standard)
../../fftw-3.3.4/.libs//libfftw3f.a(n1_10.o)
                              ../../fftw-3.3.4/.libs//libfftw3f.a(codlist.o) (fftwf_codelet_n1_10)
../../fftw-3.3.4/.libs//libfftw3f.a(n1_11.o)
                              ../../fftw-3.3.4/.libs//libfftw3f.a(codlist.o) (fftwf_codelet_n1_11)
../../fftw-3.3.4/.libs//libfftw3f.a(n1_12.o)
                              ../../fftw-3.3.4/.libs//libfftw3f.a(codlist.o) (fftwf_codelet_n1_12)
../../fftw-3.3.4/.libs//libfftw3f.a(n1_13.o)
                              ../../fftw-3.3.4/.libs//libfftw3f.a(codlist.o) (fftwf_codelet_n1_13)
../../fftw-3.3.4/.libs//libfftw3f.a(n1_14.o)
                              ../../fftw-3.3.4/.libs//libfftw3f.a(codlist.o) (fftwf_codelet_n1_14)
../../fftw-3.3.4/.libs//libfftw3f.a(n1_15.o)
                              ../../fftw-3.3.4/.libs//libfftw3f.a(codlist.o) (fftwf_codelet_n1_15)
../../fftw-3.3.4/.libs//libfftw3f.a(n1_16.o)
                              ../../fftw-3.3.4/.libs//libfftw3f.a(codlist.o) (fftwf_codelet_n1_16)
../../fftw-3.3.4/.libs//libfftw3f.a(n1_2.o)
                              ../../fftw-3.3.4/.libs//libfftw3f.a(codlist.o) (fftwf_codelet_n1_2)
../../fftw-3.3.4/.libs//libfftw3f.a(n1_20.o)
                              ../../fftw-3.3.4/.libs//libfftw3f.a(codlist.o) (fftwf_codelet_n1_20)
../../fftw-3.3.4/.libs//libfftw3f.a(n1_25.o)
                              ../../fftw-3.3.4/.libs//libfftw3f.a(codlist.o) (fftwf_codelet_n1_25)
../../fftw-3.3.4/.libs//libfftw3f.a(n1_3.o)
                              ../../fftw-3.3.4/.libs//libfftw3f.a(codlist.o) (fftwf_codelet_n1_3)
../../fftw-3.3.4/.libs//libfftw3f.a(n1_32.o)
                              ../../fftw-3.3.4/.libs//libfftw3f.a(codlist.o) (fftwf_codelet_n1_32)
../../fftw-3.3.4/.libs//libfftw3f.a(n1_4.o)
                              ../../fftw-3.3.4/.libs//libfftw3f.a(codlist.o) (fftwf_codelet_n1_4)
../../fftw-3.3.4/.libs//libfftw3f.a(n1_5.o)
                              ../../fftw-3.3.4/.libs//libfftw3f.a(codlist.o) (fftwf_codelet_n1_5)
../../fftw-3.3.4/.libs//libfftw3f.a(n1_6.o)
                              ../../fftw-3.3.4/.libs//libfftw3f.a(codlist.o) (fftwf_codelet_n1_6)
../../fftw-3.3.4/.libs//libfftw3f.a(n1_64.o)
                              ../../fftw-3.3.4/.libs//libfftw3f.a(codlist.o) (fftwf_codelet_n1_64)
../../fftw-3.3.4/.libs//libfftw3f.a(n1_7.o)
                              ../../fftw-3.3.4/.libs//libfftw3f.a(codlist.o) (fftwf_codelet_n1_7)
../../fftw-3.3.4/.libs//libfftw3f.a(n1_8.o)
                              ../../fftw-3.3.4/.libs//libfftw3f.a(codlist.o) (fftwf_codelet_n1_8)
../../fftw-3.3.4/.libs//libfftw3f.a(n1_9.o)
                              ../../fftw-3.3.4/.libs//libfftw3f.a(codlist.o) (fftwf_codelet_n1_9)
../../fftw-3.3.4/.libs//libfftw3f.a(q1_2.o)
                              ../../fftw-3.3.4/.libs//libfftw3f.a(codlist.o) (fftwf_codelet_q1_2)
../../fftw-3.3.4/.libs//libfftw3f.a(q1_3.o)
                              ../../fftw-3.3.4/.libs//libfftw3f.a(codlist.o) (fftwf_codelet_q1_3)
../../fftw-3.3.4/.libs//libfftw3f.a(q1_4.o)
                              ../../fftw-3.3.4/.libs//libfftw3f.a(codlist.o) (fftwf_codelet_q1_4)
../../fftw-3.3.4/.libs//libfftw3f.a(q1_5.o)
                              ../../fftw-3.3.4/.libs//libfftw3f.a(codlist.o) (fftwf_codelet_q1_5)
../../fftw-3.3.4/.libs//libfftw3f.a(q1_6.o)
                              ../../fftw-3.3.4/.libs//libfftw3f.a(codlist.o) (fftwf_codelet_q1_6)
../../fftw-3.3.4/.libs//libfftw3f.a(q1_8.o)
                              ../../fftw-3.3.4/.libs//libfftw3f.a(codlist.o) (fftwf_codelet_q1_8)
../../fftw-3.3.4/.libs//libfftw3f.a(t1_10.o)
                              ../../fftw-3.3.4/.libs//libfftw3f.a(codlist.o) (fftwf_codelet_t1_10)
../../fftw-3.3.4/.libs//libfftw3f.a(t1_12.o)
                              ../../fftw-3.3.4/.libs//libfftw3f.a(codlist.o) (fftwf_codelet_t1_12)
../../fftw-3.3.4/.libs//libfftw3f.a(t1_15.o)
                              ../../fftw-3.3.4/.libs//libfftw3f.a(codlist.o) (fftwf_codelet_t1_15)
../../fftw-3.3.4/.libs//libfftw3f.a(t1_16.o)
                              ../../fftw-3.3.4/.libs//libfftw3f.a(codlist.o) (fftwf_codelet_t1_16)
../../fftw-3.3.4/.libs//libfftw3f.a(t1_2.o)
                              ../../fftw-3.3.4/.libs//libfftw3f.a(codlist.o) (fftwf_codelet_t1_2)
../../fftw-3.3.4/.libs//libfftw3f.a(t1_20.o)
                              ../../fftw-3.3.4/.libs//libfftw3f.a(codlist.o) (fftwf_codelet_t1_20)
../../fftw-3.3.4/.libs//libfftw3f.a(t1_25.o)
                              ../../fftw-3.3.4/.libs//libfftw3f.a(codlist.o) (fftwf_codelet_t1_25)
../../fftw-3.3.4/.libs//libfftw3f.a(t1_3.o)
                              ../../fftw-3.3.4/.libs//libfftw3f.a(codlist.o) (fftwf_codelet_t1_3)
../../fftw-3.3.4/.libs//libfftw3f.a(t1_32.o)
                              ../../fftw-3.3.4/.libs//libfftw3f.a(codlist.o) (fftwf_codelet_t1_32)
../../fftw-3.3.4/.libs//libfftw3f.a(t1_4.o)
                              ../../fftw-3.3.4/.libs//libfftw3f.a(codlist.o) (fftwf_codelet_t1_4)
../../fftw-3.3.4/.libs//libfftw3f.a(t1_5.o)
                              ../../fftw-3.3.4/.libs//libfftw3f.a(codlist.o) (fftwf_codelet_t1_5)
../../fftw-3.3.4/.libs//libfftw3f.a(t1_6.o)
                              ../../fftw-3.3.4/.libs//libfftw3f.a(codlist.o) (fftwf_codelet_t1_6)
../../fftw-3.3.4/.libs//libfftw3f.a(t1_64.o)
                              ../../fftw-3.3.4/.libs//libfftw3f.a(codlist.o) (fftwf_codelet_t1_64)
../../fftw-3.3.4/.libs//libfftw3f.a(t1_7.o)
                              ../../fftw-3.3.4/.libs//libfftw3f.a(codlist.o) (fftwf_codelet_t1_7)
../../fftw-3.3.4/.libs//libfftw3f.a(t1_8.o)
                              ../../fftw-3.3.4/.libs//libfftw3f.a(codlist.o) (fftwf_codelet_t1_8)
../../fftw-3.3.4/.libs//libfftw3f.a(t1_9.o)
                              ../../fftw-3.3.4/.libs//libfftw3f.a(codlist.o) (fftwf_codelet_t1_9)
../../fftw-3.3.4/.libs//libfftw3f.a(t2_10.o)
                              ../../fftw-3.3.4/.libs//libfftw3f.a(codlist.o) (fftwf_codelet_t2_10)
../../fftw-3.3.4/.libs//libfftw3f.a(t2_16.o)
                              ../../fftw-3.3.4/.libs//libfftw3f.a(codlist.o) (fftwf_codelet_t2_16)
../../fftw-3.3.4/.libs//libfftw3f.a(t2_20.o)
                              ../../fftw-3.3.4/.libs//libfftw3f.a(codlist.o) (fftwf_codelet_t2_20)
../../fftw-3.3.4/.libs//libfftw3f.a(t2_25.o)
                              ../../fftw-3.3.4/.libs//libfftw3f.a(codlist.o) (fftwf_codelet_t2_25)
../../fftw-3.3.4/.libs//libfftw3f.a(t2_32.o)
                              ../../fftw-3.3.4/.libs//libfftw3f.a(codlist.o) (fftwf_codelet_t2_32)
../../fftw-3.3.4/.libs//libfftw3f.a(t2_4.o)
                              ../../fftw-3.3.4/.libs//libfftw3f.a(codlist.o) (fftwf_codelet_t2_4)
../../fftw-3.3.4/.libs//libfftw3f.a(t2_5.o)
                              ../../fftw-3.3.4/.libs//libfftw3f.a(codlist.o) (fftwf_codelet_t2_5)
../../fftw-3.3.4/.libs//libfftw3f.a(t2_64.o)
                              ../../fftw-3.3.4/.libs//libfftw3f.a(codlist.o) (fftwf_codelet_t2_64)
../../fftw-3.3.4/.libs//libfftw3f.a(t2_8.o)
                              ../../fftw-3.3.4/.libs//libfftw3f.a(codlist.o) (fftwf_codelet_t2_8)
../../fftw-3.3.4/.libs//libfftw3f.a(lt7-conf.o)
                              ../../fftw-3.3.4/.libs//libfftw3f.a(configure.o) (fftwf_rdft_conf_standard)
../../fftw-3.3.4/.libs//libfftw3f.a(dft-r2hc.o)
                              ../../fftw-3.3.4/.libs//libfftw3f.a(lt7-conf.o) (fftwf_dft_r2hc_register)
../../fftw-3.3.4/.libs//libfftw3f.a(dht-r2hc.o)
                              ../../fftw-3.3.4/.libs//libfftw3f.a(lt7-conf.o) (fftwf_dht_r2hc_register)
../../fftw-3.3.4/.libs//libfftw3f.a(dht-rader.o)
                              ../../fftw-3.3.4/.libs//libfftw3f.a(lt7-conf.o) (fftwf_dht_rader_register)
../../fftw-3.3.4/.libs//libfftw3f.a(lt8-generic.o)
                              ../../fftw-3.3.4/.libs//libfftw3f.a(lt7-conf.o) (fftwf_rdft_generic_register)
../../fftw-3.3.4/.libs//libfftw3f.a(hc2hc-generic.o)
                              ../../fftw-3.3.4/.libs//libfftw3f.a(lt7-conf.o) (fftwf_hc2hc_generic_register)
../../fftw-3.3.4/.libs//libfftw3f.a(hc2hc.o)
                              ../../fftw-3.3.4/.libs//libfftw3f.a(hc2hc-generic.o) (fftwf_mksolver_hc2hc)
../../fftw-3.3.4/.libs//libfftw3f.a(lt9-indirect.o)
                              ../../fftw-3.3.4/.libs//libfftw3f.a(lt7-conf.o) (fftwf_rdft_indirect_register)
../../fftw-3.3.4/.libs//libfftw3f.a(lt10-nop.o)
                              ../../fftw-3.3.4/.libs//libfftw3f.a(lt7-conf.o) (fftwf_rdft_nop_register)
../../fftw-3.3.4/.libs//libfftw3f.a(nop2.o)
                              ../../fftw-3.3.4/.libs//libfftw3f.a(lt7-conf.o) (fftwf_rdft2_nop_register)
../../fftw-3.3.4/.libs//libfftw3f.a(lt11-plan.o)
                              ../../fftw-3.3.4/.libs//libfftw3f.a(dht-r2hc.o) (fftwf_mkplan_rdft)
../../fftw-3.3.4/.libs//libfftw3f.a(plan2.o)
                              ../../fftw-3.3.4/.libs//libfftw3f.a(nop2.o) (fftwf_mkplan_rdft2)
../../fftw-3.3.4/.libs//libfftw3f.a(lt12-problem.o)
                              ../../fftw-3.3.4/.libs//libfftw3f.a(hc2hc.o) (fftwf_mkproblem_rdft_d)
../../fftw-3.3.4/.libs//libfftw3f.a(rank-geq2-rdft2.o)
                              ../../fftw-3.3.4/.libs//libfftw3f.a(lt7-conf.o) (fftwf_rdft2_rank_geq2_register)
../../fftw-3.3.4/.libs//libfftw3f.a(lt13-rank-geq2.o)
                              ../../fftw-3.3.4/.libs//libfftw3f.a(lt7-conf.o) (fftwf_rdft_rank_geq2_register)
../../fftw-3.3.4/.libs//libfftw3f.a(rank0-rdft2.o)
                              ../../fftw-3.3.4/.libs//libfftw3f.a(lt7-conf.o) (fftwf_rdft2_rank0_register)
../../fftw-3.3.4/.libs//libfftw3f.a(rank0.o)
                              ../../fftw-3.3.4/.libs//libfftw3f.a(lt7-conf.o) (fftwf_rdft_rank0_register)
../../fftw-3.3.4/.libs//libfftw3f.a(rdft-dht.o)
                              ../../fftw-3.3.4/.libs//libfftw3f.a(lt7-conf.o) (fftwf_rdft_dht_register)
../../fftw-3.3.4/.libs//libfftw3f.a(rdft2-inplace-strides.o)
                              ../../fftw-3.3.4/.libs//libfftw3f.a(nop2.o) (fftwf_rdft2_inplace_strides)
../../fftw-3.3.4/.libs//libfftw3f.a(rdft2-rdft.o)
                              ../../fftw-3.3.4/.libs//libfftw3f.a(lt7-conf.o) (fftwf_rdft2_rdft_register)
../../fftw-3.3.4/.libs//libfftw3f.a(rdft2-strides.o)
                              ../../fftw-3.3.4/.libs//libfftw3f.a(rdft2-inplace-strides.o) (fftwf_rdft2_strides)
../../fftw-3.3.4/.libs//libfftw3f.a(rdft2-tensor-max-index.o)
                              ../../fftw-3.3.4/.libs//libfftw3f.a(rank-geq2-rdft2.o) (fftwf_rdft2_tensor_max_index)
../../fftw-3.3.4/.libs//libfftw3f.a(lt14-solve.o)
                              ../../fftw-3.3.4/.libs//libfftw3f.a(dht-r2hc.o) (fftwf_rdft_solve)
../../fftw-3.3.4/.libs//libfftw3f.a(solve2.o)
                              ../../fftw-3.3.4/.libs//libfftw3f.a(nop2.o) (fftwf_rdft2_solve)
../../fftw-3.3.4/.libs//libfftw3f.a(vrank-geq1-rdft2.o)
                              ../../fftw-3.3.4/.libs//libfftw3f.a(lt7-conf.o) (fftwf_rdft2_vrank_geq1_register)
../../fftw-3.3.4/.libs//libfftw3f.a(lt15-vrank-geq1.o)
                              ../../fftw-3.3.4/.libs//libfftw3f.a(lt7-conf.o) (fftwf_rdft_vrank_geq1_register)
../../fftw-3.3.4/.libs//libfftw3f.a(vrank3-transpose.o)
                              ../../fftw-3.3.4/.libs//libfftw3f.a(lt7-conf.o) (fftwf_rdft_vrank3_transpose_register)
../../fftw-3.3.4/.libs//libfftw3f.a(lt16-codlist.o)
                              ../../fftw-3.3.4/.libs//libfftw3f.a(lt7-conf.o) (fftwf_solvtab_rdft_r2cf)
../../fftw-3.3.4/.libs//libfftw3f.a(hc2cf2_16.o)
                              ../../fftw-3.3.4/.libs//libfftw3f.a(lt16-codlist.o) (fftwf_codelet_hc2cf2_16)
../../fftw-3.3.4/.libs//libfftw3f.a(hc2cf2_20.o)
                              ../../fftw-3.3.4/.libs//libfftw3f.a(lt16-codlist.o) (fftwf_codelet_hc2cf2_20)
../../fftw-3.3.4/.libs//libfftw3f.a(hc2cf2_32.o)
                              ../../fftw-3.3.4/.libs//libfftw3f.a(lt16-codlist.o) (fftwf_codelet_hc2cf2_32)
../../fftw-3.3.4/.libs//libfftw3f.a(hc2cf2_4.o)
                              ../../fftw-3.3.4/.libs//libfftw3f.a(lt16-codlist.o) (fftwf_codelet_hc2cf2_4)
../../fftw-3.3.4/.libs//libfftw3f.a(hc2cf2_8.o)
                              ../../fftw-3.3.4/.libs//libfftw3f.a(lt16-codlist.o) (fftwf_codelet_hc2cf2_8)
../../fftw-3.3.4/.libs//libfftw3f.a(hc2cf_10.o)
                              ../../fftw-3.3.4/.libs//libfftw3f.a(lt16-codlist.o) (fftwf_codelet_hc2cf_10)
../../fftw-3.3.4/.libs//libfftw3f.a(hc2cf_12.o)
                              ../../fftw-3.3.4/.libs//libfftw3f.a(lt16-codlist.o) (fftwf_codelet_hc2cf_12)
../../fftw-3.3.4/.libs//libfftw3f.a(hc2cf_16.o)
                              ../../fftw-3.3.4/.libs//libfftw3f.a(lt16-codlist.o) (fftwf_codelet_hc2cf_16)
../../fftw-3.3.4/.libs//libfftw3f.a(hc2cf_2.o)
                              ../../fftw-3.3.4/.libs//libfftw3f.a(lt16-codlist.o) (fftwf_codelet_hc2cf_2)
../../fftw-3.3.4/.libs//libfftw3f.a(hc2cf_20.o)
                              ../../fftw-3.3.4/.libs//libfftw3f.a(lt16-codlist.o) (fftwf_codelet_hc2cf_20)
../../fftw-3.3.4/.libs//libfftw3f.a(hc2cf_32.o)
                              ../../fftw-3.3.4/.libs//libfftw3f.a(lt16-codlist.o) (fftwf_codelet_hc2cf_32)
../../fftw-3.3.4/.libs//libfftw3f.a(hc2cf_4.o)
                              ../../fftw-3.3.4/.libs//libfftw3f.a(lt16-codlist.o) (fftwf_codelet_hc2cf_4)
../../fftw-3.3.4/.libs//libfftw3f.a(hc2cf_6.o)
                              ../../fftw-3.3.4/.libs//libfftw3f.a(lt16-codlist.o) (fftwf_codelet_hc2cf_6)
../../fftw-3.3.4/.libs//libfftw3f.a(hc2cf_8.o)
                              ../../fftw-3.3.4/.libs//libfftw3f.a(lt16-codlist.o) (fftwf_codelet_hc2cf_8)
../../fftw-3.3.4/.libs//libfftw3f.a(hc2cfdft2_16.o)
                              ../../fftw-3.3.4/.libs//libfftw3f.a(lt16-codlist.o) (fftwf_codelet_hc2cfdft2_16)
../../fftw-3.3.4/.libs//libfftw3f.a(hc2cfdft2_20.o)
                              ../../fftw-3.3.4/.libs//libfftw3f.a(lt16-codlist.o) (fftwf_codelet_hc2cfdft2_20)
../../fftw-3.3.4/.libs//libfftw3f.a(hc2cfdft2_32.o)
                              ../../fftw-3.3.4/.libs//libfftw3f.a(lt16-codlist.o) (fftwf_codelet_hc2cfdft2_32)
../../fftw-3.3.4/.libs//libfftw3f.a(hc2cfdft2_4.o)
                              ../../fftw-3.3.4/.libs//libfftw3f.a(lt16-codlist.o) (fftwf_codelet_hc2cfdft2_4)
../../fftw-3.3.4/.libs//libfftw3f.a(hc2cfdft2_8.o)
                              ../../fftw-3.3.4/.libs//libfftw3f.a(lt16-codlist.o) (fftwf_codelet_hc2cfdft2_8)
../../fftw-3.3.4/.libs//libfftw3f.a(hc2cfdft_10.o)
                              ../../fftw-3.3.4/.libs//libfftw3f.a(lt16-codlist.o) (fftwf_codelet_hc2cfdft_10)
../../fftw-3.3.4/.libs//libfftw3f.a(hc2cfdft_12.o)
                              ../../fftw-3.3.4/.libs//libfftw3f.a(lt16-codlist.o) (fftwf_codelet_hc2cfdft_12)
../../fftw-3.3.4/.libs//libfftw3f.a(hc2cfdft_16.o)
                              ../../fftw-3.3.4/.libs//libfftw3f.a(lt16-codlist.o) (fftwf_codelet_hc2cfdft_16)
../../fftw-3.3.4/.libs//libfftw3f.a(hc2cfdft_2.o)
                              ../../fftw-3.3.4/.libs//libfftw3f.a(lt16-codlist.o) (fftwf_codelet_hc2cfdft_2)
../../fftw-3.3.4/.libs//libfftw3f.a(hc2cfdft_20.o)
                              ../../fftw-3.3.4/.libs//libfftw3f.a(lt16-codlist.o) (fftwf_codelet_hc2cfdft_20)
../../fftw-3.3.4/.libs//libfftw3f.a(hc2cfdft_32.o)
                              ../../fftw-3.3.4/.libs//libfftw3f.a(lt16-codlist.o) (fftwf_codelet_hc2cfdft_32)
../../fftw-3.3.4/.libs//libfftw3f.a(hc2cfdft_4.o)
                              ../../fftw-3.3.4/.libs//libfftw3f.a(lt16-codlist.o) (fftwf_codelet_hc2cfdft_4)
../../fftw-3.3.4/.libs//libfftw3f.a(hc2cfdft_6.o)
                              ../../fftw-3.3.4/.libs//libfftw3f.a(lt16-codlist.o) (fftwf_codelet_hc2cfdft_6)
../../fftw-3.3.4/.libs//libfftw3f.a(hc2cfdft_8.o)
                              ../../fftw-3.3.4/.libs//libfftw3f.a(lt16-codlist.o) (fftwf_codelet_hc2cfdft_8)
../../fftw-3.3.4/.libs//libfftw3f.a(hf2_16.o)
                              ../../fftw-3.3.4/.libs//libfftw3f.a(lt16-codlist.o) (fftwf_codelet_hf2_16)
../../fftw-3.3.4/.libs//libfftw3f.a(hf2_20.o)
                              ../../fftw-3.3.4/.libs//libfftw3f.a(lt16-codlist.o) (fftwf_codelet_hf2_20)
../../fftw-3.3.4/.libs//libfftw3f.a(hf2_25.o)
                              ../../fftw-3.3.4/.libs//libfftw3f.a(lt16-codlist.o) (fftwf_codelet_hf2_25)
../../fftw-3.3.4/.libs//libfftw3f.a(hf2_32.o)
                              ../../fftw-3.3.4/.libs//libfftw3f.a(lt16-codlist.o) (fftwf_codelet_hf2_32)
../../fftw-3.3.4/.libs//libfftw3f.a(hf2_4.o)
                              ../../fftw-3.3.4/.libs//libfftw3f.a(lt16-codlist.o) (fftwf_codelet_hf2_4)
../../fftw-3.3.4/.libs//libfftw3f.a(hf2_5.o)
                              ../../fftw-3.3.4/.libs//libfftw3f.a(lt16-codlist.o) (fftwf_codelet_hf2_5)
../../fftw-3.3.4/.libs//libfftw3f.a(hf2_8.o)
                              ../../fftw-3.3.4/.libs//libfftw3f.a(lt16-codlist.o) (fftwf_codelet_hf2_8)
../../fftw-3.3.4/.libs//libfftw3f.a(hf_10.o)
                              ../../fftw-3.3.4/.libs//libfftw3f.a(lt16-codlist.o) (fftwf_codelet_hf_10)
../../fftw-3.3.4/.libs//libfftw3f.a(hf_12.o)
                              ../../fftw-3.3.4/.libs//libfftw3f.a(lt16-codlist.o) (fftwf_codelet_hf_12)
../../fftw-3.3.4/.libs//libfftw3f.a(hf_15.o)
                              ../../fftw-3.3.4/.libs//libfftw3f.a(lt16-codlist.o) (fftwf_codelet_hf_15)
../../fftw-3.3.4/.libs//libfftw3f.a(hf_16.o)
                              ../../fftw-3.3.4/.libs//libfftw3f.a(lt16-codlist.o) (fftwf_codelet_hf_16)
../../fftw-3.3.4/.libs//libfftw3f.a(hf_2.o)
                              ../../fftw-3.3.4/.libs//libfftw3f.a(lt16-codlist.o) (fftwf_codelet_hf_2)
../../fftw-3.3.4/.libs//libfftw3f.a(hf_20.o)
                              ../../fftw-3.3.4/.libs//libfftw3f.a(lt16-codlist.o) (fftwf_codelet_hf_20)
../../fftw-3.3.4/.libs//libfftw3f.a(hf_25.o)
                              ../../fftw-3.3.4/.libs//libfftw3f.a(lt16-codlist.o) (fftwf_codelet_hf_25)
../../fftw-3.3.4/.libs//libfftw3f.a(hf_3.o)
                              ../../fftw-3.3.4/.libs//libfftw3f.a(lt16-codlist.o) (fftwf_codelet_hf_3)
../../fftw-3.3.4/.libs//libfftw3f.a(hf_32.o)
                              ../../fftw-3.3.4/.libs//libfftw3f.a(lt16-codlist.o) (fftwf_codelet_hf_32)
../../fftw-3.3.4/.libs//libfftw3f.a(hf_4.o)
                              ../../fftw-3.3.4/.libs//libfftw3f.a(lt16-codlist.o) (fftwf_codelet_hf_4)
../../fftw-3.3.4/.libs//libfftw3f.a(hf_5.o)
                              ../../fftw-3.3.4/.libs//libfftw3f.a(lt16-codlist.o) (fftwf_codelet_hf_5)
../../fftw-3.3.4/.libs//libfftw3f.a(hf_6.o)
                              ../../fftw-3.3.4/.libs//libfftw3f.a(lt16-codlist.o) (fftwf_codelet_hf_6)
../../fftw-3.3.4/.libs//libfftw3f.a(hf_64.o)
                              ../../fftw-3.3.4/.libs//libfftw3f.a(lt16-codlist.o) (fftwf_codelet_hf_64)
../../fftw-3.3.4/.libs//libfftw3f.a(hf_7.o)
                              ../../fftw-3.3.4/.libs//libfftw3f.a(lt16-codlist.o) (fftwf_codelet_hf_7)
../../fftw-3.3.4/.libs//libfftw3f.a(hf_8.o)
                              ../../fftw-3.3.4/.libs//libfftw3f.a(lt16-codlist.o) (fftwf_codelet_hf_8)
../../fftw-3.3.4/.libs//libfftw3f.a(hf_9.o)
                              ../../fftw-3.3.4/.libs//libfftw3f.a(lt16-codlist.o) (fftwf_codelet_hf_9)
../../fftw-3.3.4/.libs//libfftw3f.a(r2cfII_10.o)
                              ../../fftw-3.3.4/.libs//libfftw3f.a(lt16-codlist.o) (fftwf_codelet_r2cfII_10)
../../fftw-3.3.4/.libs//libfftw3f.a(r2cfII_12.o)
                              ../../fftw-3.3.4/.libs//libfftw3f.a(lt16-codlist.o) (fftwf_codelet_r2cfII_12)
../../fftw-3.3.4/.libs//libfftw3f.a(r2cfII_15.o)
                              ../../fftw-3.3.4/.libs//libfftw3f.a(lt16-codlist.o) (fftwf_codelet_r2cfII_15)
../../fftw-3.3.4/.libs//libfftw3f.a(r2cfII_16.o)
                              ../../fftw-3.3.4/.libs//libfftw3f.a(lt16-codlist.o) (fftwf_codelet_r2cfII_16)
../../fftw-3.3.4/.libs//libfftw3f.a(r2cfII_2.o)
                              ../../fftw-3.3.4/.libs//libfftw3f.a(lt16-codlist.o) (fftwf_codelet_r2cfII_2)
../../fftw-3.3.4/.libs//libfftw3f.a(r2cfII_20.o)
                              ../../fftw-3.3.4/.libs//libfftw3f.a(lt16-codlist.o) (fftwf_codelet_r2cfII_20)
../../fftw-3.3.4/.libs//libfftw3f.a(r2cfII_25.o)
                              ../../fftw-3.3.4/.libs//libfftw3f.a(lt16-codlist.o) (fftwf_codelet_r2cfII_25)
../../fftw-3.3.4/.libs//libfftw3f.a(r2cfII_3.o)
                              ../../fftw-3.3.4/.libs//libfftw3f.a(lt16-codlist.o) (fftwf_codelet_r2cfII_3)
../../fftw-3.3.4/.libs//libfftw3f.a(r2cfII_32.o)
                              ../../fftw-3.3.4/.libs//libfftw3f.a(lt16-codlist.o) (fftwf_codelet_r2cfII_32)
../../fftw-3.3.4/.libs//libfftw3f.a(r2cfII_4.o)
                              ../../fftw-3.3.4/.libs//libfftw3f.a(lt16-codlist.o) (fftwf_codelet_r2cfII_4)
../../fftw-3.3.4/.libs//libfftw3f.a(r2cfII_5.o)
                              ../../fftw-3.3.4/.libs//libfftw3f.a(lt16-codlist.o) (fftwf_codelet_r2cfII_5)
../../fftw-3.3.4/.libs//libfftw3f.a(r2cfII_6.o)
                              ../../fftw-3.3.4/.libs//libfftw3f.a(lt16-codlist.o) (fftwf_codelet_r2cfII_6)
../../fftw-3.3.4/.libs//libfftw3f.a(r2cfII_64.o)
                              ../../fftw-3.3.4/.libs//libfftw3f.a(lt16-codlist.o) (fftwf_codelet_r2cfII_64)
../../fftw-3.3.4/.libs//libfftw3f.a(r2cfII_7.o)
                              ../../fftw-3.3.4/.libs//libfftw3f.a(lt16-codlist.o) (fftwf_codelet_r2cfII_7)
../../fftw-3.3.4/.libs//libfftw3f.a(r2cfII_8.o)
                              ../../fftw-3.3.4/.libs//libfftw3f.a(lt16-codlist.o) (fftwf_codelet_r2cfII_8)
../../fftw-3.3.4/.libs//libfftw3f.a(r2cfII_9.o)
                              ../../fftw-3.3.4/.libs//libfftw3f.a(lt16-codlist.o) (fftwf_codelet_r2cfII_9)
../../fftw-3.3.4/.libs//libfftw3f.a(r2cf_10.o)
                              ../../fftw-3.3.4/.libs//libfftw3f.a(lt16-codlist.o) (fftwf_codelet_r2cf_10)
../../fftw-3.3.4/.libs//libfftw3f.a(r2cf_11.o)
                              ../../fftw-3.3.4/.libs//libfftw3f.a(lt16-codlist.o) (fftwf_codelet_r2cf_11)
../../fftw-3.3.4/.libs//libfftw3f.a(r2cf_12.o)
                              ../../fftw-3.3.4/.libs//libfftw3f.a(lt16-codlist.o) (fftwf_codelet_r2cf_12)
../../fftw-3.3.4/.libs//libfftw3f.a(r2cf_128.o)
                              ../../fftw-3.3.4/.libs//libfftw3f.a(lt16-codlist.o) (fftwf_codelet_r2cf_128)
../../fftw-3.3.4/.libs//libfftw3f.a(r2cf_13.o)
                              ../../fftw-3.3.4/.libs//libfftw3f.a(lt16-codlist.o) (fftwf_codelet_r2cf_13)
../../fftw-3.3.4/.libs//libfftw3f.a(r2cf_14.o)
                              ../../fftw-3.3.4/.libs//libfftw3f.a(lt16-codlist.o) (fftwf_codelet_r2cf_14)
../../fftw-3.3.4/.libs//libfftw3f.a(r2cf_15.o)
                              ../../fftw-3.3.4/.libs//libfftw3f.a(lt16-codlist.o) (fftwf_codelet_r2cf_15)
../../fftw-3.3.4/.libs//libfftw3f.a(r2cf_16.o)
                              ../../fftw-3.3.4/.libs//libfftw3f.a(lt16-codlist.o) (fftwf_codelet_r2cf_16)
../../fftw-3.3.4/.libs//libfftw3f.a(r2cf_2.o)
                              ../../fftw-3.3.4/.libs//libfftw3f.a(lt16-codlist.o) (fftwf_codelet_r2cf_2)
../../fftw-3.3.4/.libs//libfftw3f.a(r2cf_20.o)
                              ../../fftw-3.3.4/.libs//libfftw3f.a(lt16-codlist.o) (fftwf_codelet_r2cf_20)
../../fftw-3.3.4/.libs//libfftw3f.a(r2cf_25.o)
                              ../../fftw-3.3.4/.libs//libfftw3f.a(lt16-codlist.o) (fftwf_codelet_r2cf_25)
../../fftw-3.3.4/.libs//libfftw3f.a(r2cf_3.o)
                              ../../fftw-3.3.4/.libs//libfftw3f.a(lt16-codlist.o) (fftwf_codelet_r2cf_3)
../../fftw-3.3.4/.libs//libfftw3f.a(r2cf_32.o)
                              ../../fftw-3.3.4/.libs//libfftw3f.a(lt16-codlist.o) (fftwf_codelet_r2cf_32)
../../fftw-3.3.4/.libs//libfftw3f.a(r2cf_4.o)
                              ../../fftw-3.3.4/.libs//libfftw3f.a(lt16-codlist.o) (fftwf_codelet_r2cf_4)
../../fftw-3.3.4/.libs//libfftw3f.a(r2cf_5.o)
                              ../../fftw-3.3.4/.libs//libfftw3f.a(lt16-codlist.o) (fftwf_codelet_r2cf_5)
../../fftw-3.3.4/.libs//libfftw3f.a(r2cf_6.o)
                              ../../fftw-3.3.4/.libs//libfftw3f.a(lt16-codlist.o) (fftwf_codelet_r2cf_6)
../../fftw-3.3.4/.libs//libfftw3f.a(r2cf_64.o)
                              ../../fftw-3.3.4/.libs//libfftw3f.a(lt16-codlist.o) (fftwf_codelet_r2cf_64)
../../fftw-3.3.4/.libs//libfftw3f.a(r2cf_7.o)
                              ../../fftw-3.3.4/.libs//libfftw3f.a(lt16-codlist.o) (fftwf_codelet_r2cf_7)
../../fftw-3.3.4/.libs//libfftw3f.a(r2cf_8.o)
                              ../../fftw-3.3.4/.libs//libfftw3f.a(lt16-codlist.o) (fftwf_codelet_r2cf_8)
../../fftw-3.3.4/.libs//libfftw3f.a(r2cf_9.o)
                              ../../fftw-3.3.4/.libs//libfftw3f.a(lt16-codlist.o) (fftwf_codelet_r2cf_9)
../../fftw-3.3.4/.libs//libfftw3f.a(lt17-codlist.o)
                              ../../fftw-3.3.4/.libs//libfftw3f.a(lt7-conf.o) (fftwf_solvtab_rdft_r2cb)
../../fftw-3.3.4/.libs//libfftw3f.a(hb2_16.o)
                              ../../fftw-3.3.4/.libs//libfftw3f.a(lt17-codlist.o) (fftwf_codelet_hb2_16)
../../fftw-3.3.4/.libs//libfftw3f.a(hb2_20.o)
                              ../../fftw-3.3.4/.libs//libfftw3f.a(lt17-codlist.o) (fftwf_codelet_hb2_20)
../../fftw-3.3.4/.libs//libfftw3f.a(hb2_25.o)
                              ../../fftw-3.3.4/.libs//libfftw3f.a(lt17-codlist.o) (fftwf_codelet_hb2_25)
../../fftw-3.3.4/.libs//libfftw3f.a(hb2_32.o)
                              ../../fftw-3.3.4/.libs//libfftw3f.a(lt17-codlist.o) (fftwf_codelet_hb2_32)
../../fftw-3.3.4/.libs//libfftw3f.a(hb2_4.o)
                              ../../fftw-3.3.4/.libs//libfftw3f.a(lt17-codlist.o) (fftwf_codelet_hb2_4)
../../fftw-3.3.4/.libs//libfftw3f.a(hb2_5.o)
                              ../../fftw-3.3.4/.libs//libfftw3f.a(lt17-codlist.o) (fftwf_codelet_hb2_5)
../../fftw-3.3.4/.libs//libfftw3f.a(hb2_8.o)
                              ../../fftw-3.3.4/.libs//libfftw3f.a(lt17-codlist.o) (fftwf_codelet_hb2_8)
../../fftw-3.3.4/.libs//libfftw3f.a(hb_10.o)
                              ../../fftw-3.3.4/.libs//libfftw3f.a(lt17-codlist.o) (fftwf_codelet_hb_10)
../../fftw-3.3.4/.libs//libfftw3f.a(hb_12.o)
                              ../../fftw-3.3.4/.libs//libfftw3f.a(lt17-codlist.o) (fftwf_codelet_hb_12)
../../fftw-3.3.4/.libs//libfftw3f.a(hb_15.o)
                              ../../fftw-3.3.4/.libs//libfftw3f.a(lt17-codlist.o) (fftwf_codelet_hb_15)
../../fftw-3.3.4/.libs//libfftw3f.a(hb_16.o)
                              ../../fftw-3.3.4/.libs//libfftw3f.a(lt17-codlist.o) (fftwf_codelet_hb_16)
../../fftw-3.3.4/.libs//libfftw3f.a(hb_2.o)
                              ../../fftw-3.3.4/.libs//libfftw3f.a(lt17-codlist.o) (fftwf_codelet_hb_2)
../../fftw-3.3.4/.libs//libfftw3f.a(hb_20.o)
                              ../../fftw-3.3.4/.libs//libfftw3f.a(lt17-codlist.o) (fftwf_codelet_hb_20)
../../fftw-3.3.4/.libs//libfftw3f.a(hb_25.o)
                              ../../fftw-3.3.4/.libs//libfftw3f.a(lt17-codlist.o) (fftwf_codelet_hb_25)
../../fftw-3.3.4/.libs//libfftw3f.a(hb_3.o)
                              ../../fftw-3.3.4/.libs//libfftw3f.a(lt17-codlist.o) (fftwf_codelet_hb_3)
../../fftw-3.3.4/.libs//libfftw3f.a(hb_32.o)
                              ../../fftw-3.3.4/.libs//libfftw3f.a(lt17-codlist.o) (fftwf_codelet_hb_32)
../../fftw-3.3.4/.libs//libfftw3f.a(hb_4.o)
                              ../../fftw-3.3.4/.libs//libfftw3f.a(lt17-codlist.o) (fftwf_codelet_hb_4)
../../fftw-3.3.4/.libs//libfftw3f.a(hb_5.o)
                              ../../fftw-3.3.4/.libs//libfftw3f.a(lt17-codlist.o) (fftwf_codelet_hb_5)
../../fftw-3.3.4/.libs//libfftw3f.a(hb_6.o)
                              ../../fftw-3.3.4/.libs//libfftw3f.a(lt17-codlist.o) (fftwf_codelet_hb_6)
../../fftw-3.3.4/.libs//libfftw3f.a(hb_64.o)
                              ../../fftw-3.3.4/.libs//libfftw3f.a(lt17-codlist.o) (fftwf_codelet_hb_64)
../../fftw-3.3.4/.libs//libfftw3f.a(hb_7.o)
                              ../../fftw-3.3.4/.libs//libfftw3f.a(lt17-codlist.o) (fftwf_codelet_hb_7)
../../fftw-3.3.4/.libs//libfftw3f.a(hb_8.o)
                              ../../fftw-3.3.4/.libs//libfftw3f.a(lt17-codlist.o) (fftwf_codelet_hb_8)
../../fftw-3.3.4/.libs//libfftw3f.a(hb_9.o)
                              ../../fftw-3.3.4/.libs//libfftw3f.a(lt17-codlist.o) (fftwf_codelet_hb_9)
../../fftw-3.3.4/.libs//libfftw3f.a(hc2cb2_16.o)
                              ../../fftw-3.3.4/.libs//libfftw3f.a(lt17-codlist.o) (fftwf_codelet_hc2cb2_16)
../../fftw-3.3.4/.libs//libfftw3f.a(hc2cb2_20.o)
                              ../../fftw-3.3.4/.libs//libfftw3f.a(lt17-codlist.o) (fftwf_codelet_hc2cb2_20)
../../fftw-3.3.4/.libs//libfftw3f.a(hc2cb2_32.o)
                              ../../fftw-3.3.4/.libs//libfftw3f.a(lt17-codlist.o) (fftwf_codelet_hc2cb2_32)
../../fftw-3.3.4/.libs//libfftw3f.a(hc2cb2_4.o)
                              ../../fftw-3.3.4/.libs//libfftw3f.a(lt17-codlist.o) (fftwf_codelet_hc2cb2_4)
../../fftw-3.3.4/.libs//libfftw3f.a(hc2cb2_8.o)
                              ../../fftw-3.3.4/.libs//libfftw3f.a(lt17-codlist.o) (fftwf_codelet_hc2cb2_8)
../../fftw-3.3.4/.libs//libfftw3f.a(hc2cb_10.o)
                              ../../fftw-3.3.4/.libs//libfftw3f.a(lt17-codlist.o) (fftwf_codelet_hc2cb_10)
../../fftw-3.3.4/.libs//libfftw3f.a(hc2cb_12.o)
                              ../../fftw-3.3.4/.libs//libfftw3f.a(lt17-codlist.o) (fftwf_codelet_hc2cb_12)
../../fftw-3.3.4/.libs//libfftw3f.a(hc2cb_16.o)
                              ../../fftw-3.3.4/.libs//libfftw3f.a(lt17-codlist.o) (fftwf_codelet_hc2cb_16)
../../fftw-3.3.4/.libs//libfftw3f.a(hc2cb_2.o)
                              ../../fftw-3.3.4/.libs//libfftw3f.a(lt17-codlist.o) (fftwf_codelet_hc2cb_2)
../../fftw-3.3.4/.libs//libfftw3f.a(hc2cb_20.o)
                              ../../fftw-3.3.4/.libs//libfftw3f.a(lt17-codlist.o) (fftwf_codelet_hc2cb_20)
../../fftw-3.3.4/.libs//libfftw3f.a(hc2cb_32.o)
                              ../../fftw-3.3.4/.libs//libfftw3f.a(lt17-codlist.o) (fftwf_codelet_hc2cb_32)
../../fftw-3.3.4/.libs//libfftw3f.a(hc2cb_4.o)
                              ../../fftw-3.3.4/.libs//libfftw3f.a(lt17-codlist.o) (fftwf_codelet_hc2cb_4)
../../fftw-3.3.4/.libs//libfftw3f.a(hc2cb_6.o)
                              ../../fftw-3.3.4/.libs//libfftw3f.a(lt17-codlist.o) (fftwf_codelet_hc2cb_6)
../../fftw-3.3.4/.libs//libfftw3f.a(hc2cb_8.o)
                              ../../fftw-3.3.4/.libs//libfftw3f.a(lt17-codlist.o) (fftwf_codelet_hc2cb_8)
../../fftw-3.3.4/.libs//libfftw3f.a(hc2cbdft2_16.o)
                              ../../fftw-3.3.4/.libs//libfftw3f.a(lt17-codlist.o) (fftwf_codelet_hc2cbdft2_16)
../../fftw-3.3.4/.libs//libfftw3f.a(hc2cbdft2_20.o)
                              ../../fftw-3.3.4/.libs//libfftw3f.a(lt17-codlist.o) (fftwf_codelet_hc2cbdft2_20)
../../fftw-3.3.4/.libs//libfftw3f.a(hc2cbdft2_32.o)
                              ../../fftw-3.3.4/.libs//libfftw3f.a(lt17-codlist.o) (fftwf_codelet_hc2cbdft2_32)
../../fftw-3.3.4/.libs//libfftw3f.a(hc2cbdft2_4.o)
                              ../../fftw-3.3.4/.libs//libfftw3f.a(lt17-codlist.o) (fftwf_codelet_hc2cbdft2_4)
../../fftw-3.3.4/.libs//libfftw3f.a(hc2cbdft2_8.o)
                              ../../fftw-3.3.4/.libs//libfftw3f.a(lt17-codlist.o) (fftwf_codelet_hc2cbdft2_8)
../../fftw-3.3.4/.libs//libfftw3f.a(hc2cbdft_10.o)
                              ../../fftw-3.3.4/.libs//libfftw3f.a(lt17-codlist.o) (fftwf_codelet_hc2cbdft_10)
../../fftw-3.3.4/.libs//libfftw3f.a(hc2cbdft_12.o)
                              ../../fftw-3.3.4/.libs//libfftw3f.a(lt17-codlist.o) (fftwf_codelet_hc2cbdft_12)
../../fftw-3.3.4/.libs//libfftw3f.a(hc2cbdft_16.o)
                              ../../fftw-3.3.4/.libs//libfftw3f.a(lt17-codlist.o) (fftwf_codelet_hc2cbdft_16)
../../fftw-3.3.4/.libs//libfftw3f.a(hc2cbdft_2.o)
                              ../../fftw-3.3.4/.libs//libfftw3f.a(lt17-codlist.o) (fftwf_codelet_hc2cbdft_2)
../../fftw-3.3.4/.libs//libfftw3f.a(hc2cbdft_20.o)
                              ../../fftw-3.3.4/.libs//libfftw3f.a(lt17-codlist.o) (fftwf_codelet_hc2cbdft_20)
../../fftw-3.3.4/.libs//libfftw3f.a(hc2cbdft_32.o)
                              ../../fftw-3.3.4/.libs//libfftw3f.a(lt17-codlist.o) (fftwf_codelet_hc2cbdft_32)
../../fftw-3.3.4/.libs//libfftw3f.a(hc2cbdft_4.o)
                              ../../fftw-3.3.4/.libs//libfftw3f.a(lt17-codlist.o) (fftwf_codelet_hc2cbdft_4)
../../fftw-3.3.4/.libs//libfftw3f.a(hc2cbdft_6.o)
                              ../../fftw-3.3.4/.libs//libfftw3f.a(lt17-codlist.o) (fftwf_codelet_hc2cbdft_6)
../../fftw-3.3.4/.libs//libfftw3f.a(hc2cbdft_8.o)
                              ../../fftw-3.3.4/.libs//libfftw3f.a(lt17-codlist.o) (fftwf_codelet_hc2cbdft_8)
../../fftw-3.3.4/.libs//libfftw3f.a(r2cbIII_10.o)
                              ../../fftw-3.3.4/.libs//libfftw3f.a(lt17-codlist.o) (fftwf_codelet_r2cbIII_10)
../../fftw-3.3.4/.libs//libfftw3f.a(r2cbIII_12.o)
                              ../../fftw-3.3.4/.libs//libfftw3f.a(lt17-codlist.o) (fftwf_codelet_r2cbIII_12)
../../fftw-3.3.4/.libs//libfftw3f.a(r2cbIII_15.o)
                              ../../fftw-3.3.4/.libs//libfftw3f.a(lt17-codlist.o) (fftwf_codelet_r2cbIII_15)
../../fftw-3.3.4/.libs//libfftw3f.a(r2cbIII_16.o)
                              ../../fftw-3.3.4/.libs//libfftw3f.a(lt17-codlist.o) (fftwf_codelet_r2cbIII_16)
../../fftw-3.3.4/.libs//libfftw3f.a(r2cbIII_2.o)
                              ../../fftw-3.3.4/.libs//libfftw3f.a(lt17-codlist.o) (fftwf_codelet_r2cbIII_2)
../../fftw-3.3.4/.libs//libfftw3f.a(r2cbIII_20.o)
                              ../../fftw-3.3.4/.libs//libfftw3f.a(lt17-codlist.o) (fftwf_codelet_r2cbIII_20)
../../fftw-3.3.4/.libs//libfftw3f.a(r2cbIII_25.o)
                              ../../fftw-3.3.4/.libs//libfftw3f.a(lt17-codlist.o) (fftwf_codelet_r2cbIII_25)
../../fftw-3.3.4/.libs//libfftw3f.a(r2cbIII_3.o)
                              ../../fftw-3.3.4/.libs//libfftw3f.a(lt17-codlist.o) (fftwf_codelet_r2cbIII_3)
../../fftw-3.3.4/.libs//libfftw3f.a(r2cbIII_32.o)
                              ../../fftw-3.3.4/.libs//libfftw3f.a(lt17-codlist.o) (fftwf_codelet_r2cbIII_32)
../../fftw-3.3.4/.libs//libfftw3f.a(r2cbIII_4.o)
                              ../../fftw-3.3.4/.libs//libfftw3f.a(lt17-codlist.o) (fftwf_codelet_r2cbIII_4)
../../fftw-3.3.4/.libs//libfftw3f.a(r2cbIII_5.o)
                              ../../fftw-3.3.4/.libs//libfftw3f.a(lt17-codlist.o) (fftwf_codelet_r2cbIII_5)
../../fftw-3.3.4/.libs//libfftw3f.a(r2cbIII_6.o)
                              ../../fftw-3.3.4/.libs//libfftw3f.a(lt17-codlist.o) (fftwf_codelet_r2cbIII_6)
../../fftw-3.3.4/.libs//libfftw3f.a(r2cbIII_64.o)
                              ../../fftw-3.3.4/.libs//libfftw3f.a(lt17-codlist.o) (fftwf_codelet_r2cbIII_64)
../../fftw-3.3.4/.libs//libfftw3f.a(r2cbIII_7.o)
                              ../../fftw-3.3.4/.libs//libfftw3f.a(lt17-codlist.o) (fftwf_codelet_r2cbIII_7)
../../fftw-3.3.4/.libs//libfftw3f.a(r2cbIII_8.o)
                              ../../fftw-3.3.4/.libs//libfftw3f.a(lt17-codlist.o) (fftwf_codelet_r2cbIII_8)
../../fftw-3.3.4/.libs//libfftw3f.a(r2cbIII_9.o)
                              ../../fftw-3.3.4/.libs//libfftw3f.a(lt17-codlist.o) (fftwf_codelet_r2cbIII_9)
../../fftw-3.3.4/.libs//libfftw3f.a(r2cb_10.o)
                              ../../fftw-3.3.4/.libs//libfftw3f.a(lt17-codlist.o) (fftwf_codelet_r2cb_10)
../../fftw-3.3.4/.libs//libfftw3f.a(r2cb_11.o)
                              ../../fftw-3.3.4/.libs//libfftw3f.a(lt17-codlist.o) (fftwf_codelet_r2cb_11)
../../fftw-3.3.4/.libs//libfftw3f.a(r2cb_12.o)
                              ../../fftw-3.3.4/.libs//libfftw3f.a(lt17-codlist.o) (fftwf_codelet_r2cb_12)
../../fftw-3.3.4/.libs//libfftw3f.a(r2cb_128.o)
                              ../../fftw-3.3.4/.libs//libfftw3f.a(lt17-codlist.o) (fftwf_codelet_r2cb_128)
../../fftw-3.3.4/.libs//libfftw3f.a(r2cb_13.o)
                              ../../fftw-3.3.4/.libs//libfftw3f.a(lt17-codlist.o) (fftwf_codelet_r2cb_13)
../../fftw-3.3.4/.libs//libfftw3f.a(r2cb_14.o)
                              ../../fftw-3.3.4/.libs//libfftw3f.a(lt17-codlist.o) (fftwf_codelet_r2cb_14)
../../fftw-3.3.4/.libs//libfftw3f.a(r2cb_15.o)
                              ../../fftw-3.3.4/.libs//libfftw3f.a(lt17-codlist.o) (fftwf_codelet_r2cb_15)
../../fftw-3.3.4/.libs//libfftw3f.a(r2cb_16.o)
                              ../../fftw-3.3.4/.libs//libfftw3f.a(lt17-codlist.o) (fftwf_codelet_r2cb_16)
../../fftw-3.3.4/.libs//libfftw3f.a(r2cb_2.o)
                              ../../fftw-3.3.4/.libs//libfftw3f.a(lt17-codlist.o) (fftwf_codelet_r2cb_2)
../../fftw-3.3.4/.libs//libfftw3f.a(r2cb_20.o)
                              ../../fftw-3.3.4/.libs//libfftw3f.a(lt17-codlist.o) (fftwf_codelet_r2cb_20)
../../fftw-3.3.4/.libs//libfftw3f.a(r2cb_25.o)
                              ../../fftw-3.3.4/.libs//libfftw3f.a(lt17-codlist.o) (fftwf_codelet_r2cb_25)
../../fftw-3.3.4/.libs//libfftw3f.a(r2cb_3.o)
                              ../../fftw-3.3.4/.libs//libfftw3f.a(lt17-codlist.o) (fftwf_codelet_r2cb_3)
../../fftw-3.3.4/.libs//libfftw3f.a(r2cb_32.o)
                              ../../fftw-3.3.4/.libs//libfftw3f.a(lt17-codlist.o) (fftwf_codelet_r2cb_32)
../../fftw-3.3.4/.libs//libfftw3f.a(r2cb_4.o)
                              ../../fftw-3.3.4/.libs//libfftw3f.a(lt17-codlist.o) (fftwf_codelet_r2cb_4)
../../fftw-3.3.4/.libs//libfftw3f.a(r2cb_5.o)
                              ../../fftw-3.3.4/.libs//libfftw3f.a(lt17-codlist.o) (fftwf_codelet_r2cb_5)
../../fftw-3.3.4/.libs//libfftw3f.a(r2cb_6.o)
                              ../../fftw-3.3.4/.libs//libfftw3f.a(lt17-codlist.o) (fftwf_codelet_r2cb_6)
../../fftw-3.3.4/.libs//libfftw3f.a(r2cb_64.o)
                              ../../fftw-3.3.4/.libs//libfftw3f.a(lt17-codlist.o) (fftwf_codelet_r2cb_64)
../../fftw-3.3.4/.libs//libfftw3f.a(r2cb_7.o)
                              ../../fftw-3.3.4/.libs//libfftw3f.a(lt17-codlist.o) (fftwf_codelet_r2cb_7)
../../fftw-3.3.4/.libs//libfftw3f.a(r2cb_8.o)
                              ../../fftw-3.3.4/.libs//libfftw3f.a(lt17-codlist.o) (fftwf_codelet_r2cb_8)
../../fftw-3.3.4/.libs//libfftw3f.a(r2cb_9.o)
                              ../../fftw-3.3.4/.libs//libfftw3f.a(lt17-codlist.o) (fftwf_codelet_r2cb_9)
../../fftw-3.3.4/.libs//libfftw3f.a(lt18-codlist.o)
                              ../../fftw-3.3.4/.libs//libfftw3f.a(lt7-conf.o) (fftwf_solvtab_rdft_r2r)
../../fftw-3.3.4/.libs//libfftw3f.a(e01_8.o)
                              ../../fftw-3.3.4/.libs//libfftw3f.a(lt18-codlist.o) (fftwf_codelet_e01_8)
../../fftw-3.3.4/.libs//libfftw3f.a(e10_8.o)
                              ../../fftw-3.3.4/.libs//libfftw3f.a(lt18-codlist.o) (fftwf_codelet_e10_8)
../../fftw-3.3.4/.libs//libfftw3f.a(lt19-conf.o)
                              ../../fftw-3.3.4/.libs//libfftw3f.a(configure.o) (fftwf_reodft_conf_standard)
../../fftw-3.3.4/.libs//libfftw3f.a(redft00e-r2hc-pad.o)
                              ../../fftw-3.3.4/.libs//libfftw3f.a(lt19-conf.o) (fftwf_redft00e_r2hc_pad_register)
../../fftw-3.3.4/.libs//libfftw3f.a(reodft00e-splitradix.o)
                              ../../fftw-3.3.4/.libs//libfftw3f.a(lt19-conf.o) (fftwf_reodft00e_splitradix_register)
../../fftw-3.3.4/.libs//libfftw3f.a(reodft010e-r2hc.o)
                              ../../fftw-3.3.4/.libs//libfftw3f.a(lt19-conf.o) (fftwf_reodft010e_r2hc_register)
../../fftw-3.3.4/.libs//libfftw3f.a(reodft11e-r2hc-odd.o)
                              ../../fftw-3.3.4/.libs//libfftw3f.a(lt19-conf.o) (fftwf_reodft11e_r2hc_odd_register)
../../fftw-3.3.4/.libs//libfftw3f.a(reodft11e-radix2.o)
                              ../../fftw-3.3.4/.libs//libfftw3f.a(lt19-conf.o) (fftwf_reodft11e_radix2_r2hc_register)
../../fftw-3.3.4/.libs//libfftw3f.a(rodft00e-r2hc-pad.o)
                              ../../fftw-3.3.4/.libs//libfftw3f.a(lt19-conf.o) (fftwf_rodft00e_r2hc_pad_register)
../../fftw-3.3.4/.libs//libfftw3f.a(neon.o)
                              ../../fftw-3.3.4/.libs//libfftw3f.a(conf.o) (fftwf_have_simd_neon)
../../fftw-3.3.4/.libs//libfftw3f.a(lt20-codlist.o)
                              ../../fftw-3.3.4/.libs//libfftw3f.a(conf.o) (fftwf_solvtab_dft_neon)
../../fftw-3.3.4/.libs//libfftw3f.a(n1bv_10.o)
                              ../../fftw-3.3.4/.libs//libfftw3f.a(lt20-codlist.o) (fftwf_codelet_n1bv_10_neon)
../../fftw-3.3.4/.libs//libfftw3f.a(n1bv_11.o)
                              ../../fftw-3.3.4/.libs//libfftw3f.a(lt20-codlist.o) (fftwf_codelet_n1bv_11_neon)
../../fftw-3.3.4/.libs//libfftw3f.a(n1bv_12.o)
                              ../../fftw-3.3.4/.libs//libfftw3f.a(lt20-codlist.o) (fftwf_codelet_n1bv_12_neon)
../../fftw-3.3.4/.libs//libfftw3f.a(n1bv_128.o)
                              ../../fftw-3.3.4/.libs//libfftw3f.a(lt20-codlist.o) (fftwf_codelet_n1bv_128_neon)
../../fftw-3.3.4/.libs//libfftw3f.a(n1bv_13.o)
                              ../../fftw-3.3.4/.libs//libfftw3f.a(lt20-codlist.o) (fftwf_codelet_n1bv_13_neon)
../../fftw-3.3.4/.libs//libfftw3f.a(n1bv_14.o)
                              ../../fftw-3.3.4/.libs//libfftw3f.a(lt20-codlist.o) (fftwf_codelet_n1bv_14_neon)
../../fftw-3.3.4/.libs//libfftw3f.a(n1bv_15.o)
                              ../../fftw-3.3.4/.libs//libfftw3f.a(lt20-codlist.o) (fftwf_codelet_n1bv_15_neon)
../../fftw-3.3.4/.libs//libfftw3f.a(n1bv_16.o)
                              ../../fftw-3.3.4/.libs//libfftw3f.a(lt20-codlist.o) (fftwf_codelet_n1bv_16_neon)
../../fftw-3.3.4/.libs//libfftw3f.a(n1bv_2.o)
                              ../../fftw-3.3.4/.libs//libfftw3f.a(lt20-codlist.o) (fftwf_codelet_n1bv_2_neon)
../../fftw-3.3.4/.libs//libfftw3f.a(n1bv_20.o)
                              ../../fftw-3.3.4/.libs//libfftw3f.a(lt20-codlist.o) (fftwf_codelet_n1bv_20_neon)
../../fftw-3.3.4/.libs//libfftw3f.a(n1bv_25.o)
                              ../../fftw-3.3.4/.libs//libfftw3f.a(lt20-codlist.o) (fftwf_codelet_n1bv_25_neon)
../../fftw-3.3.4/.libs//libfftw3f.a(n1bv_3.o)
                              ../../fftw-3.3.4/.libs//libfftw3f.a(lt20-codlist.o) (fftwf_codelet_n1bv_3_neon)
../../fftw-3.3.4/.libs//libfftw3f.a(n1bv_32.o)
                              ../../fftw-3.3.4/.libs//libfftw3f.a(lt20-codlist.o) (fftwf_codelet_n1bv_32_neon)
../../fftw-3.3.4/.libs//libfftw3f.a(n1bv_4.o)
                              ../../fftw-3.3.4/.libs//libfftw3f.a(lt20-codlist.o) (fftwf_codelet_n1bv_4_neon)
../../fftw-3.3.4/.libs//libfftw3f.a(n1bv_5.o)
                              ../../fftw-3.3.4/.libs//libfftw3f.a(lt20-codlist.o) (fftwf_codelet_n1bv_5_neon)
../../fftw-3.3.4/.libs//libfftw3f.a(n1bv_6.o)
                              ../../fftw-3.3.4/.libs//libfftw3f.a(lt20-codlist.o) (fftwf_codelet_n1bv_6_neon)
../../fftw-3.3.4/.libs//libfftw3f.a(n1bv_64.o)
                              ../../fftw-3.3.4/.libs//libfftw3f.a(lt20-codlist.o) (fftwf_codelet_n1bv_64_neon)
../../fftw-3.3.4/.libs//libfftw3f.a(n1bv_7.o)
                              ../../fftw-3.3.4/.libs//libfftw3f.a(lt20-codlist.o) (fftwf_codelet_n1bv_7_neon)
../../fftw-3.3.4/.libs//libfftw3f.a(n1bv_8.o)
                              ../../fftw-3.3.4/.libs//libfftw3f.a(lt20-codlist.o) (fftwf_codelet_n1bv_8_neon)
../../fftw-3.3.4/.libs//libfftw3f.a(n1bv_9.o)
                              ../../fftw-3.3.4/.libs//libfftw3f.a(lt20-codlist.o) (fftwf_codelet_n1bv_9_neon)
../../fftw-3.3.4/.libs//libfftw3f.a(n1fv_10.o)
                              ../../fftw-3.3.4/.libs//libfftw3f.a(lt20-codlist.o) (fftwf_codelet_n1fv_10_neon)
../../fftw-3.3.4/.libs//libfftw3f.a(n1fv_11.o)
                              ../../fftw-3.3.4/.libs//libfftw3f.a(lt20-codlist.o) (fftwf_codelet_n1fv_11_neon)
../../fftw-3.3.4/.libs//libfftw3f.a(n1fv_12.o)
                              ../../fftw-3.3.4/.libs//libfftw3f.a(lt20-codlist.o) (fftwf_codelet_n1fv_12_neon)
../../fftw-3.3.4/.libs//libfftw3f.a(n1fv_128.o)
                              ../../fftw-3.3.4/.libs//libfftw3f.a(lt20-codlist.o) (fftwf_codelet_n1fv_128_neon)
../../fftw-3.3.4/.libs//libfftw3f.a(n1fv_13.o)
                              ../../fftw-3.3.4/.libs//libfftw3f.a(lt20-codlist.o) (fftwf_codelet_n1fv_13_neon)
../../fftw-3.3.4/.libs//libfftw3f.a(n1fv_14.o)
                              ../../fftw-3.3.4/.libs//libfftw3f.a(lt20-codlist.o) (fftwf_codelet_n1fv_14_neon)
../../fftw-3.3.4/.libs//libfftw3f.a(n1fv_15.o)
                              ../../fftw-3.3.4/.libs//libfftw3f.a(lt20-codlist.o) (fftwf_codelet_n1fv_15_neon)
../../fftw-3.3.4/.libs//libfftw3f.a(n1fv_16.o)
                              ../../fftw-3.3.4/.libs//libfftw3f.a(lt20-codlist.o) (fftwf_codelet_n1fv_16_neon)
../../fftw-3.3.4/.libs//libfftw3f.a(n1fv_2.o)
                              ../../fftw-3.3.4/.libs//libfftw3f.a(lt20-codlist.o) (fftwf_codelet_n1fv_2_neon)
../../fftw-3.3.4/.libs//libfftw3f.a(n1fv_20.o)
                              ../../fftw-3.3.4/.libs//libfftw3f.a(lt20-codlist.o) (fftwf_codelet_n1fv_20_neon)
../../fftw-3.3.4/.libs//libfftw3f.a(n1fv_25.o)
                              ../../fftw-3.3.4/.libs//libfftw3f.a(lt20-codlist.o) (fftwf_codelet_n1fv_25_neon)
../../fftw-3.3.4/.libs//libfftw3f.a(n1fv_3.o)
                              ../../fftw-3.3.4/.libs//libfftw3f.a(lt20-codlist.o) (fftwf_codelet_n1fv_3_neon)
../../fftw-3.3.4/.libs//libfftw3f.a(n1fv_32.o)
                              ../../fftw-3.3.4/.libs//libfftw3f.a(lt20-codlist.o) (fftwf_codelet_n1fv_32_neon)
../../fftw-3.3.4/.libs//libfftw3f.a(n1fv_4.o)
                              ../../fftw-3.3.4/.libs//libfftw3f.a(lt20-codlist.o) (fftwf_codelet_n1fv_4_neon)
../../fftw-3.3.4/.libs//libfftw3f.a(n1fv_5.o)
                              ../../fftw-3.3.4/.libs//libfftw3f.a(lt20-codlist.o) (fftwf_codelet_n1fv_5_neon)
../../fftw-3.3.4/.libs//libfftw3f.a(n1fv_6.o)
                              ../../fftw-3.3.4/.libs//libfftw3f.a(lt20-codlist.o) (fftwf_codelet_n1fv_6_neon)
../../fftw-3.3.4/.libs//libfftw3f.a(n1fv_64.o)
                              ../../fftw-3.3.4/.libs//libfftw3f.a(lt20-codlist.o) (fftwf_codelet_n1fv_64_neon)
../../fftw-3.3.4/.libs//libfftw3f.a(n1fv_7.o)
                              ../../fftw-3.3.4/.libs//libfftw3f.a(lt20-codlist.o) (fftwf_codelet_n1fv_7_neon)
../../fftw-3.3.4/.libs//libfftw3f.a(n1fv_8.o)
                              ../../fftw-3.3.4/.libs//libfftw3f.a(lt20-codlist.o) (fftwf_codelet_n1fv_8_neon)
../../fftw-3.3.4/.libs//libfftw3f.a(n1fv_9.o)
                              ../../fftw-3.3.4/.libs//libfftw3f.a(lt20-codlist.o) (fftwf_codelet_n1fv_9_neon)
../../fftw-3.3.4/.libs//libfftw3f.a(n2bv_10.o)
                              ../../fftw-3.3.4/.libs//libfftw3f.a(lt20-codlist.o) (fftwf_codelet_n2bv_10_neon)
../../fftw-3.3.4/.libs//libfftw3f.a(n2bv_12.o)
                              ../../fftw-3.3.4/.libs//libfftw3f.a(lt20-codlist.o) (fftwf_codelet_n2bv_12_neon)
../../fftw-3.3.4/.libs//libfftw3f.a(n2bv_14.o)
                              ../../fftw-3.3.4/.libs//libfftw3f.a(lt20-codlist.o) (fftwf_codelet_n2bv_14_neon)
../../fftw-3.3.4/.libs//libfftw3f.a(n2bv_16.o)
                              ../../fftw-3.3.4/.libs//libfftw3f.a(lt20-codlist.o) (fftwf_codelet_n2bv_16_neon)
../../fftw-3.3.4/.libs//libfftw3f.a(n2bv_2.o)
                              ../../fftw-3.3.4/.libs//libfftw3f.a(lt20-codlist.o) (fftwf_codelet_n2bv_2_neon)
../../fftw-3.3.4/.libs//libfftw3f.a(n2bv_20.o)
                              ../../fftw-3.3.4/.libs//libfftw3f.a(lt20-codlist.o) (fftwf_codelet_n2bv_20_neon)
../../fftw-3.3.4/.libs//libfftw3f.a(n2bv_32.o)
                              ../../fftw-3.3.4/.libs//libfftw3f.a(lt20-codlist.o) (fftwf_codelet_n2bv_32_neon)
../../fftw-3.3.4/.libs//libfftw3f.a(n2bv_4.o)
                              ../../fftw-3.3.4/.libs//libfftw3f.a(lt20-codlist.o) (fftwf_codelet_n2bv_4_neon)
../../fftw-3.3.4/.libs//libfftw3f.a(n2bv_6.o)
                              ../../fftw-3.3.4/.libs//libfftw3f.a(lt20-codlist.o) (fftwf_codelet_n2bv_6_neon)
../../fftw-3.3.4/.libs//libfftw3f.a(n2bv_64.o)
                              ../../fftw-3.3.4/.libs//libfftw3f.a(lt20-codlist.o) (fftwf_codelet_n2bv_64_neon)
../../fftw-3.3.4/.libs//libfftw3f.a(n2bv_8.o)
                              ../../fftw-3.3.4/.libs//libfftw3f.a(lt20-codlist.o) (fftwf_codelet_n2bv_8_neon)
../../fftw-3.3.4/.libs//libfftw3f.a(n2fv_10.o)
                              ../../fftw-3.3.4/.libs//libfftw3f.a(lt20-codlist.o) (fftwf_codelet_n2fv_10_neon)
../../fftw-3.3.4/.libs//libfftw3f.a(n2fv_12.o)
                              ../../fftw-3.3.4/.libs//libfftw3f.a(lt20-codlist.o) (fftwf_codelet_n2fv_12_neon)
../../fftw-3.3.4/.libs//libfftw3f.a(n2fv_14.o)
                              ../../fftw-3.3.4/.libs//libfftw3f.a(lt20-codlist.o) (fftwf_codelet_n2fv_14_neon)
../../fftw-3.3.4/.libs//libfftw3f.a(n2fv_16.o)
                              ../../fftw-3.3.4/.libs//libfftw3f.a(lt20-codlist.o) (fftwf_codelet_n2fv_16_neon)
../../fftw-3.3.4/.libs//libfftw3f.a(n2fv_2.o)
                              ../../fftw-3.3.4/.libs//libfftw3f.a(lt20-codlist.o) (fftwf_codelet_n2fv_2_neon)
../../fftw-3.3.4/.libs//libfftw3f.a(n2fv_20.o)
                              ../../fftw-3.3.4/.libs//libfftw3f.a(lt20-codlist.o) (fftwf_codelet_n2fv_20_neon)
../../fftw-3.3.4/.libs//libfftw3f.a(n2fv_32.o)
                              ../../fftw-3.3.4/.libs//libfftw3f.a(lt20-codlist.o) (fftwf_codelet_n2fv_32_neon)
../../fftw-3.3.4/.libs//libfftw3f.a(n2fv_4.o)
                              ../../fftw-3.3.4/.libs//libfftw3f.a(lt20-codlist.o) (fftwf_codelet_n2fv_4_neon)
../../fftw-3.3.4/.libs//libfftw3f.a(n2fv_6.o)
                              ../../fftw-3.3.4/.libs//libfftw3f.a(lt20-codlist.o) (fftwf_codelet_n2fv_6_neon)
../../fftw-3.3.4/.libs//libfftw3f.a(n2fv_64.o)
                              ../../fftw-3.3.4/.libs//libfftw3f.a(lt20-codlist.o) (fftwf_codelet_n2fv_64_neon)
../../fftw-3.3.4/.libs//libfftw3f.a(n2fv_8.o)
                              ../../fftw-3.3.4/.libs//libfftw3f.a(lt20-codlist.o) (fftwf_codelet_n2fv_8_neon)
../../fftw-3.3.4/.libs//libfftw3f.a(n2sv_16.o)
                              ../../fftw-3.3.4/.libs//libfftw3f.a(lt20-codlist.o) (fftwf_codelet_n2sv_16_neon)
../../fftw-3.3.4/.libs//libfftw3f.a(n2sv_32.o)
                              ../../fftw-3.3.4/.libs//libfftw3f.a(lt20-codlist.o) (fftwf_codelet_n2sv_32_neon)
../../fftw-3.3.4/.libs//libfftw3f.a(n2sv_4.o)
                              ../../fftw-3.3.4/.libs//libfftw3f.a(lt20-codlist.o) (fftwf_codelet_n2sv_4_neon)
../../fftw-3.3.4/.libs//libfftw3f.a(n2sv_64.o)
                              ../../fftw-3.3.4/.libs//libfftw3f.a(lt20-codlist.o) (fftwf_codelet_n2sv_64_neon)
../../fftw-3.3.4/.libs//libfftw3f.a(n2sv_8.o)
                              ../../fftw-3.3.4/.libs//libfftw3f.a(lt20-codlist.o) (fftwf_codelet_n2sv_8_neon)
../../fftw-3.3.4/.libs//libfftw3f.a(q1bv_2.o)
                              ../../fftw-3.3.4/.libs//libfftw3f.a(lt20-codlist.o) (fftwf_codelet_q1bv_2_neon)
../../fftw-3.3.4/.libs//libfftw3f.a(q1bv_4.o)
                              ../../fftw-3.3.4/.libs//libfftw3f.a(lt20-codlist.o) (fftwf_codelet_q1bv_4_neon)
../../fftw-3.3.4/.libs//libfftw3f.a(q1bv_5.o)
                              ../../fftw-3.3.4/.libs//libfftw3f.a(lt20-codlist.o) (fftwf_codelet_q1bv_5_neon)
../../fftw-3.3.4/.libs//libfftw3f.a(q1bv_8.o)
                              ../../fftw-3.3.4/.libs//libfftw3f.a(lt20-codlist.o) (fftwf_codelet_q1bv_8_neon)
../../fftw-3.3.4/.libs//libfftw3f.a(q1fv_2.o)
                              ../../fftw-3.3.4/.libs//libfftw3f.a(lt20-codlist.o) (fftwf_codelet_q1fv_2_neon)
../../fftw-3.3.4/.libs//libfftw3f.a(q1fv_4.o)
                              ../../fftw-3.3.4/.libs//libfftw3f.a(lt20-codlist.o) (fftwf_codelet_q1fv_4_neon)
../../fftw-3.3.4/.libs//libfftw3f.a(q1fv_5.o)
                              ../../fftw-3.3.4/.libs//libfftw3f.a(lt20-codlist.o) (fftwf_codelet_q1fv_5_neon)
../../fftw-3.3.4/.libs//libfftw3f.a(q1fv_8.o)
                              ../../fftw-3.3.4/.libs//libfftw3f.a(lt20-codlist.o) (fftwf_codelet_q1fv_8_neon)
../../fftw-3.3.4/.libs//libfftw3f.a(t1buv_10.o)
                              ../../fftw-3.3.4/.libs//libfftw3f.a(lt20-codlist.o) (fftwf_codelet_t1buv_10_neon)
../../fftw-3.3.4/.libs//libfftw3f.a(t1buv_2.o)
                              ../../fftw-3.3.4/.libs//libfftw3f.a(lt20-codlist.o) (fftwf_codelet_t1buv_2_neon)
../../fftw-3.3.4/.libs//libfftw3f.a(t1buv_3.o)
                              ../../fftw-3.3.4/.libs//libfftw3f.a(lt20-codlist.o) (fftwf_codelet_t1buv_3_neon)
../../fftw-3.3.4/.libs//libfftw3f.a(t1buv_4.o)
                              ../../fftw-3.3.4/.libs//libfftw3f.a(lt20-codlist.o) (fftwf_codelet_t1buv_4_neon)
../../fftw-3.3.4/.libs//libfftw3f.a(t1buv_5.o)
                              ../../fftw-3.3.4/.libs//libfftw3f.a(lt20-codlist.o) (fftwf_codelet_t1buv_5_neon)
../../fftw-3.3.4/.libs//libfftw3f.a(t1buv_6.o)
                              ../../fftw-3.3.4/.libs//libfftw3f.a(lt20-codlist.o) (fftwf_codelet_t1buv_6_neon)
../../fftw-3.3.4/.libs//libfftw3f.a(t1buv_7.o)
                              ../../fftw-3.3.4/.libs//libfftw3f.a(lt20-codlist.o) (fftwf_codelet_t1buv_7_neon)
../../fftw-3.3.4/.libs//libfftw3f.a(t1buv_8.o)
                              ../../fftw-3.3.4/.libs//libfftw3f.a(lt20-codlist.o) (fftwf_codelet_t1buv_8_neon)
../../fftw-3.3.4/.libs//libfftw3f.a(t1buv_9.o)
                              ../../fftw-3.3.4/.libs//libfftw3f.a(lt20-codlist.o) (fftwf_codelet_t1buv_9_neon)
../../fftw-3.3.4/.libs//libfftw3f.a(t1bv_10.o)
                              ../../fftw-3.3.4/.libs//libfftw3f.a(lt20-codlist.o) (fftwf_codelet_t1bv_10_neon)
../../fftw-3.3.4/.libs//libfftw3f.a(t1bv_12.o)
                              ../../fftw-3.3.4/.libs//libfftw3f.a(lt20-codlist.o) (fftwf_codelet_t1bv_12_neon)
../../fftw-3.3.4/.libs//libfftw3f.a(t1bv_15.o)
                              ../../fftw-3.3.4/.libs//libfftw3f.a(lt20-codlist.o) (fftwf_codelet_t1bv_15_neon)
../../fftw-3.3.4/.libs//libfftw3f.a(t1bv_16.o)
                              ../../fftw-3.3.4/.libs//libfftw3f.a(lt20-codlist.o) (fftwf_codelet_t1bv_16_neon)
../../fftw-3.3.4/.libs//libfftw3f.a(t1bv_2.o)
                              ../../fftw-3.3.4/.libs//libfftw3f.a(lt20-codlist.o) (fftwf_codelet_t1bv_2_neon)
../../fftw-3.3.4/.libs//libfftw3f.a(t1bv_20.o)
                              ../../fftw-3.3.4/.libs//libfftw3f.a(lt20-codlist.o) (fftwf_codelet_t1bv_20_neon)
../../fftw-3.3.4/.libs//libfftw3f.a(t1bv_25.o)
                              ../../fftw-3.3.4/.libs//libfftw3f.a(lt20-codlist.o) (fftwf_codelet_t1bv_25_neon)
../../fftw-3.3.4/.libs//libfftw3f.a(t1bv_3.o)
                              ../../fftw-3.3.4/.libs//libfftw3f.a(lt20-codlist.o) (fftwf_codelet_t1bv_3_neon)
../../fftw-3.3.4/.libs//libfftw3f.a(t1bv_32.o)
                              ../../fftw-3.3.4/.libs//libfftw3f.a(lt20-codlist.o) (fftwf_codelet_t1bv_32_neon)
../../fftw-3.3.4/.libs//libfftw3f.a(t1bv_4.o)
                              ../../fftw-3.3.4/.libs//libfftw3f.a(lt20-codlist.o) (fftwf_codelet_t1bv_4_neon)
../../fftw-3.3.4/.libs//libfftw3f.a(t1bv_5.o)
                              ../../fftw-3.3.4/.libs//libfftw3f.a(lt20-codlist.o) (fftwf_codelet_t1bv_5_neon)
../../fftw-3.3.4/.libs//libfftw3f.a(t1bv_6.o)
                              ../../fftw-3.3.4/.libs//libfftw3f.a(lt20-codlist.o) (fftwf_codelet_t1bv_6_neon)
../../fftw-3.3.4/.libs//libfftw3f.a(t1bv_64.o)
                              ../../fftw-3.3.4/.libs//libfftw3f.a(lt20-codlist.o) (fftwf_codelet_t1bv_64_neon)
../../fftw-3.3.4/.libs//libfftw3f.a(t1bv_7.o)
                              ../../fftw-3.3.4/.libs//libfftw3f.a(lt20-codlist.o) (fftwf_codelet_t1bv_7_neon)
../../fftw-3.3.4/.libs//libfftw3f.a(t1bv_8.o)
                              ../../fftw-3.3.4/.libs//libfftw3f.a(lt20-codlist.o) (fftwf_codelet_t1bv_8_neon)
../../fftw-3.3.4/.libs//libfftw3f.a(t1bv_9.o)
                              ../../fftw-3.3.4/.libs//libfftw3f.a(lt20-codlist.o) (fftwf_codelet_t1bv_9_neon)
../../fftw-3.3.4/.libs//libfftw3f.a(t1fuv_10.o)
                              ../../fftw-3.3.4/.libs//libfftw3f.a(lt20-codlist.o) (fftwf_codelet_t1fuv_10_neon)
../../fftw-3.3.4/.libs//libfftw3f.a(t1fuv_2.o)
                              ../../fftw-3.3.4/.libs//libfftw3f.a(lt20-codlist.o) (fftwf_codelet_t1fuv_2_neon)
../../fftw-3.3.4/.libs//libfftw3f.a(t1fuv_3.o)
                              ../../fftw-3.3.4/.libs//libfftw3f.a(lt20-codlist.o) (fftwf_codelet_t1fuv_3_neon)
../../fftw-3.3.4/.libs//libfftw3f.a(t1fuv_4.o)
                              ../../fftw-3.3.4/.libs//libfftw3f.a(lt20-codlist.o) (fftwf_codelet_t1fuv_4_neon)
../../fftw-3.3.4/.libs//libfftw3f.a(t1fuv_5.o)
                              ../../fftw-3.3.4/.libs//libfftw3f.a(lt20-codlist.o) (fftwf_codelet_t1fuv_5_neon)
../../fftw-3.3.4/.libs//libfftw3f.a(t1fuv_6.o)
                              ../../fftw-3.3.4/.libs//libfftw3f.a(lt20-codlist.o) (fftwf_codelet_t1fuv_6_neon)
../../fftw-3.3.4/.libs//libfftw3f.a(t1fuv_7.o)
                              ../../fftw-3.3.4/.libs//libfftw3f.a(lt20-codlist.o) (fftwf_codelet_t1fuv_7_neon)
../../fftw-3.3.4/.libs//libfftw3f.a(t1fuv_8.o)
                              ../../fftw-3.3.4/.libs//libfftw3f.a(lt20-codlist.o) (fftwf_codelet_t1fuv_8_neon)
../../fftw-3.3.4/.libs//libfftw3f.a(t1fuv_9.o)
                              ../../fftw-3.3.4/.libs//libfftw3f.a(lt20-codlist.o) (fftwf_codelet_t1fuv_9_neon)
../../fftw-3.3.4/.libs//libfftw3f.a(t1fv_10.o)
                              ../../fftw-3.3.4/.libs//libfftw3f.a(lt20-codlist.o) (fftwf_codelet_t1fv_10_neon)
../../fftw-3.3.4/.libs//libfftw3f.a(t1fv_12.o)
                              ../../fftw-3.3.4/.libs//libfftw3f.a(lt20-codlist.o) (fftwf_codelet_t1fv_12_neon)
../../fftw-3.3.4/.libs//libfftw3f.a(t1fv_15.o)
                              ../../fftw-3.3.4/.libs//libfftw3f.a(lt20-codlist.o) (fftwf_codelet_t1fv_15_neon)
../../fftw-3.3.4/.libs//libfftw3f.a(t1fv_16.o)
                              ../../fftw-3.3.4/.libs//libfftw3f.a(lt20-codlist.o) (fftwf_codelet_t1fv_16_neon)
../../fftw-3.3.4/.libs//libfftw3f.a(t1fv_2.o)
                              ../../fftw-3.3.4/.libs//libfftw3f.a(lt20-codlist.o) (fftwf_codelet_t1fv_2_neon)
../../fftw-3.3.4/.libs//libfftw3f.a(t1fv_20.o)
                              ../../fftw-3.3.4/.libs//libfftw3f.a(lt20-codlist.o) (fftwf_codelet_t1fv_20_neon)
../../fftw-3.3.4/.libs//libfftw3f.a(t1fv_25.o)
                              ../../fftw-3.3.4/.libs//libfftw3f.a(lt20-codlist.o) (fftwf_codelet_t1fv_25_neon)
../../fftw-3.3.4/.libs//libfftw3f.a(t1fv_3.o)
                              ../../fftw-3.3.4/.libs//libfftw3f.a(lt20-codlist.o) (fftwf_codelet_t1fv_3_neon)
../../fftw-3.3.4/.libs//libfftw3f.a(t1fv_32.o)
                              ../../fftw-3.3.4/.libs//libfftw3f.a(lt20-codlist.o) (fftwf_codelet_t1fv_32_neon)
../../fftw-3.3.4/.libs//libfftw3f.a(t1fv_4.o)
                              ../../fftw-3.3.4/.libs//libfftw3f.a(lt20-codlist.o) (fftwf_codelet_t1fv_4_neon)
../../fftw-3.3.4/.libs//libfftw3f.a(t1fv_5.o)
                              ../../fftw-3.3.4/.libs//libfftw3f.a(lt20-codlist.o) (fftwf_codelet_t1fv_5_neon)
../../fftw-3.3.4/.libs//libfftw3f.a(t1fv_6.o)
                              ../../fftw-3.3.4/.libs//libfftw3f.a(lt20-codlist.o) (fftwf_codelet_t1fv_6_neon)
../../fftw-3.3.4/.libs//libfftw3f.a(t1fv_64.o)
                              ../../fftw-3.3.4/.libs//libfftw3f.a(lt20-codlist.o) (fftwf_codelet_t1fv_64_neon)
../../fftw-3.3.4/.libs//libfftw3f.a(t1fv_7.o)
                              ../../fftw-3.3.4/.libs//libfftw3f.a(lt20-codlist.o) (fftwf_codelet_t1fv_7_neon)
../../fftw-3.3.4/.libs//libfftw3f.a(t1fv_8.o)
                              ../../fftw-3.3.4/.libs//libfftw3f.a(lt20-codlist.o) (fftwf_codelet_t1fv_8_neon)
../../fftw-3.3.4/.libs//libfftw3f.a(t1fv_9.o)
                              ../../fftw-3.3.4/.libs//libfftw3f.a(lt20-codlist.o) (fftwf_codelet_t1fv_9_neon)
../../fftw-3.3.4/.libs//libfftw3f.a(t1sv_16.o)
                              ../../fftw-3.3.4/.libs//libfftw3f.a(lt20-codlist.o) (fftwf_codelet_t1sv_16_neon)
../../fftw-3.3.4/.libs//libfftw3f.a(t1sv_2.o)
                              ../../fftw-3.3.4/.libs//libfftw3f.a(lt20-codlist.o) (fftwf_codelet_t1sv_2_neon)
../../fftw-3.3.4/.libs//libfftw3f.a(t1sv_32.o)
                              ../../fftw-3.3.4/.libs//libfftw3f.a(lt20-codlist.o) (fftwf_codelet_t1sv_32_neon)
../../fftw-3.3.4/.libs//libfftw3f.a(t1sv_4.o)
                              ../../fftw-3.3.4/.libs//libfftw3f.a(lt20-codlist.o) (fftwf_codelet_t1sv_4_neon)
../../fftw-3.3.4/.libs//libfftw3f.a(t1sv_8.o)
                              ../../fftw-3.3.4/.libs//libfftw3f.a(lt20-codlist.o) (fftwf_codelet_t1sv_8_neon)
../../fftw-3.3.4/.libs//libfftw3f.a(t2bv_10.o)
                              ../../fftw-3.3.4/.libs//libfftw3f.a(lt20-codlist.o) (fftwf_codelet_t2bv_10_neon)
../../fftw-3.3.4/.libs//libfftw3f.a(t2bv_16.o)
                              ../../fftw-3.3.4/.libs//libfftw3f.a(lt20-codlist.o) (fftwf_codelet_t2bv_16_neon)
../../fftw-3.3.4/.libs//libfftw3f.a(t2bv_2.o)
                              ../../fftw-3.3.4/.libs//libfftw3f.a(lt20-codlist.o) (fftwf_codelet_t2bv_2_neon)
../../fftw-3.3.4/.libs//libfftw3f.a(t2bv_20.o)
                              ../../fftw-3.3.4/.libs//libfftw3f.a(lt20-codlist.o) (fftwf_codelet_t2bv_20_neon)
../../fftw-3.3.4/.libs//libfftw3f.a(t2bv_25.o)
                              ../../fftw-3.3.4/.libs//libfftw3f.a(lt20-codlist.o) (fftwf_codelet_t2bv_25_neon)
../../fftw-3.3.4/.libs//libfftw3f.a(t2bv_32.o)
                              ../../fftw-3.3.4/.libs//libfftw3f.a(lt20-codlist.o) (fftwf_codelet_t2bv_32_neon)
../../fftw-3.3.4/.libs//libfftw3f.a(t2bv_4.o)
                              ../../fftw-3.3.4/.libs//libfftw3f.a(lt20-codlist.o) (fftwf_codelet_t2bv_4_neon)
../../fftw-3.3.4/.libs//libfftw3f.a(t2bv_5.o)
                              ../../fftw-3.3.4/.libs//libfftw3f.a(lt20-codlist.o) (fftwf_codelet_t2bv_5_neon)
../../fftw-3.3.4/.libs//libfftw3f.a(t2bv_64.o)
                              ../../fftw-3.3.4/.libs//libfftw3f.a(lt20-codlist.o) (fftwf_codelet_t2bv_64_neon)
../../fftw-3.3.4/.libs//libfftw3f.a(t2bv_8.o)
                              ../../fftw-3.3.4/.libs//libfftw3f.a(lt20-codlist.o) (fftwf_codelet_t2bv_8_neon)
../../fftw-3.3.4/.libs//libfftw3f.a(t2fv_10.o)
                              ../../fftw-3.3.4/.libs//libfftw3f.a(lt20-codlist.o) (fftwf_codelet_t2fv_10_neon)
../../fftw-3.3.4/.libs//libfftw3f.a(t2fv_16.o)
                              ../../fftw-3.3.4/.libs//libfftw3f.a(lt20-codlist.o) (fftwf_codelet_t2fv_16_neon)
../../fftw-3.3.4/.libs//libfftw3f.a(t2fv_2.o)
                              ../../fftw-3.3.4/.libs//libfftw3f.a(lt20-codlist.o) (fftwf_codelet_t2fv_2_neon)
../../fftw-3.3.4/.libs//libfftw3f.a(t2fv_20.o)
                              ../../fftw-3.3.4/.libs//libfftw3f.a(lt20-codlist.o) (fftwf_codelet_t2fv_20_neon)
../../fftw-3.3.4/.libs//libfftw3f.a(t2fv_25.o)
                              ../../fftw-3.3.4/.libs//libfftw3f.a(lt20-codlist.o) (fftwf_codelet_t2fv_25_neon)
../../fftw-3.3.4/.libs//libfftw3f.a(t2fv_32.o)
                              ../../fftw-3.3.4/.libs//libfftw3f.a(lt20-codlist.o) (fftwf_codelet_t2fv_32_neon)
../../fftw-3.3.4/.libs//libfftw3f.a(t2fv_4.o)
                              ../../fftw-3.3.4/.libs//libfftw3f.a(lt20-codlist.o) (fftwf_codelet_t2fv_4_neon)
../../fftw-3.3.4/.libs//libfftw3f.a(t2fv_5.o)
                              ../../fftw-3.3.4/.libs//libfftw3f.a(lt20-codlist.o) (fftwf_codelet_t2fv_5_neon)
../../fftw-3.3.4/.libs//libfftw3f.a(t2fv_64.o)
                              ../../fftw-3.3.4/.libs//libfftw3f.a(lt20-codlist.o) (fftwf_codelet_t2fv_64_neon)
../../fftw-3.3.4/.libs//libfftw3f.a(t2fv_8.o)
                              ../../fftw-3.3.4/.libs//libfftw3f.a(lt20-codlist.o) (fftwf_codelet_t2fv_8_neon)
../../fftw-3.3.4/.libs//libfftw3f.a(t2sv_16.o)
                              ../../fftw-3.3.4/.libs//libfftw3f.a(lt20-codlist.o) (fftwf_codelet_t2sv_16_neon)
../../fftw-3.3.4/.libs//libfftw3f.a(t2sv_32.o)
                              ../../fftw-3.3.4/.libs//libfftw3f.a(lt20-codlist.o) (fftwf_codelet_t2sv_32_neon)
../../fftw-3.3.4/.libs//libfftw3f.a(t2sv_4.o)
                              ../../fftw-3.3.4/.libs//libfftw3f.a(lt20-codlist.o) (fftwf_codelet_t2sv_4_neon)
../../fftw-3.3.4/.libs//libfftw3f.a(t2sv_8.o)
                              ../../fftw-3.3.4/.libs//libfftw3f.a(lt20-codlist.o) (fftwf_codelet_t2sv_8_neon)
../../fftw-3.3.4/.libs//libfftw3f.a(t3bv_10.o)
                              ../../fftw-3.3.4/.libs//libfftw3f.a(lt20-codlist.o) (fftwf_codelet_t3bv_10_neon)
../../fftw-3.3.4/.libs//libfftw3f.a(t3bv_16.o)
                              ../../fftw-3.3.4/.libs//libfftw3f.a(lt20-codlist.o) (fftwf_codelet_t3bv_16_neon)
../../fftw-3.3.4/.libs//libfftw3f.a(t3bv_20.o)
                              ../../fftw-3.3.4/.libs//libfftw3f.a(lt20-codlist.o) (fftwf_codelet_t3bv_20_neon)
../../fftw-3.3.4/.libs//libfftw3f.a(t3bv_25.o)
                              ../../fftw-3.3.4/.libs//libfftw3f.a(lt20-codlist.o) (fftwf_codelet_t3bv_25_neon)
../../fftw-3.3.4/.libs//libfftw3f.a(t3bv_32.o)
                              ../../fftw-3.3.4/.libs//libfftw3f.a(lt20-codlist.o) (fftwf_codelet_t3bv_32_neon)
../../fftw-3.3.4/.libs//libfftw3f.a(t3bv_4.o)
                              ../../fftw-3.3.4/.libs//libfftw3f.a(lt20-codlist.o) (fftwf_codelet_t3bv_4_neon)
../../fftw-3.3.4/.libs//libfftw3f.a(t3bv_5.o)
                              ../../fftw-3.3.4/.libs//libfftw3f.a(lt20-codlist.o) (fftwf_codelet_t3bv_5_neon)
../../fftw-3.3.4/.libs//libfftw3f.a(t3bv_8.o)
                              ../../fftw-3.3.4/.libs//libfftw3f.a(lt20-codlist.o) (fftwf_codelet_t3bv_8_neon)
../../fftw-3.3.4/.libs//libfftw3f.a(t3fv_10.o)
                              ../../fftw-3.3.4/.libs//libfftw3f.a(lt20-codlist.o) (fftwf_codelet_t3fv_10_neon)
../../fftw-3.3.4/.libs//libfftw3f.a(t3fv_16.o)
                              ../../fftw-3.3.4/.libs//libfftw3f.a(lt20-codlist.o) (fftwf_codelet_t3fv_16_neon)
../../fftw-3.3.4/.libs//libfftw3f.a(t3fv_20.o)
                              ../../fftw-3.3.4/.libs//libfftw3f.a(lt20-codlist.o) (fftwf_codelet_t3fv_20_neon)
../../fftw-3.3.4/.libs//libfftw3f.a(t3fv_25.o)
                              ../../fftw-3.3.4/.libs//libfftw3f.a(lt20-codlist.o) (fftwf_codelet_t3fv_25_neon)
../../fftw-3.3.4/.libs//libfftw3f.a(t3fv_32.o)
                              ../../fftw-3.3.4/.libs//libfftw3f.a(lt20-codlist.o) (fftwf_codelet_t3fv_32_neon)
../../fftw-3.3.4/.libs//libfftw3f.a(t3fv_4.o)
                              ../../fftw-3.3.4/.libs//libfftw3f.a(lt20-codlist.o) (fftwf_codelet_t3fv_4_neon)
../../fftw-3.3.4/.libs//libfftw3f.a(t3fv_5.o)
                              ../../fftw-3.3.4/.libs//libfftw3f.a(lt20-codlist.o) (fftwf_codelet_t3fv_5_neon)
../../fftw-3.3.4/.libs//libfftw3f.a(t3fv_8.o)
                              ../../fftw-3.3.4/.libs//libfftw3f.a(lt20-codlist.o) (fftwf_codelet_t3fv_8_neon)
../../fftw-3.3.4/.libs//libfftw3f.a(lt21-codlist.o)
                              ../../fftw-3.3.4/.libs//libfftw3f.a(lt7-conf.o) (fftwf_solvtab_rdft_neon)
../../fftw-3.3.4/.libs//libfftw3f.a(hc2cbdftv_10.o)
                              ../../fftw-3.3.4/.libs//libfftw3f.a(lt21-codlist.o) (fftwf_codelet_hc2cbdftv_10_neon)
../../fftw-3.3.4/.libs//libfftw3f.a(hc2cbdftv_12.o)
                              ../../fftw-3.3.4/.libs//libfftw3f.a(lt21-codlist.o) (fftwf_codelet_hc2cbdftv_12_neon)
../../fftw-3.3.4/.libs//libfftw3f.a(hc2cbdftv_16.o)
                              ../../fftw-3.3.4/.libs//libfftw3f.a(lt21-codlist.o) (fftwf_codelet_hc2cbdftv_16_neon)
../../fftw-3.3.4/.libs//libfftw3f.a(hc2cbdftv_2.o)
                              ../../fftw-3.3.4/.libs//libfftw3f.a(lt21-codlist.o) (fftwf_codelet_hc2cbdftv_2_neon)
../../fftw-3.3.4/.libs//libfftw3f.a(hc2cbdftv_20.o)
                              ../../fftw-3.3.4/.libs//libfftw3f.a(lt21-codlist.o) (fftwf_codelet_hc2cbdftv_20_neon)
../../fftw-3.3.4/.libs//libfftw3f.a(hc2cbdftv_32.o)
                              ../../fftw-3.3.4/.libs//libfftw3f.a(lt21-codlist.o) (fftwf_codelet_hc2cbdftv_32_neon)
../../fftw-3.3.4/.libs//libfftw3f.a(hc2cbdftv_4.o)
                              ../../fftw-3.3.4/.libs//libfftw3f.a(lt21-codlist.o) (fftwf_codelet_hc2cbdftv_4_neon)
../../fftw-3.3.4/.libs//libfftw3f.a(hc2cbdftv_6.o)
                              ../../fftw-3.3.4/.libs//libfftw3f.a(lt21-codlist.o) (fftwf_codelet_hc2cbdftv_6_neon)
../../fftw-3.3.4/.libs//libfftw3f.a(hc2cbdftv_8.o)
                              ../../fftw-3.3.4/.libs//libfftw3f.a(lt21-codlist.o) (fftwf_codelet_hc2cbdftv_8_neon)
../../fftw-3.3.4/.libs//libfftw3f.a(hc2cfdftv_10.o)
                              ../../fftw-3.3.4/.libs//libfftw3f.a(lt21-codlist.o) (fftwf_codelet_hc2cfdftv_10_neon)
../../fftw-3.3.4/.libs//libfftw3f.a(hc2cfdftv_12.o)
                              ../../fftw-3.3.4/.libs//libfftw3f.a(lt21-codlist.o) (fftwf_codelet_hc2cfdftv_12_neon)
../../fftw-3.3.4/.libs//libfftw3f.a(hc2cfdftv_16.o)
                              ../../fftw-3.3.4/.libs//libfftw3f.a(lt21-codlist.o) (fftwf_codelet_hc2cfdftv_16_neon)
../../fftw-3.3.4/.libs//libfftw3f.a(hc2cfdftv_2.o)
                              ../../fftw-3.3.4/.libs//libfftw3f.a(lt21-codlist.o) (fftwf_codelet_hc2cfdftv_2_neon)
../../fftw-3.3.4/.libs//libfftw3f.a(hc2cfdftv_20.o)
                              ../../fftw-3.3.4/.libs//libfftw3f.a(lt21-codlist.o) (fftwf_codelet_hc2cfdftv_20_neon)
../../fftw-3.3.4/.libs//libfftw3f.a(hc2cfdftv_32.o)
                              ../../fftw-3.3.4/.libs//libfftw3f.a(lt21-codlist.o) (fftwf_codelet_hc2cfdftv_32_neon)
../../fftw-3.3.4/.libs//libfftw3f.a(hc2cfdftv_4.o)
                              ../../fftw-3.3.4/.libs//libfftw3f.a(lt21-codlist.o) (fftwf_codelet_hc2cfdftv_4_neon)
../../fftw-3.3.4/.libs//libfftw3f.a(hc2cfdftv_6.o)
                              ../../fftw-3.3.4/.libs//libfftw3f.a(lt21-codlist.o) (fftwf_codelet_hc2cfdftv_6_neon)
../../fftw-3.3.4/.libs//libfftw3f.a(hc2cfdftv_8.o)
                              ../../fftw-3.3.4/.libs//libfftw3f.a(lt21-codlist.o) (fftwf_codelet_hc2cfdftv_8_neon)
../../fftw-3.3.4/.libs//libfftw3f.a(awake.o)
                              ../../fftw-3.3.4/.libs//libfftw3f.a(nop.o) (fftwf_null_awake)
../../fftw-3.3.4/.libs//libfftw3f.a(buffered.o)
                              ../../fftw-3.3.4/.libs//libfftw3f.a(rdft2-rdft.o) (fftwf_nbuf)
../../fftw-3.3.4/.libs//libfftw3f.a(cpy1d.o)
                              ../../fftw-3.3.4/.libs//libfftw3f.a(rank0.o) (fftwf_cpy1d)
../../fftw-3.3.4/.libs//libfftw3f.a(cpy2d-pair.o)
                              ../../fftw-3.3.4/.libs//libfftw3f.a(dftw-genericbuf.o) (fftwf_cpy2d_pair_co)
../../fftw-3.3.4/.libs//libfftw3f.a(cpy2d.o)
                              ../../fftw-3.3.4/.libs//libfftw3f.a(rank0.o) (fftwf_cpy2d_ci)
../../fftw-3.3.4/.libs//libfftw3f.a(iabs.o)
                              ../../fftw-3.3.4/.libs//libfftw3f.a(tensor7.o) (fftwf_iabs)
../../fftw-3.3.4/.libs//libfftw3f.a(minmax.o)
                              ../../fftw-3.3.4/.libs//libfftw3f.a(rdft2-inplace-strides.o) (fftwf_imax)
../../fftw-3.3.4/.libs//libfftw3f.a(pickdim.o)
                              ../../fftw-3.3.4/.libs//libfftw3f.a(rank-geq2.o) (fftwf_pickdim)
../../fftw-3.3.4/.libs//libfftw3f.a(rader.o)
                              ../../fftw-3.3.4/.libs//libfftw3f.a(lt5-rader.o) (fftwf_rader_tl_insert)
../../fftw-3.3.4/.libs//libfftw3f.a(solvtab.o)
                              ../../fftw-3.3.4/.libs//libfftw3f.a(conf.o) (fftwf_solvtab_exec)
../../fftw-3.3.4/.libs//libfftw3f.a(stride.o)
                              ../../fftw-3.3.4/.libs//libfftw3f.a(n1_10.o) (fftwf_an_INT_guaranteed_to_be_zero)
../../fftw-3.3.4/.libs//libfftw3f.a(tensor2.o)
                              ../../fftw-3.3.4/.libs//libfftw3f.a(dftw-generic.o) (fftwf_mktensor_2d)
../../fftw-3.3.4/.libs//libfftw3f.a(tensor4.o)
                              ../../fftw-3.3.4/.libs//libfftw3f.a(rank-geq2.o) (fftwf_tensor_max_index)
../../fftw-3.3.4/.libs//libfftw3f.a(tile2d.o)
                              ../../fftw-3.3.4/.libs//libfftw3f.a(cpy2d.o) (fftwf_tile2d)
../../fftw-3.3.4/.libs//libfftw3f.a(transpose.o)
                              ../../fftw-3.3.4/.libs//libfftw3f.a(rank0.o) (fftwf_transpose)
../../fftw-3.3.4/.libs//libfftw3f.a(trig.o)
                              ../../fftw-3.3.4/.libs//libfftw3f.a(dftw-genericbuf.o) (fftwf_mktriggen)
../../fftw-3.3.4/.libs//libfftw3f.a(twiddle.o)
                              ../../fftw-3.3.4/.libs//libfftw3f.a(dftw-generic.o) (fftwf_twiddle_awake)
../../fftw-3.3.4/.libs//libfftw3f.a(bluestein.o)
                              ../../fftw-3.3.4/.libs//libfftw3f.a(conf.o) (fftwf_dft_bluestein_register)
../../fftw-3.3.4/.libs//libfftw3f.a(lt1-buffered.o)
                              ../../fftw-3.3.4/.libs//libfftw3f.a(conf.o) (fftwf_dft_buffered_register)
../../fftw-3.3.4/.libs//libfftw3f.a(lt2-ct.o)
                              ../../fftw-3.3.4/.libs//libfftw3f.a(dftw-generic.o) (fftwf_mksolver_ct)
../../fftw-3.3.4/.libs//libfftw3f.a(kdft-difsq.o)
                              ../../fftw-3.3.4/.libs//libfftw3f.a(q1_2.o) (fftwf_kdft_difsq_register)
../../fftw-3.3.4/.libs//libfftw3f.a(kdft-dit.o)
                              ../../fftw-3.3.4/.libs//libfftw3f.a(t1_10.o) (fftwf_kdft_dit_register)
../../fftw-3.3.4/.libs//libfftw3f.a(kdft.o)
                              ../../fftw-3.3.4/.libs//libfftw3f.a(n1_10.o) (fftwf_kdft_register)
../../fftw-3.3.4/.libs//libfftw3f.a(n.o)
                              ../../fftw-3.3.4/.libs//libfftw3f.a(n1_10.o) (fftwf_dft_n_genus)
../../fftw-3.3.4/.libs//libfftw3f.a(t.o)
                              ../../fftw-3.3.4/.libs//libfftw3f.a(q1_2.o) (fftwf_dft_t_genus)
../../fftw-3.3.4/.libs//libfftw3f.a(lt6-buffered.o)
                              ../../fftw-3.3.4/.libs//libfftw3f.a(lt7-conf.o) (fftwf_rdft_buffered_register)
../../fftw-3.3.4/.libs//libfftw3f.a(buffered2.o)
                              ../../fftw-3.3.4/.libs//libfftw3f.a(lt7-conf.o) (fftwf_rdft2_buffered_register)
../../fftw-3.3.4/.libs//libfftw3f.a(khc2c.o)
                              ../../fftw-3.3.4/.libs//libfftw3f.a(hc2cf2_16.o) (fftwf_khc2c_register)
../../fftw-3.3.4/.libs//libfftw3f.a(khc2hc.o)
                              ../../fftw-3.3.4/.libs//libfftw3f.a(hf2_16.o) (fftwf_khc2hc_register)
../../fftw-3.3.4/.libs//libfftw3f.a(kr2c.o)
                              ../../fftw-3.3.4/.libs//libfftw3f.a(r2cfII_10.o) (fftwf_kr2c_register)
../../fftw-3.3.4/.libs//libfftw3f.a(kr2r.o)
                              ../../fftw-3.3.4/.libs//libfftw3f.a(e01_8.o) (fftwf_kr2r_register)
../../fftw-3.3.4/.libs//libfftw3f.a(hc2c.o)
                              ../../fftw-3.3.4/.libs//libfftw3f.a(hc2cb2_16.o) (fftwf_rdft_hc2cb_genus)
../../fftw-3.3.4/.libs//libfftw3f.a(hfb.o)
                              ../../fftw-3.3.4/.libs//libfftw3f.a(hb2_16.o) (fftwf_rdft_hb_genus)
../../fftw-3.3.4/.libs//libfftw3f.a(r2c.o)
                              ../../fftw-3.3.4/.libs//libfftw3f.a(r2cbIII_10.o) (fftwf_rdft_r2cbIII_genus)
../../fftw-3.3.4/.libs//libfftw3f.a(r2r.o)
                              ../../fftw-3.3.4/.libs//libfftw3f.a(e01_8.o) (fftwf_rdft_r2r_genus)
../../fftw-3.3.4/.libs//libfftw3f.a(genus.o)
                              ../../fftw-3.3.4/.libs//libfftw3f.a(t1sv_16.o) (fftwf_dft_tssimd_genus_neon)
../../fftw-3.3.4/.libs//libfftw3f.a(lt22-genus.o)
                              ../../fftw-3.3.4/.libs//libfftw3f.a(hc2cfdftv_10.o) (fftwf_rdft_hc2cfv_genus_neon)
../../fftw-3.3.4/.libs//libfftw3f.a(dftw-direct.o)
                              ../../fftw-3.3.4/.libs//libfftw3f.a(kdft-dit.o) (fftwf_regsolver_ct_directw)
../../fftw-3.3.4/.libs//libfftw3f.a(dftw-directsq.o)
                              ../../fftw-3.3.4/.libs//libfftw3f.a(kdft-difsq.o) (fftwf_regsolver_ct_directwsq)
../../fftw-3.3.4/.libs//libfftw3f.a(direct.o)
                              ../../fftw-3.3.4/.libs//libfftw3f.a(kdft.o) (fftwf_mksolver_dft_direct)
../../fftw-3.3.4/.libs//libfftw3f.a(ct-hc2c-direct.o)
                              ../../fftw-3.3.4/.libs//libfftw3f.a(khc2c.o) (fftwf_regsolver_hc2c_direct)
../../fftw-3.3.4/.libs//libfftw3f.a(ct-hc2c.o)
                              ../../fftw-3.3.4/.libs//libfftw3f.a(ct-hc2c-direct.o) (fftwf_mksolver_hc2c)
../../fftw-3.3.4/.libs//libfftw3f.a(direct-r2c.o)
                              ../../fftw-3.3.4/.libs//libfftw3f.a(kr2c.o) (fftwf_mksolver_rdft_r2c_direct)
../../fftw-3.3.4/.libs//libfftw3f.a(direct-r2r.o)
                              ../../fftw-3.3.4/.libs//libfftw3f.a(kr2r.o) (fftwf_mksolver_rdft_r2r_direct)
../../fftw-3.3.4/.libs//libfftw3f.a(direct2.o)
                              ../../fftw-3.3.4/.libs//libfftw3f.a(kr2c.o) (fftwf_mksolver_rdft2_direct)
../../fftw-3.3.4/.libs//libfftw3f.a(hc2hc-direct.o)
                              ../../fftw-3.3.4/.libs//libfftw3f.a(khc2hc.o) (fftwf_regsolver_hc2hc_direct)
../../fftw-3.3.4/.libs//libfftw3f.a(ct.o)
                              ../../fftw-3.3.4/.libs//libfftw3f.a(dftw-direct.o) (fftwf_ct_uglyp)
/opt/ti-sdk-am335x-evm-07.00.00.00/linux-devkit/sysroots/i686-arago-linux/usr/bin/../lib/gcc/arm-linux-gnueabihf/4.7.3/libgcc.a(_udivsi3.o)
                              ../../fftw-3.3.4/.libs//libfftw3f.a(planner.o) (__aeabi_uidivmod)
/opt/ti-sdk-am335x-evm-07.00.00.00/linux-devkit/sysroots/i686-arago-linux/usr/bin/../lib/gcc/arm-linux-gnueabihf/4.7.3/libgcc.a(_divsi3.o)
                              release/dt78xx_aio.o (__aeabi_idiv)
/opt/ti-sdk-am335x-evm-07.00.00.00/linux-devkit/sysroots/i686-arago-linux/usr/bin/../lib/gcc/arm-linux-gnueabihf/4.7.3/libgcc.a(_arm_addsubdf3.o)
                              release/mongoose.o (__aeabi_l2d)
/opt/ti-sdk-am335x-evm-07.00.00.00/linux-devkit/sysroots/i686-arago-linux/usr/bin/../lib/gcc/arm-linux-gnueabihf/4.7.3/libgcc.a(_dvmd_lnx.o)
                              /opt/ti-sdk-am335x-evm-07.00.00.00/linux-devkit/sysroots/i686-arago-linux/usr/bin/../lib/gcc/arm-linux-gnueabihf/4.7.3/libgcc.a(_udivsi3.o) (__aeabi_idiv0)
/opt/ti-sdk-am335x-evm-07.00.00.00/linux-devkit/sysroots/i686-arago-linux/usr/bin/../arm-linux-gnueabihf/libc/usr/lib/arm-linux-gnueabihf/4.7.3/./libc_nonshared.a(elf-init.oS)
                              /opt/ti-sdk-am335x-evm-07.00.00.00/linux-devkit/sysroots/i686-arago-linux/usr/bin/../arm-linux-gnueabihf/libc/usr/lib/arm-linux-gnueabihf/4.7.3/crt1.o (__libc_csu_init)

Discarded input sections

 .note.GNU-stack
                0x00000000        0x0 /opt/ti-sdk-am335x-evm-07.00.00.00/linux-devkit/sysroots/i686-arago-linux/usr/bin/../arm-linux-gnueabihf/libc/usr/lib/arm-linux-gnueabihf/4.7.3/crt1.o
 .gnu_debuglink
                0x00000000        0xc /opt/ti-sdk-am335x-evm-07.00.00.00/linux-devkit/sysroots/i686-arago-linux/usr/bin/../arm-linux-gnueabihf/libc/usr/lib/arm-linux-gnueabihf/4.7.3/crt1.o
 .note.GNU-stack
                0x00000000        0x0 /opt/ti-sdk-am335x-evm-07.00.00.00/linux-devkit/sysroots/i686-arago-linux/usr/bin/../arm-linux-gnueabihf/libc/usr/lib/arm-linux-gnueabihf/4.7.3/crti.o
 .gnu_debuglink
                0x00000000        0xc /opt/ti-sdk-am335x-evm-07.00.00.00/linux-devkit/sysroots/i686-arago-linux/usr/bin/../arm-linux-gnueabihf/libc/usr/lib/arm-linux-gnueabihf/4.7.3/crti.o
 .note.GNU-stack
                0x00000000        0x0 /opt/ti-sdk-am335x-evm-07.00.00.00/linux-devkit/sysroots/i686-arago-linux/usr/bin/../lib/gcc/arm-linux-gnueabihf/4.7.3/crtbegin.o
 .note.GNU-stack
                0x00000000        0x0 release/main.o
 .note.GNU-stack
                0x00000000        0x0 release/mongoose.o
 .note.GNU-stack
                0x00000000        0x0 release/dt78xx_aio.o
 .note.GNU-stack
                0x00000000        0x0 release/dt78xx_misc.o
 .note.GNU-stack
                0x00000000        0x0 ../../fftw-3.3.4/.libs//libfftw3f.a(apiplan.o)
 .note.GNU-stack
                0x00000000        0x0 ../../fftw-3.3.4/.libs//libfftw3f.a(execute.o)
 .note.GNU-stack
                0x00000000        0x0 ../../fftw-3.3.4/.libs//libfftw3f.a(malloc.o)
 .note.GNU-stack
                0x00000000        0x0 ../../fftw-3.3.4/.libs//libfftw3f.a(mapflags.o)
 .note.GNU-stack
                0x00000000        0x0 ../../fftw-3.3.4/.libs//libfftw3f.a(plan-dft-r2c-1d.o)
 .note.GNU-stack
                0x00000000        0x0 ../../fftw-3.3.4/.libs//libfftw3f.a(plan-dft-r2c.o)
 .note.GNU-stack
                0x00000000        0x0 ../../fftw-3.3.4/.libs//libfftw3f.a(plan-many-dft-r2c.o)
 .note.GNU-stack
                0x00000000        0x0 ../../fftw-3.3.4/.libs//libfftw3f.a(rdft2-pad.o)
 .note.GNU-stack
                0x00000000        0x0 ../../fftw-3.3.4/.libs//libfftw3f.a(the-planner.o)
 .note.GNU-stack
                0x00000000        0x0 ../../fftw-3.3.4/.libs//libfftw3f.a(alloc.o)
 .note.GNU-stack
                0x00000000        0x0 ../../fftw-3.3.4/.libs//libfftw3f.a(assert.o)
 .note.GNU-stack
                0x00000000        0x0 ../../fftw-3.3.4/.libs//libfftw3f.a(extract-reim.o)
 .note.GNU-stack
                0x00000000        0x0 ../../fftw-3.3.4/.libs//libfftw3f.a(kalloc.o)
 .note.GNU-stack
                0x00000000        0x0 ../../fftw-3.3.4/.libs//libfftw3f.a(plan.o)
 .note.GNU-stack
                0x00000000        0x0 ../../fftw-3.3.4/.libs//libfftw3f.a(planner.o)
 .note.GNU-stack
                0x00000000        0x0 ../../fftw-3.3.4/.libs//libfftw3f.a(primes.o)
 .note.GNU-stack
                0x00000000        0x0 ../../fftw-3.3.4/.libs//libfftw3f.a(problem.o)
 .note.GNU-stack
                0x00000000        0x0 ../../fftw-3.3.4/.libs//libfftw3f.a(solver.o)
 .note.GNU-stack
                0x00000000        0x0 ../../fftw-3.3.4/.libs//libfftw3f.a(tensor1.o)
 .note.GNU-stack
                0x00000000        0x0 ../../fftw-3.3.4/.libs//libfftw3f.a(timer.o)
 .note.GNU-stack
                0x00000000        0x0 ../../fftw-3.3.4/.libs//libfftw3f.a(problem2.o)
 .note.GNU-stack
                0x00000000        0x0 ../../fftw-3.3.4/.libs//libfftw3f.a(configure.o)
 .note.GNU-stack
                0x00000000        0x0 ../../fftw-3.3.4/.libs//libfftw3f.a(mktensor-rowmajor.o)
 .note.GNU-stack
                0x00000000        0x0 ../../fftw-3.3.4/.libs//libfftw3f.a(align.o)
 .note.GNU-stack
                0x00000000        0x0 ../../fftw-3.3.4/.libs//libfftw3f.a(hash.o)
 .note.GNU-stack
                0x00000000        0x0 ../../fftw-3.3.4/.libs//libfftw3f.a(md5-1.o)
 .note.GNU-stack
                0x00000000        0x0 ../../fftw-3.3.4/.libs//libfftw3f.a(md5.o)
 .note.GNU-stack
                0x00000000        0x0 ../../fftw-3.3.4/.libs//libfftw3f.a(ops.o)
 .note.GNU-stack
                0x00000000        0x0 ../../fftw-3.3.4/.libs//libfftw3f.a(tensor.o)
 .note.GNU-stack
                0x00000000        0x0 ../../fftw-3.3.4/.libs//libfftw3f.a(tensor5.o)
 .note.GNU-stack
                0x00000000        0x0 ../../fftw-3.3.4/.libs//libfftw3f.a(tensor7.o)
 .note.GNU-stack
                0x00000000        0x0 ../../fftw-3.3.4/.libs//libfftw3f.a(tensor8.o)
 .note.GNU-stack
                0x00000000        0x0 ../../fftw-3.3.4/.libs//libfftw3f.a(conf.o)
 .note.GNU-stack
                0x00000000        0x0 ../../fftw-3.3.4/.libs//libfftw3f.a(dftw-generic.o)
 .note.GNU-stack
                0x00000000        0x0 ../../fftw-3.3.4/.libs//libfftw3f.a(dftw-genericbuf.o)
 .note.GNU-stack
                0x00000000        0x0 ../../fftw-3.3.4/.libs//libfftw3f.a(generic.o)
 .note.GNU-stack
                0x00000000        0x0 ../../fftw-3.3.4/.libs//libfftw3f.a(indirect-transpose.o)
 .note.GNU-stack
                0x00000000        0x0 ../../fftw-3.3.4/.libs//libfftw3f.a(indirect.o)
 .note.GNU-stack
                0x00000000        0x0 ../../fftw-3.3.4/.libs//libfftw3f.a(nop.o)
 .note.GNU-stack
                0x00000000        0x0 ../../fftw-3.3.4/.libs//libfftw3f.a(lt3-plan.o)
 .note.GNU-stack
                0x00000000        0x0 ../../fftw-3.3.4/.libs//libfftw3f.a(lt4-problem.o)
 .note.GNU-stack
                0x00000000        0x0 ../../fftw-3.3.4/.libs//libfftw3f.a(lt5-rader.o)
 .note.GNU-stack
                0x00000000        0x0 ../../fftw-3.3.4/.libs//libfftw3f.a(rank-geq2.o)
 .note.GNU-stack
                0x00000000        0x0 ../../fftw-3.3.4/.libs//libfftw3f.a(solve.o)
 .note.GNU-stack
                0x00000000        0x0 ../../fftw-3.3.4/.libs//libfftw3f.a(vrank-geq1.o)
 .note.GNU-stack
                0x00000000        0x0 ../../fftw-3.3.4/.libs//libfftw3f.a(zero.o)
 .note.GNU-stack
                0x00000000        0x0 ../../fftw-3.3.4/.libs//libfftw3f.a(codlist.o)
 .note.GNU-stack
                0x00000000        0x0 ../../fftw-3.3.4/.libs//libfftw3f.a(n1_10.o)
 .note.GNU-stack
                0x00000000        0x0 ../../fftw-3.3.4/.libs//libfftw3f.a(n1_11.o)
 .note.GNU-stack
                0x00000000        0x0 ../../fftw-3.3.4/.libs//libfftw3f.a(n1_12.o)
 .note.GNU-stack
                0x00000000        0x0 ../../fftw-3.3.4/.libs//libfftw3f.a(n1_13.o)
 .note.GNU-stack
                0x00000000        0x0 ../../fftw-3.3.4/.libs//libfftw3f.a(n1_14.o)
 .note.GNU-stack
                0x00000000        0x0 ../../fftw-3.3.4/.libs//libfftw3f.a(n1_15.o)
 .note.GNU-stack
                0x00000000        0x0 ../../fftw-3.3.4/.libs//libfftw3f.a(n1_16.o)
 .note.GNU-stack
                0x00000000        0x0 ../../fftw-3.3.4/.libs//libfftw3f.a(n1_2.o)
 .note.GNU-stack
                0x00000000        0x0 ../../fftw-3.3.4/.libs//libfftw3f.a(n1_20.o)
 .note.GNU-stack
                0x00000000        0x0 ../../fftw-3.3.4/.libs//libfftw3f.a(n1_25.o)
 .note.GNU-stack
                0x00000000        0x0 ../../fftw-3.3.4/.libs//libfftw3f.a(n1_3.o)
 .note.GNU-stack
                0x00000000        0x0 ../../fftw-3.3.4/.libs//libfftw3f.a(n1_32.o)
 .note.GNU-stack
                0x00000000        0x0 ../../fftw-3.3.4/.libs//libfftw3f.a(n1_4.o)
 .note.GNU-stack
                0x00000000        0x0 ../../fftw-3.3.4/.libs//libfftw3f.a(n1_5.o)
 .note.GNU-stack
                0x00000000        0x0 ../../fftw-3.3.4/.libs//libfftw3f.a(n1_6.o)
 .note.GNU-stack
                0x00000000        0x0 ../../fftw-3.3.4/.libs//libfftw3f.a(n1_64.o)
 .note.GNU-stack
                0x00000000        0x0 ../../fftw-3.3.4/.libs//libfftw3f.a(n1_7.o)
 .note.GNU-stack
                0x00000000        0x0 ../../fftw-3.3.4/.libs//libfftw3f.a(n1_8.o)
 .note.GNU-stack
                0x00000000        0x0 ../../fftw-3.3.4/.libs//libfftw3f.a(n1_9.o)
 .note.GNU-stack
                0x00000000        0x0 ../../fftw-3.3.4/.libs//libfftw3f.a(q1_2.o)
 .note.GNU-stack
                0x00000000        0x0 ../../fftw-3.3.4/.libs//libfftw3f.a(q1_3.o)
 .note.GNU-stack
                0x00000000        0x0 ../../fftw-3.3.4/.libs//libfftw3f.a(q1_4.o)
 .note.GNU-stack
                0x00000000        0x0 ../../fftw-3.3.4/.libs//libfftw3f.a(q1_5.o)
 .note.GNU-stack
                0x00000000        0x0 ../../fftw-3.3.4/.libs//libfftw3f.a(q1_6.o)
 .note.GNU-stack
                0x00000000        0x0 ../../fftw-3.3.4/.libs//libfftw3f.a(q1_8.o)
 .note.GNU-stack
                0x00000000        0x0 ../../fftw-3.3.4/.libs//libfftw3f.a(t1_10.o)
 .note.GNU-stack
                0x00000000        0x0 ../../fftw-3.3.4/.libs//libfftw3f.a(t1_12.o)
 .note.GNU-stack
                0x00000000        0x0 ../../fftw-3.3.4/.libs//libfftw3f.a(t1_15.o)
 .note.GNU-stack
                0x00000000        0x0 ../../fftw-3.3.4/.libs//libfftw3f.a(t1_16.o)
 .note.GNU-stack
                0x00000000        0x0 ../../fftw-3.3.4/.libs//libfftw3f.a(t1_2.o)
 .note.GNU-stack
                0x00000000        0x0 ../../fftw-3.3.4/.libs//libfftw3f.a(t1_20.o)
 .note.GNU-stack
                0x00000000        0x0 ../../fftw-3.3.4/.libs//libfftw3f.a(t1_25.o)
 .note.GNU-stack
                0x00000000        0x0 ../../fftw-3.3.4/.libs//libfftw3f.a(t1_3.o)
 .note.GNU-stack
                0x00000000        0x0 ../../fftw-3.3.4/.libs//libfftw3f.a(t1_32.o)
 .note.GNU-stack
                0x00000000        0x0 ../../fftw-3.3.4/.libs//libfftw3f.a(t1_4.o)
 .note.GNU-stack
                0x00000000        0x0 ../../fftw-3.3.4/.libs//libfftw3f.a(t1_5.o)
 .note.GNU-stack
                0x00000000        0x0 ../../fftw-3.3.4/.libs//libfftw3f.a(t1_6.o)
 .note.GNU-stack
                0x00000000        0x0 ../../fftw-3.3.4/.libs//libfftw3f.a(t1_64.o)
 .note.GNU-stack
                0x00000000        0x0 ../../fftw-3.3.4/.libs//libfftw3f.a(t1_7.o)
 .note.GNU-stack
                0x00000000        0x0 ../../fftw-3.3.4/.libs//libfftw3f.a(t1_8.o)
 .note.GNU-stack
                0x00000000        0x0 ../../fftw-3.3.4/.libs//libfftw3f.a(t1_9.o)
 .note.GNU-stack
                0x00000000        0x0 ../../fftw-3.3.4/.libs//libfftw3f.a(t2_10.o)
 .note.GNU-stack
                0x00000000        0x0 ../../fftw-3.3.4/.libs//libfftw3f.a(t2_16.o)
 .note.GNU-stack
                0x00000000        0x0 ../../fftw-3.3.4/.libs//libfftw3f.a(t2_20.o)
 .note.GNU-stack
                0x00000000        0x0 ../../fftw-3.3.4/.libs//libfftw3f.a(t2_25.o)
 .note.GNU-stack
                0x00000000        0x0 ../../fftw-3.3.4/.libs//libfftw3f.a(t2_32.o)
 .note.GNU-stack
                0x00000000        0x0 ../../fftw-3.3.4/.libs//libfftw3f.a(t2_4.o)
 .note.GNU-stack
                0x00000000        0x0 ../../fftw-3.3.4/.libs//libfftw3f.a(t2_5.o)
 .note.GNU-stack
                0x00000000        0x0 ../../fftw-3.3.4/.libs//libfftw3f.a(t2_64.o)
 .note.GNU-stack
                0x00000000        0x0 ../../fftw-3.3.4/.libs//libfftw3f.a(t2_8.o)
 .note.GNU-stack
                0x00000000        0x0 ../../fftw-3.3.4/.libs//libfftw3f.a(lt7-conf.o)
 .note.GNU-stack
                0x00000000        0x0 ../../fftw-3.3.4/.libs//libfftw3f.a(dft-r2hc.o)
 .note.GNU-stack
                0x00000000        0x0 ../../fftw-3.3.4/.libs//libfftw3f.a(dht-r2hc.o)
 .note.GNU-stack
                0x00000000        0x0 ../../fftw-3.3.4/.libs//libfftw3f.a(dht-rader.o)
 .note.GNU-stack
                0x00000000        0x0 ../../fftw-3.3.4/.libs//libfftw3f.a(lt8-generic.o)
 .note.GNU-stack
                0x00000000        0x0 ../../fftw-3.3.4/.libs//libfftw3f.a(hc2hc-generic.o)
 .note.GNU-stack
                0x00000000        0x0 ../../fftw-3.3.4/.libs//libfftw3f.a(hc2hc.o)
 .note.GNU-stack
                0x00000000        0x0 ../../fftw-3.3.4/.libs//libfftw3f.a(lt9-indirect.o)
 .note.GNU-stack
                0x00000000        0x0 ../../fftw-3.3.4/.libs//libfftw3f.a(lt10-nop.o)
 .note.GNU-stack
                0x00000000        0x0 ../../fftw-3.3.4/.libs//libfftw3f.a(nop2.o)
 .note.GNU-stack
                0x00000000        0x0 ../../fftw-3.3.4/.libs//libfftw3f.a(lt11-plan.o)
 .note.GNU-stack
                0x00000000        0x0 ../../fftw-3.3.4/.libs//libfftw3f.a(plan2.o)
 .note.GNU-stack
                0x00000000        0x0 ../../fftw-3.3.4/.libs//libfftw3f.a(lt12-problem.o)
 .note.GNU-stack
                0x00000000        0x0 ../../fftw-3.3.4/.libs//libfftw3f.a(rank-geq2-rdft2.o)
 .note.GNU-stack
                0x00000000        0x0 ../../fftw-3.3.4/.libs//libfftw3f.a(lt13-rank-geq2.o)
 .note.GNU-stack
                0x00000000        0x0 ../../fftw-3.3.4/.libs//libfftw3f.a(rank0-rdft2.o)
 .note.GNU-stack
                0x00000000        0x0 ../../fftw-3.3.4/.libs//libfftw3f.a(rank0.o)
 .note.GNU-stack
                0x00000000        0x0 ../../fftw-3.3.4/.libs//libfftw3f.a(rdft-dht.o)
 .note.GNU-stack
                0x00000000        0x0 ../../fftw-3.3.4/.libs//libfftw3f.a(rdft2-inplace-strides.o)
 .note.GNU-stack
                0x00000000        0x0 ../../fftw-3.3.4/.libs//libfftw3f.a(rdft2-rdft.o)
 .note.GNU-stack
                0x00000000        0x0 ../../fftw-3.3.4/.libs//libfftw3f.a(rdft2-strides.o)
 .note.GNU-stack
                0x00000000        0x0 ../../fftw-3.3.4/.libs//libfftw3f.a(rdft2-tensor-max-index.o)
 .note.GNU-stack
                0x00000000        0x0 ../../fftw-3.3.4/.libs//libfftw3f.a(lt14-solve.o)
 .note.GNU-stack
                0x00000000        0x0 ../../fftw-3.3.4/.libs//libfftw3f.a(solve2.o)
 .note.GNU-stack
                0x00000000        0x0 ../../fftw-3.3.4/.libs//libfftw3f.a(vrank-geq1-rdft2.o)
 .note.GNU-stack
                0x00000000        0x0 ../../fftw-3.3.4/.libs//libfftw3f.a(lt15-vrank-geq1.o)
 .note.GNU-stack
                0x00000000        0x0 ../../fftw-3.3.4/.libs//libfftw3f.a(vrank3-transpose.o)
 .note.GNU-stack
                0x00000000        0x0 ../../fftw-3.3.4/.libs//libfftw3f.a(lt16-codlist.o)
 .note.GNU-stack
                0x00000000        0x0 ../../fftw-3.3.4/.libs//libfftw3f.a(hc2cf2_16.o)
 .note.GNU-stack
                0x00000000        0x0 ../../fftw-3.3.4/.libs//libfftw3f.a(hc2cf2_20.o)
 .note.GNU-stack
                0x00000000        0x0 ../../fftw-3.3.4/.libs//libfftw3f.a(hc2cf2_32.o)
 .note.GNU-stack
                0x00000000        0x0 ../../fftw-3.3.4/.libs//libfftw3f.a(hc2cf2_4.o)
 .note.GNU-stack
                0x00000000        0x0 ../../fftw-3.3.4/.libs//libfftw3f.a(hc2cf2_8.o)
 .note.GNU-stack
                0x00000000        0x0 ../../fftw-3.3.4/.libs//libfftw3f.a(hc2cf_10.o)
 .note.GNU-stack
                0x00000000        0x0 ../../fftw-3.3.4/.libs//libfftw3f.a(hc2cf_12.o)
 .note.GNU-stack
                0x00000000        0x0 ../../fftw-3.3.4/.libs//libfftw3f.a(hc2cf_16.o)
 .note.GNU-stack
                0x00000000        0x0 ../../fftw-3.3.4/.libs//libfftw3f.a(hc2cf_2.o)
 .note.GNU-stack
                0x00000000        0x0 ../../fftw-3.3.4/.libs//libfftw3f.a(hc2cf_20.o)
 .note.GNU-stack
                0x00000000        0x0 ../../fftw-3.3.4/.libs//libfftw3f.a(hc2cf_32.o)
 .note.GNU-stack
                0x00000000        0x0 ../../fftw-3.3.4/.libs//libfftw3f.a(hc2cf_4.o)
 .note.GNU-stack
                0x00000000        0x0 ../../fftw-3.3.4/.libs//libfftw3f.a(hc2cf_6.o)
 .note.GNU-stack
                0x00000000        0x0 ../../fftw-3.3.4/.libs//libfftw3f.a(hc2cf_8.o)
 .note.GNU-stack
                0x00000000        0x0 ../../fftw-3.3.4/.libs//libfftw3f.a(hc2cfdft2_16.o)
 .note.GNU-stack
                0x00000000        0x0 ../../fftw-3.3.4/.libs//libfftw3f.a(hc2cfdft2_20.o)
 .note.GNU-stack
                0x00000000        0x0 ../../fftw-3.3.4/.libs//libfftw3f.a(hc2cfdft2_32.o)
 .note.GNU-stack
                0x00000000        0x0 ../../fftw-3.3.4/.libs//libfftw3f.a(hc2cfdft2_4.o)
 .note.GNU-stack
                0x00000000        0x0 ../../fftw-3.3.4/.libs//libfftw3f.a(hc2cfdft2_8.o)
 .note.GNU-stack
                0x00000000        0x0 ../../fftw-3.3.4/.libs//libfftw3f.a(hc2cfdft_10.o)
 .note.GNU-stack
                0x00000000        0x0 ../../fftw-3.3.4/.libs//libfftw3f.a(hc2cfdft_12.o)
 .note.GNU-stack
                0x00000000        0x0 ../../fftw-3.3.4/.libs//libfftw3f.a(hc2cfdft_16.o)
 .note.GNU-stack
                0x00000000        0x0 ../../fftw-3.3.4/.libs//libfftw3f.a(hc2cfdft_2.o)
 .note.GNU-stack
                0x00000000        0x0 ../../fftw-3.3.4/.libs//libfftw3f.a(hc2cfdft_20.o)
 .note.GNU-stack
                0x00000000        0x0 ../../fftw-3.3.4/.libs//libfftw3f.a(hc2cfdft_32.o)
 .note.GNU-stack
                0x00000000        0x0 ../../fftw-3.3.4/.libs//libfftw3f.a(hc2cfdft_4.o)
 .note.GNU-stack
                0x00000000        0x0 ../../fftw-3.3.4/.libs//libfftw3f.a(hc2cfdft_6.o)
 .note.GNU-stack
                0x00000000        0x0 ../../fftw-3.3.4/.libs//libfftw3f.a(hc2cfdft_8.o)
 .note.GNU-stack
                0x00000000        0x0 ../../fftw-3.3.4/.libs//libfftw3f.a(hf2_16.o)
 .note.GNU-stack
                0x00000000        0x0 ../../fftw-3.3.4/.libs//libfftw3f.a(hf2_20.o)
 .note.GNU-stack
                0x00000000        0x0 ../../fftw-3.3.4/.libs//libfftw3f.a(hf2_25.o)
 .note.GNU-stack
                0x00000000        0x0 ../../fftw-3.3.4/.libs//libfftw3f.a(hf2_32.o)
 .note.GNU-stack
                0x00000000        0x0 ../../fftw-3.3.4/.libs//libfftw3f.a(hf2_4.o)
 .note.GNU-stack
                0x00000000        0x0 ../../fftw-3.3.4/.libs//libfftw3f.a(hf2_5.o)
 .note.GNU-stack
                0x00000000        0x0 ../../fftw-3.3.4/.libs//libfftw3f.a(hf2_8.o)
 .note.GNU-stack
                0x00000000        0x0 ../../fftw-3.3.4/.libs//libfftw3f.a(hf_10.o)
 .note.GNU-stack
                0x00000000        0x0 ../../fftw-3.3.4/.libs//libfftw3f.a(hf_12.o)
 .note.GNU-stack
                0x00000000        0x0 ../../fftw-3.3.4/.libs//libfftw3f.a(hf_15.o)
 .note.GNU-stack
                0x00000000        0x0 ../../fftw-3.3.4/.libs//libfftw3f.a(hf_16.o)
 .note.GNU-stack
                0x00000000        0x0 ../../fftw-3.3.4/.libs//libfftw3f.a(hf_2.o)
 .note.GNU-stack
                0x00000000        0x0 ../../fftw-3.3.4/.libs//libfftw3f.a(hf_20.o)
 .note.GNU-stack
                0x00000000        0x0 ../../fftw-3.3.4/.libs//libfftw3f.a(hf_25.o)
 .note.GNU-stack
                0x00000000        0x0 ../../fftw-3.3.4/.libs//libfftw3f.a(hf_3.o)
 .note.GNU-stack
                0x00000000        0x0 ../../fftw-3.3.4/.libs//libfftw3f.a(hf_32.o)
 .note.GNU-stack
                0x00000000        0x0 ../../fftw-3.3.4/.libs//libfftw3f.a(hf_4.o)
 .note.GNU-stack
                0x00000000        0x0 ../../fftw-3.3.4/.libs//libfftw3f.a(hf_5.o)
 .note.GNU-stack
                0x00000000        0x0 ../../fftw-3.3.4/.libs//libfftw3f.a(hf_6.o)
 .note.GNU-stack
                0x00000000        0x0 ../../fftw-3.3.4/.libs//libfftw3f.a(hf_64.o)
 .note.GNU-stack
                0x00000000        0x0 ../../fftw-3.3.4/.libs//libfftw3f.a(hf_7.o)
 .note.GNU-stack
                0x00000000        0x0 ../../fftw-3.3.4/.libs//libfftw3f.a(hf_8.o)
 .note.GNU-stack
                0x00000000        0x0 ../../fftw-3.3.4/.libs//libfftw3f.a(hf_9.o)
 .note.GNU-stack
                0x00000000        0x0 ../../fftw-3.3.4/.libs//libfftw3f.a(r2cfII_10.o)
 .note.GNU-stack
                0x00000000        0x0 ../../fftw-3.3.4/.libs//libfftw3f.a(r2cfII_12.o)
 .note.GNU-stack
                0x00000000        0x0 ../../fftw-3.3.4/.libs//libfftw3f.a(r2cfII_15.o)
 .note.GNU-stack
                0x00000000        0x0 ../../fftw-3.3.4/.libs//libfftw3f.a(r2cfII_16.o)
 .note.GNU-stack
                0x00000000        0x0 ../../fftw-3.3.4/.libs//libfftw3f.a(r2cfII_2.o)
 .note.GNU-stack
                0x00000000        0x0 ../../fftw-3.3.4/.libs//libfftw3f.a(r2cfII_20.o)
 .note.GNU-stack
                0x00000000        0x0 ../../fftw-3.3.4/.libs//libfftw3f.a(r2cfII_25.o)
 .note.GNU-stack
                0x00000000        0x0 ../../fftw-3.3.4/.libs//libfftw3f.a(r2cfII_3.o)
 .note.GNU-stack
                0x00000000        0x0 ../../fftw-3.3.4/.libs//libfftw3f.a(r2cfII_32.o)
 .note.GNU-stack
                0x00000000        0x0 ../../fftw-3.3.4/.libs//libfftw3f.a(r2cfII_4.o)
 .note.GNU-stack
                0x00000000        0x0 ../../fftw-3.3.4/.libs//libfftw3f.a(r2cfII_5.o)
 .note.GNU-stack
                0x00000000        0x0 ../../fftw-3.3.4/.libs//libfftw3f.a(r2cfII_6.o)
 .note.GNU-stack
                0x00000000        0x0 ../../fftw-3.3.4/.libs//libfftw3f.a(r2cfII_64.o)
 .note.GNU-stack
                0x00000000        0x0 ../../fftw-3.3.4/.libs//libfftw3f.a(r2cfII_7.o)
 .note.GNU-stack
                0x00000000        0x0 ../../fftw-3.3.4/.libs//libfftw3f.a(r2cfII_8.o)
 .note.GNU-stack
                0x00000000        0x0 ../../fftw-3.3.4/.libs//libfftw3f.a(r2cfII_9.o)
 .note.GNU-stack
                0x00000000        0x0 ../../fftw-3.3.4/.libs//libfftw3f.a(r2cf_10.o)
 .note.GNU-stack
                0x00000000        0x0 ../../fftw-3.3.4/.libs//libfftw3f.a(r2cf_11.o)
 .note.GNU-stack
                0x00000000        0x0 ../../fftw-3.3.4/.libs//libfftw3f.a(r2cf_12.o)
 .note.GNU-stack
                0x00000000        0x0 ../../fftw-3.3.4/.libs//libfftw3f.a(r2cf_128.o)
 .note.GNU-stack
                0x00000000        0x0 ../../fftw-3.3.4/.libs//libfftw3f.a(r2cf_13.o)
 .note.GNU-stack
                0x00000000        0x0 ../../fftw-3.3.4/.libs//libfftw3f.a(r2cf_14.o)
 .note.GNU-stack
                0x00000000        0x0 ../../fftw-3.3.4/.libs//libfftw3f.a(r2cf_15.o)
 .note.GNU-stack
                0x00000000        0x0 ../../fftw-3.3.4/.libs//libfftw3f.a(r2cf_16.o)
 .note.GNU-stack
                0x00000000        0x0 ../../fftw-3.3.4/.libs//libfftw3f.a(r2cf_2.o)
 .note.GNU-stack
                0x00000000        0x0 ../../fftw-3.3.4/.libs//libfftw3f.a(r2cf_20.o)
 .note.GNU-stack
                0x00000000        0x0 ../../fftw-3.3.4/.libs//libfftw3f.a(r2cf_25.o)
 .note.GNU-stack
                0x00000000        0x0 ../../fftw-3.3.4/.libs//libfftw3f.a(r2cf_3.o)
 .note.GNU-stack
                0x00000000        0x0 ../../fftw-3.3.4/.libs//libfftw3f.a(r2cf_32.o)
 .note.GNU-stack
                0x00000000        0x0 ../../fftw-3.3.4/.libs//libfftw3f.a(r2cf_4.o)
 .note.GNU-stack
                0x00000000        0x0 ../../fftw-3.3.4/.libs//libfftw3f.a(r2cf_5.o)
 .note.GNU-stack
                0x00000000        0x0 ../../fftw-3.3.4/.libs//libfftw3f.a(r2cf_6.o)
 .note.GNU-stack
                0x00000000        0x0 ../../fftw-3.3.4/.libs//libfftw3f.a(r2cf_64.o)
 .note.GNU-stack
                0x00000000        0x0 ../../fftw-3.3.4/.libs//libfftw3f.a(r2cf_7.o)
 .note.GNU-stack
                0x00000000        0x0 ../../fftw-3.3.4/.libs//libfftw3f.a(r2cf_8.o)
 .note.GNU-stack
                0x00000000        0x0 ../../fftw-3.3.4/.libs//libfftw3f.a(r2cf_9.o)
 .note.GNU-stack
                0x00000000        0x0 ../../fftw-3.3.4/.libs//libfftw3f.a(lt17-codlist.o)
 .note.GNU-stack
                0x00000000        0x0 ../../fftw-3.3.4/.libs//libfftw3f.a(hb2_16.o)
 .note.GNU-stack
                0x00000000        0x0 ../../fftw-3.3.4/.libs//libfftw3f.a(hb2_20.o)
 .note.GNU-stack
                0x00000000        0x0 ../../fftw-3.3.4/.libs//libfftw3f.a(hb2_25.o)
 .note.GNU-stack
                0x00000000        0x0 ../../fftw-3.3.4/.libs//libfftw3f.a(hb2_32.o)
 .note.GNU-stack
                0x00000000        0x0 ../../fftw-3.3.4/.libs//libfftw3f.a(hb2_4.o)
 .note.GNU-stack
                0x00000000        0x0 ../../fftw-3.3.4/.libs//libfftw3f.a(hb2_5.o)
 .note.GNU-stack
                0x00000000        0x0 ../../fftw-3.3.4/.libs//libfftw3f.a(hb2_8.o)
 .note.GNU-stack
                0x00000000        0x0 ../../fftw-3.3.4/.libs//libfftw3f.a(hb_10.o)
 .note.GNU-stack
                0x00000000        0x0 ../../fftw-3.3.4/.libs//libfftw3f.a(hb_12.o)
 .note.GNU-stack
                0x00000000        0x0 ../../fftw-3.3.4/.libs//libfftw3f.a(hb_15.o)
 .note.GNU-stack
                0x00000000        0x0 ../../fftw-3.3.4/.libs//libfftw3f.a(hb_16.o)
 .note.GNU-stack
                0x00000000        0x0 ../../fftw-3.3.4/.libs//libfftw3f.a(hb_2.o)
 .note.GNU-stack
                0x00000000        0x0 ../../fftw-3.3.4/.libs//libfftw3f.a(hb_20.o)
 .note.GNU-stack
                0x00000000        0x0 ../../fftw-3.3.4/.libs//libfftw3f.a(hb_25.o)
 .note.GNU-stack
                0x00000000        0x0 ../../fftw-3.3.4/.libs//libfftw3f.a(hb_3.o)
 .note.GNU-stack
                0x00000000        0x0 ../../fftw-3.3.4/.libs//libfftw3f.a(hb_32.o)
 .note.GNU-stack
                0x00000000        0x0 ../../fftw-3.3.4/.libs//libfftw3f.a(hb_4.o)
 .note.GNU-stack
                0x00000000        0x0 ../../fftw-3.3.4/.libs//libfftw3f.a(hb_5.o)
 .note.GNU-stack
                0x00000000        0x0 ../../fftw-3.3.4/.libs//libfftw3f.a(hb_6.o)
 .note.GNU-stack
                0x00000000        0x0 ../../fftw-3.3.4/.libs//libfftw3f.a(hb_64.o)
 .note.GNU-stack
                0x00000000        0x0 ../../fftw-3.3.4/.libs//libfftw3f.a(hb_7.o)
 .note.GNU-stack
                0x00000000        0x0 ../../fftw-3.3.4/.libs//libfftw3f.a(hb_8.o)
 .note.GNU-stack
                0x00000000        0x0 ../../fftw-3.3.4/.libs//libfftw3f.a(hb_9.o)
 .note.GNU-stack
                0x00000000        0x0 ../../fftw-3.3.4/.libs//libfftw3f.a(hc2cb2_16.o)
 .note.GNU-stack
                0x00000000        0x0 ../../fftw-3.3.4/.libs//libfftw3f.a(hc2cb2_20.o)
 .note.GNU-stack
                0x00000000        0x0 ../../fftw-3.3.4/.libs//libfftw3f.a(hc2cb2_32.o)
 .note.GNU-stack
                0x00000000        0x0 ../../fftw-3.3.4/.libs//libfftw3f.a(hc2cb2_4.o)
 .note.GNU-stack
                0x00000000        0x0 ../../fftw-3.3.4/.libs//libfftw3f.a(hc2cb2_8.o)
 .note.GNU-stack
                0x00000000        0x0 ../../fftw-3.3.4/.libs//libfftw3f.a(hc2cb_10.o)
 .note.GNU-stack
                0x00000000        0x0 ../../fftw-3.3.4/.libs//libfftw3f.a(hc2cb_12.o)
 .note.GNU-stack
                0x00000000        0x0 ../../fftw-3.3.4/.libs//libfftw3f.a(hc2cb_16.o)
 .note.GNU-stack
                0x00000000        0x0 ../../fftw-3.3.4/.libs//libfftw3f.a(hc2cb_2.o)
 .note.GNU-stack
                0x00000000        0x0 ../../fftw-3.3.4/.libs//libfftw3f.a(hc2cb_20.o)
 .note.GNU-stack
                0x00000000        0x0 ../../fftw-3.3.4/.libs//libfftw3f.a(hc2cb_32.o)
 .note.GNU-stack
                0x00000000        0x0 ../../fftw-3.3.4/.libs//libfftw3f.a(hc2cb_4.o)
 .note.GNU-stack
                0x00000000        0x0 ../../fftw-3.3.4/.libs//libfftw3f.a(hc2cb_6.o)
 .note.GNU-stack
                0x00000000        0x0 ../../fftw-3.3.4/.libs//libfftw3f.a(hc2cb_8.o)
 .note.GNU-stack
                0x00000000        0x0 ../../fftw-3.3.4/.libs//libfftw3f.a(hc2cbdft2_16.o)
 .note.GNU-stack
                0x00000000        0x0 ../../fftw-3.3.4/.libs//libfftw3f.a(hc2cbdft2_20.o)
 .note.GNU-stack
                0x00000000        0x0 ../../fftw-3.3.4/.libs//libfftw3f.a(hc2cbdft2_32.o)
 .note.GNU-stack
                0x00000000        0x0 ../../fftw-3.3.4/.libs//libfftw3f.a(hc2cbdft2_4.o)
 .note.GNU-stack
                0x00000000        0x0 ../../fftw-3.3.4/.libs//libfftw3f.a(hc2cbdft2_8.o)
 .note.GNU-stack
                0x00000000        0x0 ../../fftw-3.3.4/.libs//libfftw3f.a(hc2cbdft_10.o)
 .note.GNU-stack
                0x00000000        0x0 ../../fftw-3.3.4/.libs//libfftw3f.a(hc2cbdft_12.o)
 .note.GNU-stack
                0x00000000        0x0 ../../fftw-3.3.4/.libs//libfftw3f.a(hc2cbdft_16.o)
 .note.GNU-stack
                0x00000000        0x0 ../../fftw-3.3.4/.libs//libfftw3f.a(hc2cbdft_2.o)
 .note.GNU-stack
                0x00000000        0x0 ../../fftw-3.3.4/.libs//libfftw3f.a(hc2cbdft_20.o)
 .note.GNU-stack
                0x00000000        0x0 ../../fftw-3.3.4/.libs//libfftw3f.a(hc2cbdft_32.o)
 .note.GNU-stack
                0x00000000        0x0 ../../fftw-3.3.4/.libs//libfftw3f.a(hc2cbdft_4.o)
 .note.GNU-stack
                0x00000000        0x0 ../../fftw-3.3.4/.libs//libfftw3f.a(hc2cbdft_6.o)
 .note.GNU-stack
                0x00000000        0x0 ../../fftw-3.3.4/.libs//libfftw3f.a(hc2cbdft_8.o)
 .note.GNU-stack
                0x00000000        0x0 ../../fftw-3.3.4/.libs//libfftw3f.a(r2cbIII_10.o)
 .note.GNU-stack
                0x00000000        0x0 ../../fftw-3.3.4/.libs//libfftw3f.a(r2cbIII_12.o)
 .note.GNU-stack
                0x00000000        0x0 ../../fftw-3.3.4/.libs//libfftw3f.a(r2cbIII_15.o)
 .note.GNU-stack
                0x00000000        0x0 ../../fftw-3.3.4/.libs//libfftw3f.a(r2cbIII_16.o)
 .note.GNU-stack
                0x00000000        0x0 ../../fftw-3.3.4/.libs//libfftw3f.a(r2cbIII_2.o)
 .note.GNU-stack
                0x00000000        0x0 ../../fftw-3.3.4/.libs//libfftw3f.a(r2cbIII_20.o)
 .note.GNU-stack
                0x00000000        0x0 ../../fftw-3.3.4/.libs//libfftw3f.a(r2cbIII_25.o)
 .note.GNU-stack
                0x00000000        0x0 ../../fftw-3.3.4/.libs//libfftw3f.a(r2cbIII_3.o)
 .note.GNU-stack
                0x00000000        0x0 ../../fftw-3.3.4/.libs//libfftw3f.a(r2cbIII_32.o)
 .note.GNU-stack
                0x00000000        0x0 ../../fftw-3.3.4/.libs//libfftw3f.a(r2cbIII_4.o)
 .note.GNU-stack
                0x00000000        0x0 ../../fftw-3.3.4/.libs//libfftw3f.a(r2cbIII_5.o)
 .note.GNU-stack
                0x00000000        0x0 ../../fftw-3.3.4/.libs//libfftw3f.a(r2cbIII_6.o)
 .note.GNU-stack
                0x00000000        0x0 ../../fftw-3.3.4/.libs//libfftw3f.a(r2cbIII_64.o)
 .note.GNU-stack
                0x00000000        0x0 ../../fftw-3.3.4/.libs//libfftw3f.a(r2cbIII_7.o)
 .note.GNU-stack
                0x00000000        0x0 ../../fftw-3.3.4/.libs//libfftw3f.a(r2cbIII_8.o)
 .note.GNU-stack
                0x00000000        0x0 ../../fftw-3.3.4/.libs//libfftw3f.a(r2cbIII_9.o)
 .note.GNU-stack
                0x00000000        0x0 ../../fftw-3.3.4/.libs//libfftw3f.a(r2cb_10.o)
 .note.GNU-stack
                0x00000000        0x0 ../../fftw-3.3.4/.libs//libfftw3f.a(r2cb_11.o)
 .note.GNU-stack
                0x00000000        0x0 ../../fftw-3.3.4/.libs//libfftw3f.a(r2cb_12.o)
 .note.GNU-stack
                0x00000000        0x0 ../../fftw-3.3.4/.libs//libfftw3f.a(r2cb_128.o)
 .note.GNU-stack
                0x00000000        0x0 ../../fftw-3.3.4/.libs//libfftw3f.a(r2cb_13.o)
 .note.GNU-stack
                0x00000000        0x0 ../../fftw-3.3.4/.libs//libfftw3f.a(r2cb_14.o)
 .note.GNU-stack
                0x00000000        0x0 ../../fftw-3.3.4/.libs//libfftw3f.a(r2cb_15.o)
 .note.GNU-stack
                0x00000000        0x0 ../../fftw-3.3.4/.libs//libfftw3f.a(r2cb_16.o)
 .note.GNU-stack
                0x00000000        0x0 ../../fftw-3.3.4/.libs//libfftw3f.a(r2cb_2.o)
 .note.GNU-stack
                0x00000000        0x0 ../../fftw-3.3.4/.libs//libfftw3f.a(r2cb_20.o)
 .note.GNU-stack
                0x00000000        0x0 ../../fftw-3.3.4/.libs//libfftw3f.a(r2cb_25.o)
 .note.GNU-stack
                0x00000000        0x0 ../../fftw-3.3.4/.libs//libfftw3f.a(r2cb_3.o)
 .note.GNU-stack
                0x00000000        0x0 ../../fftw-3.3.4/.libs//libfftw3f.a(r2cb_32.o)
 .note.GNU-stack
                0x00000000        0x0 ../../fftw-3.3.4/.libs//libfftw3f.a(r2cb_4.o)
 .note.GNU-stack
                0x00000000        0x0 ../../fftw-3.3.4/.libs//libfftw3f.a(r2cb_5.o)
 .note.GNU-stack
                0x00000000        0x0 ../../fftw-3.3.4/.libs//libfftw3f.a(r2cb_6.o)
 .note.GNU-stack
                0x00000000        0x0 ../../fftw-3.3.4/.libs//libfftw3f.a(r2cb_64.o)
 .note.GNU-stack
                0x00000000        0x0 ../../fftw-3.3.4/.libs//libfftw3f.a(r2cb_7.o)
 .note.GNU-stack
                0x00000000        0x0 ../../fftw-3.3.4/.libs//libfftw3f.a(r2cb_8.o)
 .note.GNU-stack
                0x00000000        0x0 ../../fftw-3.3.4/.libs//libfftw3f.a(r2cb_9.o)
 .note.GNU-stack
                0x00000000        0x0 ../../fftw-3.3.4/.libs//libfftw3f.a(lt18-codlist.o)
 .note.GNU-stack
                0x00000000        0x0 ../../fftw-3.3.4/.libs//libfftw3f.a(e01_8.o)
 .note.GNU-stack
                0x00000000        0x0 ../../fftw-3.3.4/.libs//libfftw3f.a(e10_8.o)
 .note.GNU-stack
                0x00000000        0x0 ../../fftw-3.3.4/.libs//libfftw3f.a(lt19-conf.o)
 .note.GNU-stack
                0x00000000        0x0 ../../fftw-3.3.4/.libs//libfftw3f.a(redft00e-r2hc-pad.o)
 .note.GNU-stack
                0x00000000        0x0 ../../fftw-3.3.4/.libs//libfftw3f.a(reodft00e-splitradix.o)
 .note.GNU-stack
                0x00000000        0x0 ../../fftw-3.3.4/.libs//libfftw3f.a(reodft010e-r2hc.o)
 .note.GNU-stack
                0x00000000        0x0 ../../fftw-3.3.4/.libs//libfftw3f.a(reodft11e-r2hc-odd.o)
 .note.GNU-stack
                0x00000000        0x0 ../../fftw-3.3.4/.libs//libfftw3f.a(reodft11e-radix2.o)
 .note.GNU-stack
                0x00000000        0x0 ../../fftw-3.3.4/.libs//libfftw3f.a(rodft00e-r2hc-pad.o)
 .note.GNU-stack
                0x00000000        0x0 ../../fftw-3.3.4/.libs//libfftw3f.a(neon.o)
 .note.GNU-stack
                0x00000000        0x0 ../../fftw-3.3.4/.libs//libfftw3f.a(lt20-codlist.o)
 .note.GNU-stack
                0x00000000        0x0 ../../fftw-3.3.4/.libs//libfftw3f.a(n1bv_10.o)
 .note.GNU-stack
                0x00000000        0x0 ../../fftw-3.3.4/.libs//libfftw3f.a(n1bv_11.o)
 .note.GNU-stack
                0x00000000        0x0 ../../fftw-3.3.4/.libs//libfftw3f.a(n1bv_12.o)
 .note.GNU-stack
                0x00000000        0x0 ../../fftw-3.3.4/.libs//libfftw3f.a(n1bv_128.o)
 .note.GNU-stack
                0x00000000        0x0 ../../fftw-3.3.4/.libs//libfftw3f.a(n1bv_13.o)
 .note.GNU-stack
                0x00000000        0x0 ../../fftw-3.3.4/.libs//libfftw3f.a(n1bv_14.o)
 .note.GNU-stack
                0x00000000        0x0 ../../fftw-3.3.4/.libs//libfftw3f.a(n1bv_15.o)
 .note.GNU-stack
                0x00000000        0x0 ../../fftw-3.3.4/.libs//libfftw3f.a(n1bv_16.o)
 .note.GNU-stack
                0x00000000        0x0 ../../fftw-3.3.4/.libs//libfftw3f.a(n1bv_2.o)
 .note.GNU-stack
                0x00000000        0x0 ../../fftw-3.3.4/.libs//libfftw3f.a(n1bv_20.o)
 .note.GNU-stack
                0x00000000        0x0 ../../fftw-3.3.4/.libs//libfftw3f.a(n1bv_25.o)
 .note.GNU-stack
                0x00000000        0x0 ../../fftw-3.3.4/.libs//libfftw3f.a(n1bv_3.o)
 .note.GNU-stack
                0x00000000        0x0 ../../fftw-3.3.4/.libs//libfftw3f.a(n1bv_32.o)
 .note.GNU-stack
                0x00000000        0x0 ../../fftw-3.3.4/.libs//libfftw3f.a(n1bv_4.o)
 .note.GNU-stack
                0x00000000        0x0 ../../fftw-3.3.4/.libs//libfftw3f.a(n1bv_5.o)
 .note.GNU-stack
                0x00000000        0x0 ../../fftw-3.3.4/.libs//libfftw3f.a(n1bv_6.o)
 .note.GNU-stack
                0x00000000        0x0 ../../fftw-3.3.4/.libs//libfftw3f.a(n1bv_64.o)
 .note.GNU-stack
                0x00000000        0x0 ../../fftw-3.3.4/.libs//libfftw3f.a(n1bv_7.o)
 .note.GNU-stack
                0x00000000        0x0 ../../fftw-3.3.4/.libs//libfftw3f.a(n1bv_8.o)
 .note.GNU-stack
                0x00000000        0x0 ../../fftw-3.3.4/.libs//libfftw3f.a(n1bv_9.o)
 .note.GNU-stack
                0x00000000        0x0 ../../fftw-3.3.4/.libs//libfftw3f.a(n1fv_10.o)
 .note.GNU-stack
                0x00000000        0x0 ../../fftw-3.3.4/.libs//libfftw3f.a(n1fv_11.o)
 .note.GNU-stack
                0x00000000        0x0 ../../fftw-3.3.4/.libs//libfftw3f.a(n1fv_12.o)
 .note.GNU-stack
                0x00000000        0x0 ../../fftw-3.3.4/.libs//libfftw3f.a(n1fv_128.o)
 .note.GNU-stack
                0x00000000        0x0 ../../fftw-3.3.4/.libs//libfftw3f.a(n1fv_13.o)
 .note.GNU-stack
                0x00000000        0x0 ../../fftw-3.3.4/.libs//libfftw3f.a(n1fv_14.o)
 .note.GNU-stack
                0x00000000        0x0 ../../fftw-3.3.4/.libs//libfftw3f.a(n1fv_15.o)
 .note.GNU-stack
                0x00000000        0x0 ../../fftw-3.3.4/.libs//libfftw3f.a(n1fv_16.o)
 .note.GNU-stack
                0x00000000        0x0 ../../fftw-3.3.4/.libs//libfftw3f.a(n1fv_2.o)
 .note.GNU-stack
                0x00000000        0x0 ../../fftw-3.3.4/.libs//libfftw3f.a(n1fv_20.o)
 .note.GNU-stack
                0x00000000        0x0 ../../fftw-3.3.4/.libs//libfftw3f.a(n1fv_25.o)
 .note.GNU-stack
                0x00000000        0x0 ../../fftw-3.3.4/.libs//libfftw3f.a(n1fv_3.o)
 .note.GNU-stack
                0x00000000        0x0 ../../fftw-3.3.4/.libs//libfftw3f.a(n1fv_32.o)
 .note.GNU-stack
                0x00000000        0x0 ../../fftw-3.3.4/.libs//libfftw3f.a(n1fv_4.o)
 .note.GNU-stack
                0x00000000        0x0 ../../fftw-3.3.4/.libs//libfftw3f.a(n1fv_5.o)
 .note.GNU-stack
                0x00000000        0x0 ../../fftw-3.3.4/.libs//libfftw3f.a(n1fv_6.o)
 .note.GNU-stack
                0x00000000        0x0 ../../fftw-3.3.4/.libs//libfftw3f.a(n1fv_64.o)
 .note.GNU-stack
                0x00000000        0x0 ../../fftw-3.3.4/.libs//libfftw3f.a(n1fv_7.o)
 .note.GNU-stack
                0x00000000        0x0 ../../fftw-3.3.4/.libs//libfftw3f.a(n1fv_8.o)
 .note.GNU-stack
                0x00000000        0x0 ../../fftw-3.3.4/.libs//libfftw3f.a(n1fv_9.o)
 .note.GNU-stack
                0x00000000        0x0 ../../fftw-3.3.4/.libs//libfftw3f.a(n2bv_10.o)
 .note.GNU-stack
                0x00000000        0x0 ../../fftw-3.3.4/.libs//libfftw3f.a(n2bv_12.o)
 .note.GNU-stack
                0x00000000        0x0 ../../fftw-3.3.4/.libs//libfftw3f.a(n2bv_14.o)
 .note.GNU-stack
                0x00000000        0x0 ../../fftw-3.3.4/.libs//libfftw3f.a(n2bv_16.o)
 .note.GNU-stack
                0x00000000        0x0 ../../fftw-3.3.4/.libs//libfftw3f.a(n2bv_2.o)
 .note.GNU-stack
                0x00000000        0x0 ../../fftw-3.3.4/.libs//libfftw3f.a(n2bv_20.o)
 .note.GNU-stack
                0x00000000        0x0 ../../fftw-3.3.4/.libs//libfftw3f.a(n2bv_32.o)
 .note.GNU-stack
                0x00000000        0x0 ../../fftw-3.3.4/.libs//libfftw3f.a(n2bv_4.o)
 .note.GNU-stack
                0x00000000        0x0 ../../fftw-3.3.4/.libs//libfftw3f.a(n2bv_6.o)
 .note.GNU-stack
                0x00000000        0x0 ../../fftw-3.3.4/.libs//libfftw3f.a(n2bv_64.o)
 .note.GNU-stack
                0x00000000        0x0 ../../fftw-3.3.4/.libs//libfftw3f.a(n2bv_8.o)
 .note.GNU-stack
                0x00000000        0x0 ../../fftw-3.3.4/.libs//libfftw3f.a(n2fv_10.o)
 .note.GNU-stack
                0x00000000        0x0 ../../fftw-3.3.4/.libs//libfftw3f.a(n2fv_12.o)
 .note.GNU-stack
                0x00000000        0x0 ../../fftw-3.3.4/.libs//libfftw3f.a(n2fv_14.o)
 .note.GNU-stack
                0x00000000        0x0 ../../fftw-3.3.4/.libs//libfftw3f.a(n2fv_16.o)
 .note.GNU-stack
                0x00000000        0x0 ../../fftw-3.3.4/.libs//libfftw3f.a(n2fv_2.o)
 .note.GNU-stack
                0x00000000        0x0 ../../fftw-3.3.4/.libs//libfftw3f.a(n2fv_20.o)
 .note.GNU-stack
                0x00000000        0x0 ../../fftw-3.3.4/.libs//libfftw3f.a(n2fv_32.o)
 .note.GNU-stack
                0x00000000        0x0 ../../fftw-3.3.4/.libs//libfftw3f.a(n2fv_4.o)
 .note.GNU-stack
                0x00000000        0x0 ../../fftw-3.3.4/.libs//libfftw3f.a(n2fv_6.o)
 .note.GNU-stack
                0x00000000        0x0 ../../fftw-3.3.4/.libs//libfftw3f.a(n2fv_64.o)
 .note.GNU-stack
                0x00000000        0x0 ../../fftw-3.3.4/.libs//libfftw3f.a(n2fv_8.o)
 .note.GNU-stack
                0x00000000        0x0 ../../fftw-3.3.4/.libs//libfftw3f.a(n2sv_16.o)
 .note.GNU-stack
                0x00000000        0x0 ../../fftw-3.3.4/.libs//libfftw3f.a(n2sv_32.o)
 .note.GNU-stack
                0x00000000        0x0 ../../fftw-3.3.4/.libs//libfftw3f.a(n2sv_4.o)
 .note.GNU-stack
                0x00000000        0x0 ../../fftw-3.3.4/.libs//libfftw3f.a(n2sv_64.o)
 .note.GNU-stack
                0x00000000        0x0 ../../fftw-3.3.4/.libs//libfftw3f.a(n2sv_8.o)
 .note.GNU-stack
                0x00000000        0x0 ../../fftw-3.3.4/.libs//libfftw3f.a(q1bv_2.o)
 .note.GNU-stack
                0x00000000        0x0 ../../fftw-3.3.4/.libs//libfftw3f.a(q1bv_4.o)
 .note.GNU-stack
                0x00000000        0x0 ../../fftw-3.3.4/.libs//libfftw3f.a(q1bv_5.o)
 .note.GNU-stack
                0x00000000        0x0 ../../fftw-3.3.4/.libs//libfftw3f.a(q1bv_8.o)
 .note.GNU-stack
                0x00000000        0x0 ../../fftw-3.3.4/.libs//libfftw3f.a(q1fv_2.o)
 .note.GNU-stack
                0x00000000        0x0 ../../fftw-3.3.4/.libs//libfftw3f.a(q1fv_4.o)
 .note.GNU-stack
                0x00000000        0x0 ../../fftw-3.3.4/.libs//libfftw3f.a(q1fv_5.o)
 .note.GNU-stack
                0x00000000        0x0 ../../fftw-3.3.4/.libs//libfftw3f.a(q1fv_8.o)
 .note.GNU-stack
                0x00000000        0x0 ../../fftw-3.3.4/.libs//libfftw3f.a(t1buv_10.o)
 .note.GNU-stack
                0x00000000        0x0 ../../fftw-3.3.4/.libs//libfftw3f.a(t1buv_2.o)
 .note.GNU-stack
                0x00000000        0x0 ../../fftw-3.3.4/.libs//libfftw3f.a(t1buv_3.o)
 .note.GNU-stack
                0x00000000        0x0 ../../fftw-3.3.4/.libs//libfftw3f.a(t1buv_4.o)
 .note.GNU-stack
                0x00000000        0x0 ../../fftw-3.3.4/.libs//libfftw3f.a(t1buv_5.o)
 .note.GNU-stack
                0x00000000        0x0 ../../fftw-3.3.4/.libs//libfftw3f.a(t1buv_6.o)
 .note.GNU-stack
                0x00000000        0x0 ../../fftw-3.3.4/.libs//libfftw3f.a(t1buv_7.o)
 .note.GNU-stack
                0x00000000        0x0 ../../fftw-3.3.4/.libs//libfftw3f.a(t1buv_8.o)
 .note.GNU-stack
                0x00000000        0x0 ../../fftw-3.3.4/.libs//libfftw3f.a(t1buv_9.o)
 .note.GNU-stack
                0x00000000        0x0 ../../fftw-3.3.4/.libs//libfftw3f.a(t1bv_10.o)
 .note.GNU-stack
                0x00000000        0x0 ../../fftw-3.3.4/.libs//libfftw3f.a(t1bv_12.o)
 .note.GNU-stack
                0x00000000        0x0 ../../fftw-3.3.4/.libs//libfftw3f.a(t1bv_15.o)
 .note.GNU-stack
                0x00000000        0x0 ../../fftw-3.3.4/.libs//libfftw3f.a(t1bv_16.o)
 .note.GNU-stack
                0x00000000        0x0 ../../fftw-3.3.4/.libs//libfftw3f.a(t1bv_2.o)
 .note.GNU-stack
                0x00000000        0x0 ../../fftw-3.3.4/.libs//libfftw3f.a(t1bv_20.o)
 .note.GNU-stack
                0x00000000        0x0 ../../fftw-3.3.4/.libs//libfftw3f.a(t1bv_25.o)
 .note.GNU-stack
                0x00000000        0x0 ../../fftw-3.3.4/.libs//libfftw3f.a(t1bv_3.o)
 .note.GNU-stack
                0x00000000        0x0 ../../fftw-3.3.4/.libs//libfftw3f.a(t1bv_32.o)
 .note.GNU-stack
                0x00000000        0x0 ../../fftw-3.3.4/.libs//libfftw3f.a(t1bv_4.o)
 .note.GNU-stack
                0x00000000        0x0 ../../fftw-3.3.4/.libs//libfftw3f.a(t1bv_5.o)
 .note.GNU-stack
                0x00000000        0x0 ../../fftw-3.3.4/.libs//libfftw3f.a(t1bv_6.o)
 .note.GNU-stack
                0x00000000        0x0 ../../fftw-3.3.4/.libs//libfftw3f.a(t1bv_64.o)
 .note.GNU-stack
                0x00000000        0x0 ../../fftw-3.3.4/.libs//libfftw3f.a(t1bv_7.o)
 .note.GNU-stack
                0x00000000        0x0 ../../fftw-3.3.4/.libs//libfftw3f.a(t1bv_8.o)
 .note.GNU-stack
                0x00000000        0x0 ../../fftw-3.3.4/.libs//libfftw3f.a(t1bv_9.o)
 .note.GNU-stack
                0x00000000        0x0 ../../fftw-3.3.4/.libs//libfftw3f.a(t1fuv_10.o)
 .note.GNU-stack
                0x00000000        0x0 ../../fftw-3.3.4/.libs//libfftw3f.a(t1fuv_2.o)
 .note.GNU-stack
                0x00000000        0x0 ../../fftw-3.3.4/.libs//libfftw3f.a(t1fuv_3.o)
 .note.GNU-stack
                0x00000000        0x0 ../../fftw-3.3.4/.libs//libfftw3f.a(t1fuv_4.o)
 .note.GNU-stack
                0x00000000        0x0 ../../fftw-3.3.4/.libs//libfftw3f.a(t1fuv_5.o)
 .note.GNU-stack
                0x00000000        0x0 ../../fftw-3.3.4/.libs//libfftw3f.a(t1fuv_6.o)
 .note.GNU-stack
                0x00000000        0x0 ../../fftw-3.3.4/.libs//libfftw3f.a(t1fuv_7.o)
 .note.GNU-stack
                0x00000000        0x0 ../../fftw-3.3.4/.libs//libfftw3f.a(t1fuv_8.o)
 .note.GNU-stack
                0x00000000        0x0 ../../fftw-3.3.4/.libs//libfftw3f.a(t1fuv_9.o)
 .note.GNU-stack
                0x00000000        0x0 ../../fftw-3.3.4/.libs//libfftw3f.a(t1fv_10.o)
 .note.GNU-stack
                0x00000000        0x0 ../../fftw-3.3.4/.libs//libfftw3f.a(t1fv_12.o)
 .note.GNU-stack
                0x00000000        0x0 ../../fftw-3.3.4/.libs//libfftw3f.a(t1fv_15.o)
 .note.GNU-stack
                0x00000000        0x0 ../../fftw-3.3.4/.libs//libfftw3f.a(t1fv_16.o)
 .note.GNU-stack
                0x00000000        0x0 ../../fftw-3.3.4/.libs//libfftw3f.a(t1fv_2.o)
 .note.GNU-stack
                0x00000000        0x0 ../../fftw-3.3.4/.libs//libfftw3f.a(t1fv_20.o)
 .note.GNU-stack
                0x00000000        0x0 ../../fftw-3.3.4/.libs//libfftw3f.a(t1fv_25.o)
 .note.GNU-stack
                0x00000000        0x0 ../../fftw-3.3.4/.libs//libfftw3f.a(t1fv_3.o)
 .note.GNU-stack
                0x00000000        0x0 ../../fftw-3.3.4/.libs//libfftw3f.a(t1fv_32.o)
 .note.GNU-stack
                0x00000000        0x0 ../../fftw-3.3.4/.libs//libfftw3f.a(t1fv_4.o)
 .note.GNU-stack
                0x00000000        0x0 ../../fftw-3.3.4/.libs//libfftw3f.a(t1fv_5.o)
 .note.GNU-stack
                0x00000000        0x0 ../../fftw-3.3.4/.libs//libfftw3f.a(t1fv_6.o)
 .note.GNU-stack
                0x00000000        0x0 ../../fftw-3.3.4/.libs//libfftw3f.a(t1fv_64.o)
 .note.GNU-stack
                0x00000000        0x0 ../../fftw-3.3.4/.libs//libfftw3f.a(t1fv_7.o)
 .note.GNU-stack
                0x00000000        0x0 ../../fftw-3.3.4/.libs//libfftw3f.a(t1fv_8.o)
 .note.GNU-stack
                0x00000000        0x0 ../../fftw-3.3.4/.libs//libfftw3f.a(t1fv_9.o)
 .note.GNU-stack
                0x00000000        0x0 ../../fftw-3.3.4/.libs//libfftw3f.a(t1sv_16.o)
 .note.GNU-stack
                0x00000000        0x0 ../../fftw-3.3.4/.libs//libfftw3f.a(t1sv_2.o)
 .note.GNU-stack
                0x00000000        0x0 ../../fftw-3.3.4/.libs//libfftw3f.a(t1sv_32.o)
 .note.GNU-stack
                0x00000000        0x0 ../../fftw-3.3.4/.libs//libfftw3f.a(t1sv_4.o)
 .note.GNU-stack
                0x00000000        0x0 ../../fftw-3.3.4/.libs//libfftw3f.a(t1sv_8.o)
 .note.GNU-stack
                0x00000000        0x0 ../../fftw-3.3.4/.libs//libfftw3f.a(t2bv_10.o)
 .note.GNU-stack
                0x00000000        0x0 ../../fftw-3.3.4/.libs//libfftw3f.a(t2bv_16.o)
 .note.GNU-stack
                0x00000000        0x0 ../../fftw-3.3.4/.libs//libfftw3f.a(t2bv_2.o)
 .note.GNU-stack
                0x00000000        0x0 ../../fftw-3.3.4/.libs//libfftw3f.a(t2bv_20.o)
 .note.GNU-stack
                0x00000000        0x0 ../../fftw-3.3.4/.libs//libfftw3f.a(t2bv_25.o)
 .note.GNU-stack
                0x00000000        0x0 ../../fftw-3.3.4/.libs//libfftw3f.a(t2bv_32.o)
 .note.GNU-stack
                0x00000000        0x0 ../../fftw-3.3.4/.libs//libfftw3f.a(t2bv_4.o)
 .note.GNU-stack
                0x00000000        0x0 ../../fftw-3.3.4/.libs//libfftw3f.a(t2bv_5.o)
 .note.GNU-stack
                0x00000000        0x0 ../../fftw-3.3.4/.libs//libfftw3f.a(t2bv_64.o)
 .note.GNU-stack
                0x00000000        0x0 ../../fftw-3.3.4/.libs//libfftw3f.a(t2bv_8.o)
 .note.GNU-stack
                0x00000000        0x0 ../../fftw-3.3.4/.libs//libfftw3f.a(t2fv_10.o)
 .note.GNU-stack
                0x00000000        0x0 ../../fftw-3.3.4/.libs//libfftw3f.a(t2fv_16.o)
 .note.GNU-stack
                0x00000000        0x0 ../../fftw-3.3.4/.libs//libfftw3f.a(t2fv_2.o)
 .note.GNU-stack
                0x00000000        0x0 ../../fftw-3.3.4/.libs//libfftw3f.a(t2fv_20.o)
 .note.GNU-stack
                0x00000000        0x0 ../../fftw-3.3.4/.libs//libfftw3f.a(t2fv_25.o)
 .note.GNU-stack
                0x00000000        0x0 ../../fftw-3.3.4/.libs//libfftw3f.a(t2fv_32.o)
 .note.GNU-stack
                0x00000000        0x0 ../../fftw-3.3.4/.libs//libfftw3f.a(t2fv_4.o)
 .note.GNU-stack
                0x00000000        0x0 ../../fftw-3.3.4/.libs//libfftw3f.a(t2fv_5.o)
 .note.GNU-stack
                0x00000000        0x0 ../../fftw-3.3.4/.libs//libfftw3f.a(t2fv_64.o)
 .note.GNU-stack
                0x00000000        0x0 ../../fftw-3.3.4/.libs//libfftw3f.a(t2fv_8.o)
 .note.GNU-stack
                0x00000000        0x0 ../../fftw-3.3.4/.libs//libfftw3f.a(t2sv_16.o)
 .note.GNU-stack
                0x00000000        0x0 ../../fftw-3.3.4/.libs//libfftw3f.a(t2sv_32.o)
 .note.GNU-stack
                0x00000000        0x0 ../../fftw-3.3.4/.libs//libfftw3f.a(t2sv_4.o)
 .note.GNU-stack
                0x00000000        0x0 ../../fftw-3.3.4/.libs//libfftw3f.a(t2sv_8.o)
 .note.GNU-stack
                0x00000000        0x0 ../../fftw-3.3.4/.libs//libfftw3f.a(t3bv_10.o)
 .note.GNU-stack
                0x00000000        0x0 ../../fftw-3.3.4/.libs//libfftw3f.a(t3bv_16.o)
 .note.GNU-stack
                0x00000000        0x0 ../../fftw-3.3.4/.libs//libfftw3f.a(t3bv_20.o)
 .note.GNU-stack
                0x00000000        0x0 ../../fftw-3.3.4/.libs//libfftw3f.a(t3bv_25.o)
 .note.GNU-stack
                0x00000000        0x0 ../../fftw-3.3.4/.libs//libfftw3f.a(t3bv_32.o)
 .note.GNU-stack
                0x00000000        0x0 ../../fftw-3.3.4/.libs//libfftw3f.a(t3bv_4.o)
 .note.GNU-stack
                0x00000000        0x0 ../../fftw-3.3.4/.libs//libfftw3f.a(t3bv_5.o)
 .note.GNU-stack
                0x00000000        0x0 ../../fftw-3.3.4/.libs//libfftw3f.a(t3bv_8.o)
 .note.GNU-stack
                0x00000000        0x0 ../../fftw-3.3.4/.libs//libfftw3f.a(t3fv_10.o)
 .note.GNU-stack
                0x00000000        0x0 ../../fftw-3.3.4/.libs//libfftw3f.a(t3fv_16.o)
 .note.GNU-stack
                0x00000000        0x0 ../../fftw-3.3.4/.libs//libfftw3f.a(t3fv_20.o)
 .note.GNU-stack
                0x00000000        0x0 ../../fftw-3.3.4/.libs//libfftw3f.a(t3fv_25.o)
 .note.GNU-stack
                0x00000000        0x0 ../../fftw-3.3.4/.libs//libfftw3f.a(t3fv_32.o)
 .note.GNU-stack
                0x00000000        0x0 ../../fftw-3.3.4/.libs//libfftw3f.a(t3fv_4.o)
 .note.GNU-stack
                0x00000000        0x0 ../../fftw-3.3.4/.libs//libfftw3f.a(t3fv_5.o)
 .note.GNU-stack
                0x00000000        0x0 ../../fftw-3.3.4/.libs//libfftw3f.a(t3fv_8.o)
 .note.GNU-stack
                0x00000000        0x0 ../../fftw-3.3.4/.libs//libfftw3f.a(lt21-codlist.o)
 .note.GNU-stack
                0x00000000        0x0 ../../fftw-3.3.4/.libs//libfftw3f.a(hc2cbdftv_10.o)
 .note.GNU-stack
                0x00000000        0x0 ../../fftw-3.3.4/.libs//libfftw3f.a(hc2cbdftv_12.o)
 .note.GNU-stack
                0x00000000        0x0 ../../fftw-3.3.4/.libs//libfftw3f.a(hc2cbdftv_16.o)
 .note.GNU-stack
                0x00000000        0x0 ../../fftw-3.3.4/.libs//libfftw3f.a(hc2cbdftv_2.o)
 .note.GNU-stack
                0x00000000        0x0 ../../fftw-3.3.4/.libs//libfftw3f.a(hc2cbdftv_20.o)
 .note.GNU-stack
                0x00000000        0x0 ../../fftw-3.3.4/.libs//libfftw3f.a(hc2cbdftv_32.o)
 .note.GNU-stack
                0x00000000        0x0 ../../fftw-3.3.4/.libs//libfftw3f.a(hc2cbdftv_4.o)
 .note.GNU-stack
                0x00000000        0x0 ../../fftw-3.3.4/.libs//libfftw3f.a(hc2cbdftv_6.o)
 .note.GNU-stack
                0x00000000        0x0 ../../fftw-3.3.4/.libs//libfftw3f.a(hc2cbdftv_8.o)
 .note.GNU-stack
                0x00000000        0x0 ../../fftw-3.3.4/.libs//libfftw3f.a(hc2cfdftv_10.o)
 .note.GNU-stack
                0x00000000        0x0 ../../fftw-3.3.4/.libs//libfftw3f.a(hc2cfdftv_12.o)
 .note.GNU-stack
                0x00000000        0x0 ../../fftw-3.3.4/.libs//libfftw3f.a(hc2cfdftv_16.o)
 .note.GNU-stack
                0x00000000        0x0 ../../fftw-3.3.4/.libs//libfftw3f.a(hc2cfdftv_2.o)
 .note.GNU-stack
                0x00000000        0x0 ../../fftw-3.3.4/.libs//libfftw3f.a(hc2cfdftv_20.o)
 .note.GNU-stack
                0x00000000        0x0 ../../fftw-3.3.4/.libs//libfftw3f.a(hc2cfdftv_32.o)
 .note.GNU-stack
                0x00000000        0x0 ../../fftw-3.3.4/.libs//libfftw3f.a(hc2cfdftv_4.o)
 .note.GNU-stack
                0x00000000        0x0 ../../fftw-3.3.4/.libs//libfftw3f.a(hc2cfdftv_6.o)
 .note.GNU-stack
                0x00000000        0x0 ../../fftw-3.3.4/.libs//libfftw3f.a(hc2cfdftv_8.o)
 .note.GNU-stack
                0x00000000        0x0 ../../fftw-3.3.4/.libs//libfftw3f.a(awake.o)
 .note.GNU-stack
                0x00000000        0x0 ../../fftw-3.3.4/.libs//libfftw3f.a(buffered.o)
 .note.GNU-stack
                0x00000000        0x0 ../../fftw-3.3.4/.libs//libfftw3f.a(cpy1d.o)
 .note.GNU-stack
                0x00000000        0x0 ../../fftw-3.3.4/.libs//libfftw3f.a(cpy2d-pair.o)
 .note.GNU-stack
                0x00000000        0x0 ../../fftw-3.3.4/.libs//libfftw3f.a(cpy2d.o)
 .note.GNU-stack
                0x00000000        0x0 ../../fftw-3.3.4/.libs//libfftw3f.a(iabs.o)
 .note.GNU-stack
                0x00000000        0x0 ../../fftw-3.3.4/.libs//libfftw3f.a(minmax.o)
 .note.GNU-stack
                0x00000000        0x0 ../../fftw-3.3.4/.libs//libfftw3f.a(pickdim.o)
 .note.GNU-stack
                0x00000000        0x0 ../../fftw-3.3.4/.libs//libfftw3f.a(rader.o)
 .note.GNU-stack
                0x00000000        0x0 ../../fftw-3.3.4/.libs//libfftw3f.a(solvtab.o)
 .note.GNU-stack
                0x00000000        0x0 ../../fftw-3.3.4/.libs//libfftw3f.a(stride.o)
 .note.GNU-stack
                0x00000000        0x0 ../../fftw-3.3.4/.libs//libfftw3f.a(tensor2.o)
 .note.GNU-stack
                0x00000000        0x0 ../../fftw-3.3.4/.libs//libfftw3f.a(tensor4.o)
 .note.GNU-stack
                0x00000000        0x0 ../../fftw-3.3.4/.libs//libfftw3f.a(tile2d.o)
 .note.GNU-stack
                0x00000000        0x0 ../../fftw-3.3.4/.libs//libfftw3f.a(transpose.o)
 .note.GNU-stack
                0x00000000        0x0 ../../fftw-3.3.4/.libs//libfftw3f.a(trig.o)
 .note.GNU-stack
                0x00000000        0x0 ../../fftw-3.3.4/.libs//libfftw3f.a(twiddle.o)
 .note.GNU-stack
                0x00000000        0x0 ../../fftw-3.3.4/.libs//libfftw3f.a(bluestein.o)
 .note.GNU-stack
                0x00000000        0x0 ../../fftw-3.3.4/.libs//libfftw3f.a(lt1-buffered.o)
 .note.GNU-stack
                0x00000000        0x0 ../../fftw-3.3.4/.libs//libfftw3f.a(lt2-ct.o)
 .note.GNU-stack
                0x00000000        0x0 ../../fftw-3.3.4/.libs//libfftw3f.a(kdft-difsq.o)
 .note.GNU-stack
                0x00000000        0x0 ../../fftw-3.3.4/.libs//libfftw3f.a(kdft-dit.o)
 .note.GNU-stack
                0x00000000        0x0 ../../fftw-3.3.4/.libs//libfftw3f.a(kdft.o)
 .note.GNU-stack
                0x00000000        0x0 ../../fftw-3.3.4/.libs//libfftw3f.a(n.o)
 .note.GNU-stack
                0x00000000        0x0 ../../fftw-3.3.4/.libs//libfftw3f.a(t.o)
 .note.GNU-stack
                0x00000000        0x0 ../../fftw-3.3.4/.libs//libfftw3f.a(lt6-buffered.o)
 .note.GNU-stack
                0x00000000        0x0 ../../fftw-3.3.4/.libs//libfftw3f.a(buffered2.o)
 .note.GNU-stack
                0x00000000        0x0 ../../fftw-3.3.4/.libs//libfftw3f.a(khc2c.o)
 .note.GNU-stack
                0x00000000        0x0 ../../fftw-3.3.4/.libs//libfftw3f.a(khc2hc.o)
 .note.GNU-stack
                0x00000000        0x0 ../../fftw-3.3.4/.libs//libfftw3f.a(kr2c.o)
 .note.GNU-stack
                0x00000000        0x0 ../../fftw-3.3.4/.libs//libfftw3f.a(kr2r.o)
 .note.GNU-stack
                0x00000000        0x0 ../../fftw-3.3.4/.libs//libfftw3f.a(hc2c.o)
 .note.GNU-stack
                0x00000000        0x0 ../../fftw-3.3.4/.libs//libfftw3f.a(hfb.o)
 .note.GNU-stack
                0x00000000        0x0 ../../fftw-3.3.4/.libs//libfftw3f.a(r2c.o)
 .note.GNU-stack
                0x00000000        0x0 ../../fftw-3.3.4/.libs//libfftw3f.a(r2r.o)
 .note.GNU-stack
                0x00000000        0x0 ../../fftw-3.3.4/.libs//libfftw3f.a(genus.o)
 .note.GNU-stack
                0x00000000        0x0 ../../fftw-3.3.4/.libs//libfftw3f.a(lt22-genus.o)
 .note.GNU-stack
                0x00000000        0x0 ../../fftw-3.3.4/.libs//libfftw3f.a(dftw-direct.o)
 .note.GNU-stack
                0x00000000        0x0 ../../fftw-3.3.4/.libs//libfftw3f.a(dftw-directsq.o)
 .note.GNU-stack
                0x00000000        0x0 ../../fftw-3.3.4/.libs//libfftw3f.a(direct.o)
 .note.GNU-stack
                0x00000000        0x0 ../../fftw-3.3.4/.libs//libfftw3f.a(ct-hc2c-direct.o)
 .note.GNU-stack
                0x00000000        0x0 ../../fftw-3.3.4/.libs//libfftw3f.a(ct-hc2c.o)
 .note.GNU-stack
                0x00000000        0x0 ../../fftw-3.3.4/.libs//libfftw3f.a(direct-r2c.o)
 .note.GNU-stack
                0x00000000        0x0 ../../fftw-3.3.4/.libs//libfftw3f.a(direct-r2r.o)
 .note.GNU-stack
                0x00000000        0x0 ../../fftw-3.3.4/.libs//libfftw3f.a(direct2.o)
 .note.GNU-stack
                0x00000000        0x0 ../../fftw-3.3.4/.libs//libfftw3f.a(hc2hc-direct.o)
 .note.GNU-stack
                0x00000000        0x0 ../../fftw-3.3.4/.libs//libfftw3f.a(ct.o)
 .note.GNU-stack
                0x00000000        0x0 /opt/ti-sdk-am335x-evm-07.00.00.00/linux-devkit/sysroots/i686-arago-linux/usr/bin/../lib/gcc/arm-linux-gnueabihf/4.7.3/libgcc.a(_udivsi3.o)
 .note.GNU-stack
                0x00000000        0x0 /opt/ti-sdk-am335x-evm-07.00.00.00/linux-devkit/sysroots/i686-arago-linux/usr/bin/../lib/gcc/arm-linux-gnueabihf/4.7.3/libgcc.a(_divsi3.o)
 .note.GNU-stack
                0x00000000        0x0 /opt/ti-sdk-am335x-evm-07.00.00.00/linux-devkit/sysroots/i686-arago-linux/usr/bin/../lib/gcc/arm-linux-gnueabihf/4.7.3/libgcc.a(_arm_addsubdf3.o)
 .note.GNU-stack
                0x00000000        0x0 /opt/ti-sdk-am335x-evm-07.00.00.00/linux-devkit/sysroots/i686-arago-linux/usr/bin/../lib/gcc/arm-linux-gnueabihf/4.7.3/libgcc.a(_dvmd_lnx.o)
 .note.GNU-stack
                0x00000000        0x0 /opt/ti-sdk-am335x-evm-07.00.00.00/linux-devkit/sysroots/i686-arago-linux/usr/bin/../arm-linux-gnueabihf/libc/usr/lib/arm-linux-gnueabihf/4.7.3/./libc_nonshared.a(elf-init.oS)
 .note.GNU-stack
                0x00000000        0x0 /opt/ti-sdk-am335x-evm-07.00.00.00/linux-devkit/sysroots/i686-arago-linux/usr/bin/../lib/gcc/arm-linux-gnueabihf/4.7.3/crtend.o
 .note.GNU-stack
                0x00000000        0x0 /opt/ti-sdk-am335x-evm-07.00.00.00/linux-devkit/sysroots/i686-arago-linux/usr/bin/../arm-linux-gnueabihf/libc/usr/lib/arm-linux-gnueabihf/4.7.3/crtn.o
 .gnu_debuglink
                0x00000000        0xc /opt/ti-sdk-am335x-evm-07.00.00.00/linux-devkit/sysroots/i686-arago-linux/usr/bin/../arm-linux-gnueabihf/libc/usr/lib/arm-linux-gnueabihf/4.7.3/crtn.o

Memory Configuration

Name             Origin             Length             Attributes
*default*        0x00000000         0xffffffff

Linker script and memory map

LOAD /opt/ti-sdk-am335x-evm-07.00.00.00/linux-devkit/sysroots/i686-arago-linux/usr/bin/../arm-linux-gnueabihf/libc/usr/lib/arm-linux-gnueabihf/4.7.3/crt1.o
LOAD /opt/ti-sdk-am335x-evm-07.00.00.00/linux-devkit/sysroots/i686-arago-linux/usr/bin/../arm-linux-gnueabihf/libc/usr/lib/arm-linux-gnueabihf/4.7.3/crti.o
LOAD /opt/ti-sdk-am335x-evm-07.00.00.00/linux-devkit/sysroots/i686-arago-linux/usr/bin/../lib/gcc/arm-linux-gnueabihf/4.7.3/crtbegin.o
LOAD release/main.o
LOAD release/mongoose.o
LOAD release/dt78xx_aio.o
LOAD release/dt78xx_misc.o
LOAD /opt/ti-sdk-am335x-evm-07.00.00.00/linux-devkit/sysroots/i686-arago-linux/usr/bin/../arm-linux-gnueabihf/libc/usr/lib/arm-linux-gnueabihf/4.7.3/libpthread.so
START GROUP
LOAD /opt/ti-sdk-am335x-evm-07.00.00.00/linux-devkit/sysroots/i686-arago-linux/usr/bin/../arm-linux-gnueabihf/libc/usr/lib/arm-linux-gnueabihf/4.7.3/../../lib/libpthread.so.0
LOAD /opt/ti-sdk-am335x-evm-07.00.00.00/linux-devkit/sysroots/i686-arago-linux/usr/bin/../arm-linux-gnueabihf/libc/usr/lib/arm-linux-gnueabihf/4.7.3/./libpthread_nonshared.a
END GROUP
LOAD /opt/ti-sdk-am335x-evm-07.00.00.00/linux-devkit/sysroots/i686-arago-linux/usr/bin/../arm-linux-gnueabihf/libc/usr/lib/arm-linux-gnueabihf/4.7.3/libm.so
LOAD ../../fftw-3.3.4/.libs//libfftw3f.a
LOAD /opt/ti-sdk-am335x-evm-07.00.00.00/linux-devkit/sysroots/i686-arago-linux/usr/bin/../lib/gcc/arm-linux-gnueabihf/4.7.3/libgcc.a
LOAD /opt/ti-sdk-am335x-evm-07.00.00.00/linux-devkit/sysroots/i686-arago-linux/usr/bin/../lib/gcc/arm-linux-gnueabihf/4.7.3/../../../../arm-linux-gnueabihf/lib/libgcc_s.so
START GROUP
LOAD /opt/ti-sdk-am335x-evm-07.00.00.00/linux-devkit/sysroots/i686-arago-linux/usr/bin/../lib/gcc/arm-linux-gnueabihf/4.7.3/../../../../arm-linux-gnueabihf/lib/libgcc_s.so.1
LOAD /opt/ti-sdk-am335x-evm-07.00.00.00/linux-devkit/sysroots/i686-arago-linux/usr/bin/../lib/gcc/arm-linux-gnueabihf/4.7.3/libgcc.a
END GROUP
LOAD /opt/ti-sdk-am335x-evm-07.00.00.00/linux-devkit/sysroots/i686-arago-linux/usr/bin/../arm-linux-gnueabihf/libc/usr/lib/arm-linux-gnueabihf/4.7.3/libc.so
START GROUP
LOAD /opt/ti-sdk-am335x-evm-07.00.00.00/linux-devkit/sysroots/i686-arago-linux/usr/bin/../arm-linux-gnueabihf/libc/usr/lib/arm-linux-gnueabihf/4.7.3/../../lib/libc.so.6
LOAD /opt/ti-sdk-am335x-evm-07.00.00.00/linux-devkit/sysroots/i686-arago-linux/usr/bin/../arm-linux-gnueabihf/libc/usr/lib/arm-linux-gnueabihf/4.7.3/./libc_nonshared.a
LOAD /opt/ti-sdk-am335x-evm-07.00.00.00/linux-devkit/sysroots/i686-arago-linux/usr/bin/../arm-linux-gnueabihf/libc/usr/lib/arm-linux-gnueabihf/4.7.3/../../lib/ld-linux-armhf.so.3
END GROUP
LOAD /opt/ti-sdk-am335x-evm-07.00.00.00/linux-devkit/sysroots/i686-arago-linux/usr/bin/../lib/gcc/arm-linux-gnueabihf/4.7.3/libgcc.a
LOAD /opt/ti-sdk-am335x-evm-07.00.00.00/linux-devkit/sysroots/i686-arago-linux/usr/bin/../lib/gcc/arm-linux-gnueabihf/4.7.3/../../../../arm-linux-gnueabihf/lib/libgcc_s.so
START GROUP
LOAD /opt/ti-sdk-am335x-evm-07.00.00.00/linux-devkit/sysroots/i686-arago-linux/usr/bin/../lib/gcc/arm-linux-gnueabihf/4.7.3/../../../../arm-linux-gnueabihf/lib/libgcc_s.so.1
LOAD /opt/ti-sdk-am335x-evm-07.00.00.00/linux-devkit/sysroots/i686-arago-linux/usr/bin/../lib/gcc/arm-linux-gnueabihf/4.7.3/libgcc.a
END GROUP
LOAD /opt/ti-sdk-am335x-evm-07.00.00.00/linux-devkit/sysroots/i686-arago-linux/usr/bin/../lib/gcc/arm-linux-gnueabihf/4.7.3/crtend.o
LOAD /opt/ti-sdk-am335x-evm-07.00.00.00/linux-devkit/sysroots/i686-arago-linux/usr/bin/../arm-linux-gnueabihf/libc/usr/lib/arm-linux-gnueabihf/4.7.3/crtn.o
                0x00008000                PROVIDE (__executable_start, 0x8000)
                0x00008134                . = (0x8000 + SIZEOF_HEADERS)

.interp         0x00008134       0x19
 *(.interp)
 .interp        0x00008134       0x19 /opt/ti-sdk-am335x-evm-07.00.00.00/linux-devkit/sysroots/i686-arago-linux/usr/bin/../arm-linux-gnueabihf/libc/usr/lib/arm-linux-gnueabihf/4.7.3/crt1.o

.note.ABI-tag   0x00008150       0x20
 .note.ABI-tag  0x00008150       0x20 /opt/ti-sdk-am335x-evm-07.00.00.00/linux-devkit/sysroots/i686-arago-linux/usr/bin/../arm-linux-gnueabihf/libc/usr/lib/arm-linux-gnueabihf/4.7.3/crt1.o

.note.gnu.build-id
                0x00008170       0x24
 *(.note.gnu.build-id)
 .note.gnu.build-id
                0x00008170       0x24 linker stubs

.hash
 *(.hash)

.gnu.hash       0x00008194      0x618
 *(.gnu.hash)
 .gnu.hash      0x00008194      0x618 /opt/ti-sdk-am335x-evm-07.00.00.00/linux-devkit/sysroots/i686-arago-linux/usr/bin/../arm-linux-gnueabihf/libc/usr/lib/arm-linux-gnueabihf/4.7.3/crt1.o

.dynsym         0x000087ac      0x7c0
 *(.dynsym)
 .dynsym        0x000087ac      0x7c0 /opt/ti-sdk-am335x-evm-07.00.00.00/linux-devkit/sysroots/i686-arago-linux/usr/bin/../arm-linux-gnueabihf/libc/usr/lib/arm-linux-gnueabihf/4.7.3/crt1.o

.dynstr         0x00008f6c      0x428
 *(.dynstr)
 .dynstr        0x00008f6c      0x428 /opt/ti-sdk-am335x-evm-07.00.00.00/linux-devkit/sysroots/i686-arago-linux/usr/bin/../arm-linux-gnueabihf/libc/usr/lib/arm-linux-gnueabihf/4.7.3/crt1.o

.gnu.version    0x00009394       0xf8
 *(.gnu.version)
 .gnu.version   0x00009394       0xf8 /opt/ti-sdk-am335x-evm-07.00.00.00/linux-devkit/sysroots/i686-arago-linux/usr/bin/../arm-linux-gnueabihf/libc/usr/lib/arm-linux-gnueabihf/4.7.3/crt1.o

.gnu.version_d  0x0000948c        0x0
 *(.gnu.version_d)
 .gnu.version_d
                0x00000000        0x0 /opt/ti-sdk-am335x-evm-07.00.00.00/linux-devkit/sysroots/i686-arago-linux/usr/bin/../arm-linux-gnueabihf/libc/usr/lib/arm-linux-gnueabihf/4.7.3/crt1.o

.gnu.version_r  0x0000948c       0x70
 *(.gnu.version_r)
 .gnu.version_r
                0x0000948c       0x70 /opt/ti-sdk-am335x-evm-07.00.00.00/linux-devkit/sysroots/i686-arago-linux/usr/bin/../arm-linux-gnueabihf/libc/usr/lib/arm-linux-gnueabihf/4.7.3/crt1.o

.rel.dyn        0x000094fc       0x30
 *(.rel.init)
 *(.rel.text .rel.text.* .rel.gnu.linkonce.t.*)
 *(.rel.fini)
 *(.rel.rodata .rel.rodata.* .rel.gnu.linkonce.r.*)
 *(.rel.data.rel.ro .rel.data.rel.ro.* .rel.gnu.linkonce.d.rel.ro.*)
 *(.rel.data .rel.data.* .rel.gnu.linkonce.d.*)
 *(.rel.tdata .rel.tdata.* .rel.gnu.linkonce.td.*)
 *(.rel.tbss .rel.tbss.* .rel.gnu.linkonce.tb.*)
 *(.rel.ctors)
 *(.rel.dtors)
 *(.rel.got)
 .rel.got       0x000094fc        0x8 /opt/ti-sdk-am335x-evm-07.00.00.00/linux-devkit/sysroots/i686-arago-linux/usr/bin/../arm-linux-gnueabihf/libc/usr/lib/arm-linux-gnueabihf/4.7.3/crt1.o
 *(.rel.bss .rel.bss.* .rel.gnu.linkonce.b.*)
 .rel.bss       0x00009504       0x28 /opt/ti-sdk-am335x-evm-07.00.00.00/linux-devkit/sysroots/i686-arago-linux/usr/bin/../arm-linux-gnueabihf/libc/usr/lib/arm-linux-gnueabihf/4.7.3/crt1.o
                0x0000952c                PROVIDE (__rel_iplt_start, .)
 *(.rel.iplt)
 .rel.iplt      0x00000000        0x0 /opt/ti-sdk-am335x-evm-07.00.00.00/linux-devkit/sysroots/i686-arago-linux/usr/bin/../arm-linux-gnueabihf/libc/usr/lib/arm-linux-gnueabihf/4.7.3/crt1.o
                0x0000952c                PROVIDE (__rel_iplt_end, .)
                0x0000952c                PROVIDE (__rela_iplt_start, .)
                0x0000952c                PROVIDE (__rela_iplt_end, .)

.rela.dyn       0x0000952c        0x0
 *(.rela.init)
 *(.rela.text .rela.text.* .rela.gnu.linkonce.t.*)
 *(.rela.fini)
 *(.rela.rodata .rela.rodata.* .rela.gnu.linkonce.r.*)
 *(.rela.data .rela.data.* .rela.gnu.linkonce.d.*)
 *(.rela.tdata .rela.tdata.* .rela.gnu.linkonce.td.*)
 *(.rela.tbss .rela.tbss.* .rela.gnu.linkonce.tb.*)
 *(.rela.ctors)
 *(.rela.dtors)
 *(.rela.got)
 *(.rela.bss .rela.bss.* .rela.gnu.linkonce.b.*)
                0x0000952c                PROVIDE (__rel_iplt_start, .)
                0x0000952c                PROVIDE (__rel_iplt_end, .)
                0x0000952c                PROVIDE (__rela_iplt_start, .)
 *(.rela.iplt)
                0x0000952c                PROVIDE (__rela_iplt_end, .)

.rel.plt        0x0000952c      0x3a8
 *(.rel.plt)
 .rel.plt       0x0000952c      0x3a8 /opt/ti-sdk-am335x-evm-07.00.00.00/linux-devkit/sysroots/i686-arago-linux/usr/bin/../arm-linux-gnueabihf/libc/usr/lib/arm-linux-gnueabihf/4.7.3/crt1.o

.rela.plt
 *(.rela.plt)

.init           0x000098d4        0xa
 *(SORT(.init))
 .init          0x000098d4        0x8 /opt/ti-sdk-am335x-evm-07.00.00.00/linux-devkit/sysroots/i686-arago-linux/usr/bin/../arm-linux-gnueabihf/libc/usr/lib/arm-linux-gnueabihf/4.7.3/crti.o
                0x000098d4                _init
 .init          0x000098dc        0x2 /opt/ti-sdk-am335x-evm-07.00.00.00/linux-devkit/sysroots/i686-arago-linux/usr/bin/../arm-linux-gnueabihf/libc/usr/lib/arm-linux-gnueabihf/4.7.3/crtn.o

.plt            0x000098e0      0x594
 *(.plt)
 .plt           0x000098e0      0x594 /opt/ti-sdk-am335x-evm-07.00.00.00/linux-devkit/sysroots/i686-arago-linux/usr/bin/../arm-linux-gnueabihf/libc/usr/lib/arm-linux-gnueabihf/4.7.3/crt1.o
                0x000098f4                calloc@@GLIBC_2.4
                0x00009900                raise@@GLIBC_2.4
                0x0000990c                log@@GLIBC_2.4
                0x00009918                getpwnam@@GLIBC_2.4
                0x00009924                setbuf@@GLIBC_2.4
                0x00009930                strcmp@@GLIBC_2.4
                0x0000993c                strtol@@GLIBC_2.4
                0x00009948                setsockopt@@GLIBC_2.4
                0x00009954                strcspn@@GLIBC_2.4
                0x00009960                memalign@@GLIBC_2.4
                0x0000996c                printf@@GLIBC_2.4
                0x00009978                pthread_attr_destroy@@GLIBC_2.4
                0x00009984                read@@GLIBC_2.4
                0x00009990                longjmp@@GLIBC_2.4
                0x0000999c                fflush@@GLIBC_2.4
                0x000099a8                _setjmp@@GLIBC_2.4
                0x000099b4                memmove@@GLIBC_2.4
                0x000099c0                free@@GLIBC_2.4
                0x000099cc                fgets@@GLIBC_2.4
                0x000099d8                memcpy@@GLIBC_2.4
                0x000099e4                signal@@GLIBC_2.4
                0x000099f0                time@@GLIBC_2.4
                0x000099fc                rmdir@@GLIBC_2.4
                0x00009a08                memcmp@@GLIBC_2.4
                0x00009a14                select@@GLIBC_2.4
                0x00009a20                sincos@@GLIBC_2.4
                0x00009a2c                strdup@@GLIBC_2.4
                0x00009a38                dup2@@GLIBC_2.4
                0x00009a44                realloc@@GLIBC_2.4
                0x00009a50                chdir@@GLIBC_2.4
                0x00009a5c                funlockfile@@GLIBC_2.4
                0x00009a68                perror@@GLIBC_2.4
                0x00009a74                accept@@GLIBC_2.4
                0x00009a80                sigaction@@GLIBC_2.4
                0x00009a8c                fwrite@@GLIBC_2.4
                0x00009a98                getsockopt@@GLIBC_2.4
                0x00009aa4                ioctl@@GLIBC_2.4
                0x00009ab0                lseek64@@GLIBC_2.4
                0x00009abc                strtoll@@GLIBC_2.4
                0x00009ac8                sqrtf@@GLIBC_2.4
                0x00009ad4                usleep@@GLIBC_2.4
                0x00009ae0                tcsetattr@@GLIBC_2.4
                0x00009aec                gettimeofday@@GLIBC_2.4
                0x00009af8                fread@@GLIBC_2.4
                0x00009b04                pthread_create@@GLIBC_2.4
                0x00009b10                daemon@@GLIBC_2.4
                0x00009b1c                opendir@@GLIBC_2.4
                0x00009b28                open64@@GLIBC_2.4
                0x00009b34                getenv@@GLIBC_2.4
                0x00009b40                setgid@@GLIBC_2.4
                0x00009b4c                malloc@@GLIBC_2.4
                0x00009b58                __libc_start_main@@GLIBC_2.4
                0x00009b64                strerror@@GLIBC_2.4
                0x00009b70                strftime@@GLIBC_2.4
                0x00009b7c                __sysv_signal@@GLIBC_2.4
                0x00009b88                localtime@@GLIBC_2.4
                0x00009b94                __ctype_tolower_loc@@GLIBC_2.4
                0x00009ba0                __ctype_toupper_loc@@GLIBC_2.4
                0x00009bbc                open@@GLIBC_2.4
                0x00009bc8                getopt_long@@GLIBC_2.4
                0x00009bd4                __ctype_b_loc@@GLIBC_2.4
                0x00009be0                getpid@@GLIBC_2.4
                0x00009bec                exit@@GLIBC_2.4
                0x00009bf8                syscall@@GLIBC_2.4
                0x00009c04                strlen@@GLIBC_2.4
                0x00009c10                strchr@@GLIBC_2.4
                0x00009c1c                fprintf@@GLIBC_2.4
                0x00009c28                fcntl@@GLIBC_2.4
                0x00009c34                pthread_attr_init@@GLIBC_2.4
                0x00009c40                __errno_location@@GLIBC_2.4
                0x00009c4c                snprintf@@GLIBC_2.4
                0x00009c58                __isoc99_sscanf@@GLIBC_2.7
                0x00009c64                mkdir@@GLIBC_2.4
                0x00009c70                bind@@GLIBC_2.4
                0x00009c7c                memset@@GLIBC_2.4
                0x00009c88                strncpy@@GLIBC_2.4
                0x00009c94                gmtime@@GLIBC_2.4
                0x00009ca0                fgetc@@GLIBC_2.4
                0x00009cac                write@@GLIBC_2.4
                0x00009cb8                fileno@@GLIBC_2.4
                0x00009cc4                memchr@@GLIBC_2.4
                0x00009cd0                fclose@@GLIBC_2.4
                0x00009cdc                log10f@@GLIBC_2.4
                0x00009ce8                sigemptyset@@GLIBC_2.4
                0x00009cf4                popen@@GLIBC_2.4
                0x00009d00                fork@@GLIBC_2.4
                0x00009d0c                execle@@GLIBC_2.4
                0x00009d18                strrchr@@GLIBC_2.4
                0x00009d24                listen@@GLIBC_2.4
                0x00009d30                fputc@@GLIBC_2.4
                0x00009d3c                setuid@@GLIBC_2.4
                0x00009d48                readdir64@@GLIBC_2.4
                0x00009d54                getsockname@@GLIBC_2.4
                0x00009d60                flockfile@@GLIBC_2.4
                0x00009d6c                remove@@GLIBC_2.4
                0x00009d78                vsnprintf@@GLIBC_2.4
                0x00009d84                fopen64@@GLIBC_2.4
                0x00009d90                qsort@@GLIBC_2.4
                0x00009d9c                getpeername@@GLIBC_2.4
                0x00009da8                inet_ntop@@GLIBC_2.4
                0x00009db4                socket@@GLIBC_2.4
                0x00009dc0                gethostbyname@@GLIBC_2.4
                0x00009dcc                __xstat64@@GLIBC_2.4
                0x00009dd8                pthread_attr_setdetachstate@@GLIBC_2.4
                0x00009de4                fputs@@GLIBC_2.4
                0x00009df0                abort@@GLIBC_2.4
                0x00009dfc                recv@@GLIBC_2.4
                0x00009e08                close@@GLIBC_2.4
                0x00009e14                send@@GLIBC_2.4
                0x00009e20                connect@@GLIBC_2.4
                0x00009e2c                closedir@@GLIBC_2.4
                0x00009e38                strspn@@GLIBC_2.4
                0x00009e44                __assert_fail@@GLIBC_2.4
                0x00009e50                cos@@GLIBC_2.4
                0x00009e5c                tcgetattr@@GLIBC_2.4
                0x00009e68                pclose@@GLIBC_2.4

.iplt           0x00009e74        0x0
 *(.iplt)
 .iplt          0x00000000        0x0 /opt/ti-sdk-am335x-evm-07.00.00.00/linux-devkit/sysroots/i686-arago-linux/usr/bin/../arm-linux-gnueabihf/libc/usr/lib/arm-linux-gnueabihf/4.7.3/crt1.o

.text           0x00009e78   0x162dd4
 *(.text.unlikely .text.*_unlikely)
 *(.text.exit .text.exit.*)
 *(.text.startup .text.startup.*)
 .text.startup  0x00009e78      0xac0 release/main.o
                0x00009e78                main
 *(.text.hot .text.hot.*)
 *(.text .stub .text.* .gnu.linkonce.t.*)
 .text          0x0000a938       0x38 /opt/ti-sdk-am335x-evm-07.00.00.00/linux-devkit/sysroots/i686-arago-linux/usr/bin/../arm-linux-gnueabihf/libc/usr/lib/arm-linux-gnueabihf/4.7.3/crt1.o
                0x0000a938                _start
 .text          0x0000a970       0x18 /opt/ti-sdk-am335x-evm-07.00.00.00/linux-devkit/sysroots/i686-arago-linux/usr/bin/../arm-linux-gnueabihf/libc/usr/lib/arm-linux-gnueabihf/4.7.3/crti.o
 .text          0x0000a988       0x88 /opt/ti-sdk-am335x-evm-07.00.00.00/linux-devkit/sysroots/i686-arago-linux/usr/bin/../lib/gcc/arm-linux-gnueabihf/4.7.3/crtbegin.o
 .text          0x0000aa10      0x1b8 release/main.o
 .text          0x0000abc8     0xdda8 release/mongoose.o
                0x0000e9d0                iobuf_init
                0x0000ea0c                iobuf_free
                0x0000ea40                iobuf_append
                0x0000eb20                iobuf_remove
                0x0000eb5c                ns_start_thread
                0x0000ebb0                ns_vprintf
                0x0000ecf4                ns_printf
                0x0000eedc                ns_set_close_on_exec
                0x0000eee8                ns_socketpair2
                0x0000f090                ns_socketpair
                0x0000f098                ns_set_ssl_ca_cert
                0x0000f0b8                ns_set_ssl_cert
                0x0000f0d8                ns_bind
                0x0000f298                ns_sock_to_str
                0x0000f37c                ns_hexdump
                0x0000f6d8                ns_send
                0x0000f7bc                ns_server_poll
                0x0000ff68                ns_connect
                0x000100bc                ns_add_sock
                0x00010144                ns_next
                0x00010154                ns_iterate
                0x00010188                ns_server_wakeup_ex
                0x00010228                ns_server_wakeup
                0x0001022c                ns_server_init
                0x000103b0                ns_server_free
                0x00010424                mg_start_thread
                0x00010478                mg_printf
                0x000105d4                mg_url_decode
                0x00011198                mg_get_header
                0x00011210                mg_match_prefix
                0x00011c54                mg_template
                0x00011e28                mg_write
                0x00011f20                mg_send_status
                0x000120cc                mg_send_header
                0x00012120                mg_send_data
                0x00012168                mg_printf_data
                0x00012248                mg_websocket_write
                0x00012434                mg_websocket_printf
                0x000124f4                mg_get_mime_type
                0x0001258c                mg_url_encode
                0x00012694                mg_md5
                0x000131cc                mg_parse_header
                0x000135b4                mg_authorize_digest
                0x000135cc                mg_send_file
                0x00017a64                mg_send_digest_auth_request
                0x00018038                mg_connect
                0x000180b8                mg_poll_server
                0x000180bc                mg_destroy_server
                0x00018168                mg_next
                0x00018198                mg_iterate_over_connections
                0x000181d8                mg_get_var
                0x0001824c                mg_parse_multipart
                0x000184c4                mg_get_valid_option_names
                0x000184d0                mg_set_option
                0x000186f4                mg_wakeup_server_ex
                0x00018800                mg_wakeup_server
                0x00018804                mg_set_listening_socket
                0x00018828                mg_get_listening_socket
                0x00018830                mg_get_option
                0x00018898                mg_create_server
 .text          0x00018970      0x9d8 release/dt78xx_aio.o
                0x00018970                aio_wait
                0x00018b78                aio_start
                0x00018c18                aio_stop
                0x00018d00                aio_buff_free
                0x00018d9c                aio_buff_alloc
                0x000190ac                aio_create
                0x0001916c                aio_destroy
                0x00019220                aio_buff_size
 .text          0x00019348      0x228 release/dt78xx_misc.o
                0x00019348                sigaction_register
                0x000193a4                file_sigaction_register
                0x00019480                kbhit
                0x00019530                kbfini
 .text          0x00019570      0x490 ../../fftw-3.3.4/.libs//libfftw3f.a(apiplan.o)
                0x00019570                fftwf_mkapiplan
                0x000199cc                fftwf_destroy_plan
 .text          0x00019a00       0x20 ../../fftw-3.3.4/.libs//libfftw3f.a(execute.o)
                0x00019a00                fftwf_execute
 .text          0x00019a20       0x18 ../../fftw-3.3.4/.libs//libfftw3f.a(malloc.o)
                0x00019a20                fftwf_malloc
                0x00019a24                fftwf_free
                0x00019a28                fftwf_alloc_real
                0x00019a30                fftwf_alloc_complex
 .text          0x00019a38      0x368 ../../fftw-3.3.4/.libs//libfftw3f.a(mapflags.o)
                0x00019a38                fftwf_mapflags
 .text          0x00019da0       0x34 ../../fftw-3.3.4/.libs//libfftw3f.a(plan-dft-r2c-1d.o)
                0x00019da0                fftwf_plan_dft_r2c_1d
 .text          0x00019dd4       0x48 ../../fftw-3.3.4/.libs//libfftw3f.a(plan-dft-r2c.o)
                0x00019dd4                fftwf_plan_dft_r2c
 .text          0x00019e1c      0x124 ../../fftw-3.3.4/.libs//libfftw3f.a(plan-many-dft-r2c.o)
                0x00019e1c                fftwf_plan_many_dft_r2c
 .text          0x00019f40       0x9c ../../fftw-3.3.4/.libs//libfftw3f.a(rdft2-pad.o)
                0x00019f40                fftwf_rdft2_pad
 .text          0x00019fdc       0x94 ../../fftw-3.3.4/.libs//libfftw3f.a(the-planner.o)
                0x00019fdc                fftwf_the_planner
                0x0001a008                fftwf_cleanup
                0x0001a030                fftwf_set_timelimit
 .text          0x0001a070       0x50 ../../fftw-3.3.4/.libs//libfftw3f.a(alloc.o)
                0x0001a070                fftwf_malloc_plain
                0x0001a0b0                fftwf_ifree
                0x0001a0b4                fftwf_ifree0
 .text          0x0001a0c0       0x4c ../../fftw-3.3.4/.libs//libfftw3f.a(assert.o)
                0x0001a0c0                fftwf_assertion_failed
 .text          0x0001a10c       0x1c ../../fftw-3.3.4/.libs//libfftw3f.a(extract-reim.o)
                0x0001a10c                fftwf_extract_reim
 .text          0x0001a128        0x8 ../../fftw-3.3.4/.libs//libfftw3f.a(kalloc.o)
                0x0001a128                fftwf_kernel_malloc
                0x0001a12c                fftwf_kernel_free
 .text          0x0001a130       0x84 ../../fftw-3.3.4/.libs//libfftw3f.a(plan.o)
                0x0001a130                fftwf_mkplan
                0x0001a168                fftwf_plan_destroy_internal
                0x0001a18c                fftwf_plan_null_destroy
                0x0001a190                fftwf_plan_awake
 .text          0x0001a1b4     0x18c8 ../../fftw-3.3.4/.libs//libfftw3f.a(planner.o)
                0x0001b7c4                fftwf_iestimate_cost
                0x0001b804                fftwf_mkplanner
                0x0001b954                fftwf_planner_destroy
                0x0001b9c4                fftwf_mkplan_d
                0x0001b9ec                fftwf_mkplan_f_d
 .text          0x0001ba7c      0x6c8 ../../fftw-3.3.4/.libs//libfftw3f.a(primes.o)
                0x0001ba7c                fftwf_safe_mulmod
                0x0001bae8                fftwf_power_mod
                0x0001bc2c                fftwf_find_generator
                0x0001bd50                fftwf_first_divisor
                0x0001bdd4                fftwf_is_prime
                0x0001be60                fftwf_next_prime
                0x0001beec                fftwf_factors_into
                0x0001bf54                fftwf_isqrt
                0x0001bf90                fftwf_choose_radix
                0x0001c0b4                fftwf_modulo
                0x0001c0e0                fftwf_factors_into_small_primes
 .text          0x0001c144       0x70 ../../fftw-3.3.4/.libs//libfftw3f.a(problem.o)
                0x0001c178                fftwf_mkproblem
                0x0001c18c                fftwf_problem_destroy
                0x0001c1a8                fftwf_mkproblem_unsolvable
 .text          0x0001c1b4       0x7c ../../fftw-3.3.4/.libs//libfftw3f.a(solver.o)
                0x0001c1b4                fftwf_mksolver
                0x0001c1d0                fftwf_solver_use
                0x0001c1e0                fftwf_solver_destroy
                0x0001c21c                fftwf_solver_register
 .text          0x0001c230       0x28 ../../fftw-3.3.4/.libs//libfftw3f.a(tensor1.o)
                0x0001c230                fftwf_mktensor_0d
                0x0001c238                fftwf_mktensor_1d
 .text          0x0001c258      0x280 ../../fftw-3.3.4/.libs//libfftw3f.a(timer.o)
                0x0001c258                fftwf_get_crude_time
                0x0001c288                fftwf_elapsed_since
                0x0001c300                fftwf_measure_execution_time
 .text          0x0001c4d8     0x1458 ../../fftw-3.3.4/.libs//libfftw3f.a(problem2.o)
                0x0001d6f8                fftwf_rdft2_complex_n
                0x0001d748                fftwf_mkproblem_rdft2
                0x0001d85c                fftwf_mkproblem_rdft2_d
                0x0001d8a0                fftwf_mkproblem_rdft2_d_3pointers
 .text          0x0001d930       0x20 ../../fftw-3.3.4/.libs//libfftw3f.a(configure.o)
                0x0001d930                fftwf_configure_planner
 .text          0x0001d950       0xfc ../../fftw-3.3.4/.libs//libfftw3f.a(mktensor-rowmajor.o)
                0x0001d950                fftwf_mktensor_rowmajor
                0x0001d9f4                fftwf_many_kosherp
 .text          0x0001da4c        0x8 ../../fftw-3.3.4/.libs//libfftw3f.a(align.o)
                0x0001da4c                fftwf_alignment_of
 .text          0x0001da54       0x24 ../../fftw-3.3.4/.libs//libfftw3f.a(hash.o)
                0x0001da54                fftwf_hash
 .text          0x0001da78      0x124 ../../fftw-3.3.4/.libs//libfftw3f.a(md5-1.o)
                0x0001da78                fftwf_md5putb
                0x0001daa8                fftwf_md5puts
                0x0001dad0                fftwf_md5int
                0x0001db14                fftwf_md5INT
                0x0001db58                fftwf_md5unsigned
 .text          0x0001db9c      0x46c ../../fftw-3.3.4/.libs//libfftw3f.a(md5.o)
                0x0001ddac                fftwf_md5begin
                0x0001dde4                fftwf_md5putc
                0x0001de0c                fftwf_md5end
 .text          0x0001e008      0x184 ../../fftw-3.3.4/.libs//libfftw3f.a(ops.o)
                0x0001e008                fftwf_ops_zero
                0x0001e024                fftwf_ops_cpy
                0x0001e048                fftwf_ops_other
                0x0001e06c                fftwf_ops_madd
                0x0001e0b8                fftwf_ops_add
                0x0001e0fc                fftwf_ops_add2
                0x0001e140                fftwf_ops_madd2
 .text          0x0001e18c      0x20c ../../fftw-3.3.4/.libs//libfftw3f.a(tensor.o)
                0x0001e18c                fftwf_mktensor
                0x0001e1bc                fftwf_tensor_destroy
                0x0001e1c0                fftwf_tensor_sz
                0x0001e218                fftwf_tensor_md5
                0x0001e288                fftwf_tensor_tornk1
                0x0001e2d0                fftwf_tensor_print
 .text          0x0001e398      0x304 ../../fftw-3.3.4/.libs//libfftw3f.a(tensor5.o)
                0x0001e398                fftwf_tensor_copy
                0x0001e3f0                fftwf_tensor_copy_inplace
                0x0001e4b4                fftwf_tensor_copy_except
                0x0001e56c                fftwf_tensor_copy_sub
                0x0001e5d4                fftwf_tensor_append
 .text          0x0001e69c      0x6a8 ../../fftw-3.3.4/.libs//libfftw3f.a(tensor7.o)
                0x0001e6d8                fftwf_dimcmp
                0x0001e9ec                fftwf_tensor_compress
                0x0001eaac                fftwf_tensor_compress_contiguous
                0x0001ead8                fftwf_tensor_split
                0x0001eb14                fftwf_tensor_equal
                0x0001ebd0                fftwf_tensor_inplace_locations
 .text          0x0001ed44       0x48 ../../fftw-3.3.4/.libs//libfftw3f.a(tensor8.o)
                0x0001ed44                fftwf_tensor_destroy2
                0x0001ed5c                fftwf_tensor_destroy4
 .text          0x0001ed8c       0x48 ../../fftw-3.3.4/.libs//libfftw3f.a(conf.o)
                0x0001ed8c                fftwf_dft_conf_standard
 .text          0x0001edd4      0x534 ../../fftw-3.3.4/.libs//libfftw3f.a(dftw-generic.o)
                0x0001f230                fftwf_ct_generic_register
 .text          0x0001f308      0x728 ../../fftw-3.3.4/.libs//libfftw3f.a(dftw-genericbuf.o)
                0x0001f810                fftwf_ct_genericbuf_register
 .text          0x0001fa30      0x3f4 ../../fftw-3.3.4/.libs//libfftw3f.a(generic.o)
                0x0001fdfc                fftwf_dft_generic_register
 .text          0x0001fe24      0x690 ../../fftw-3.3.4/.libs//libfftw3f.a(indirect-transpose.o)
                0x0002048c                fftwf_dft_indirect_transpose_register
 .text          0x000204b4      0x434 ../../fftw-3.3.4/.libs//libfftw3f.a(indirect.o)
                0x00020890                fftwf_dft_indirect_register
 .text          0x000208e8       0xbc ../../fftw-3.3.4/.libs//libfftw3f.a(nop.o)
                0x0002097c                fftwf_dft_nop_register
 .text          0x000209a4       0x14 ../../fftw-3.3.4/.libs//libfftw3f.a(lt3-plan.o)
                0x000209a4                fftwf_mkplan_dft
 .text          0x000209b8      0x2e8 ../../fftw-3.3.4/.libs//libfftw3f.a(lt4-problem.o)
                0x00020b74                fftwf_mkproblem_dft
                0x00020c00                fftwf_mkproblem_dft_d
 .text          0x00020ca0      0x914 ../../fftw-3.3.4/.libs//libfftw3f.a(lt5-rader.o)
                0x0002158c                fftwf_dft_rader_register
 .text          0x000215b4      0x394 ../../fftw-3.3.4/.libs//libfftw3f.a(rank-geq2.o)
                0x000218ac                fftwf_dft_rank_geq2_register
 .text          0x00021948       0x24 ../../fftw-3.3.4/.libs//libfftw3f.a(solve.o)
                0x00021948                fftwf_dft_solve
 .text          0x0002196c      0x38c ../../fftw-3.3.4/.libs//libfftw3f.a(vrank-geq1.o)
                0x00021c84                fftwf_dft_vrank_geq1_register
 .text          0x00021cf8      0x7b8 ../../fftw-3.3.4/.libs//libfftw3f.a(zero.o)
                0x00022498                fftwf_dft_zerotens
 .text          0x000224b0        0x0 ../../fftw-3.3.4/.libs//libfftw3f.a(codlist.o)
 .text          0x000224b0      0x4b4 ../../fftw-3.3.4/.libs//libfftw3f.a(n1_10.o)
                0x00022950                fftwf_codelet_n1_10
 .text          0x00022964      0x9e0 ../../fftw-3.3.4/.libs//libfftw3f.a(n1_11.o)
                0x00023330                fftwf_codelet_n1_11
 .text          0x00023344      0x564 ../../fftw-3.3.4/.libs//libfftw3f.a(n1_12.o)
                0x00023894                fftwf_codelet_n1_12
 .text          0x000238a8      0xa64 ../../fftw-3.3.4/.libs//libfftw3f.a(n1_13.o)
                0x000242f8                fftwf_codelet_n1_13
 .text          0x0002430c      0x9a4 ../../fftw-3.3.4/.libs//libfftw3f.a(n1_14.o)
                0x00024c9c                fftwf_codelet_n1_14
 .text          0x00024cb0      0x9d0 ../../fftw-3.3.4/.libs//libfftw3f.a(n1_15.o)
                0x0002566c                fftwf_codelet_n1_15
 .text          0x00025680      0x860 ../../fftw-3.3.4/.libs//libfftw3f.a(n1_16.o)
                0x00025ecc                fftwf_codelet_n1_16
 .text          0x00025ee0       0xa4 ../../fftw-3.3.4/.libs//libfftw3f.a(n1_2.o)
                0x00025f70                fftwf_codelet_n1_2
 .text          0x00025f84      0xd70 ../../fftw-3.3.4/.libs//libfftw3f.a(n1_20.o)
                0x00026ce0                fftwf_codelet_n1_20
 .text          0x00026cf4     0x1800 ../../fftw-3.3.4/.libs//libfftw3f.a(n1_25.o)
                0x000284e0                fftwf_codelet_n1_25
 .text          0x000284f4      0x108 ../../fftw-3.3.4/.libs//libfftw3f.a(n1_3.o)
                0x000285e8                fftwf_codelet_n1_3
 .text          0x000285fc     0x193c ../../fftw-3.3.4/.libs//libfftw3f.a(n1_32.o)
                0x00029f24                fftwf_codelet_n1_32
 .text          0x00029f38      0x150 ../../fftw-3.3.4/.libs//libfftw3f.a(n1_4.o)
                0x0002a074                fftwf_codelet_n1_4
 .text          0x0002a088      0x20c ../../fftw-3.3.4/.libs//libfftw3f.a(n1_5.o)
                0x0002a280                fftwf_codelet_n1_5
 .text          0x0002a294      0x24c ../../fftw-3.3.4/.libs//libfftw3f.a(n1_6.o)
                0x0002a4cc                fftwf_codelet_n1_6
 .text          0x0002a4e0     0x4570 ../../fftw-3.3.4/.libs//libfftw3f.a(n1_64.o)
                0x0002ea3c                fftwf_codelet_n1_64
 .text          0x0002ea50      0x378 ../../fftw-3.3.4/.libs//libfftw3f.a(n1_7.o)
                0x0002edb4                fftwf_codelet_n1_7
 .text          0x0002edc8      0x308 ../../fftw-3.3.4/.libs//libfftw3f.a(n1_8.o)
                0x0002f0bc                fftwf_codelet_n1_8
 .text          0x0002f0d0      0x4a0 ../../fftw-3.3.4/.libs//libfftw3f.a(n1_9.o)
                0x0002f55c                fftwf_codelet_n1_9
 .text          0x0002f570      0x144 ../../fftw-3.3.4/.libs//libfftw3f.a(q1_2.o)
                0x0002f6a0                fftwf_codelet_q1_2
 .text          0x0002f6b4      0x360 ../../fftw-3.3.4/.libs//libfftw3f.a(q1_3.o)
                0x0002fa00                fftwf_codelet_q1_3
 .text          0x0002fa14      0x700 ../../fftw-3.3.4/.libs//libfftw3f.a(q1_4.o)
                0x00030100                fftwf_codelet_q1_4
 .text          0x00030114      0xdc0 ../../fftw-3.3.4/.libs//libfftw3f.a(q1_5.o)
                0x00030ec0                fftwf_codelet_q1_5
 .text          0x00030ed4     0x15e4 ../../fftw-3.3.4/.libs//libfftw3f.a(q1_6.o)
                0x000324a4                fftwf_codelet_q1_6
 .text          0x000324b8     0x292c ../../fftw-3.3.4/.libs//libfftw3f.a(q1_8.o)
                0x00034dd0                fftwf_codelet_q1_8
 .text          0x00034de4      0x564 ../../fftw-3.3.4/.libs//libfftw3f.a(t1_10.o)
                0x00035334                fftwf_codelet_t1_10
 .text          0x00035348      0x644 ../../fftw-3.3.4/.libs//libfftw3f.a(t1_12.o)
                0x00035978                fftwf_codelet_t1_12
 .text          0x0003598c      0xb00 ../../fftw-3.3.4/.libs//libfftw3f.a(t1_15.o)
                0x00036478                fftwf_codelet_t1_15
 .text          0x0003648c      0xa68 ../../fftw-3.3.4/.libs//libfftw3f.a(t1_16.o)
                0x00036ee0                fftwf_codelet_t1_16
 .text          0x00036ef4       0xa8 ../../fftw-3.3.4/.libs//libfftw3f.a(t1_2.o)
                0x00036f88                fftwf_codelet_t1_2
 .text          0x00036f9c      0xf84 ../../fftw-3.3.4/.libs//libfftw3f.a(t1_20.o)
                0x00037f0c                fftwf_codelet_t1_20
 .text          0x00037f20     0x1a30 ../../fftw-3.3.4/.libs//libfftw3f.a(t1_25.o)
                0x0003993c                fftwf_codelet_t1_25
 .text          0x00039950      0x118 ../../fftw-3.3.4/.libs//libfftw3f.a(t1_3.o)
                0x00039a54                fftwf_codelet_t1_3
 .text          0x00039a68     0x1dc8 ../../fftw-3.3.4/.libs//libfftw3f.a(t1_32.o)
                0x0003b81c                fftwf_codelet_t1_32
 .text          0x0003b830      0x16c ../../fftw-3.3.4/.libs//libfftw3f.a(t1_4.o)
                0x0003b988                fftwf_codelet_t1_4
 .text          0x0003b99c      0x230 ../../fftw-3.3.4/.libs//libfftw3f.a(t1_5.o)
                0x0003bbb8                fftwf_codelet_t1_5
 .text          0x0003bbcc      0x290 ../../fftw-3.3.4/.libs//libfftw3f.a(t1_6.o)
                0x0003be48                fftwf_codelet_t1_6
 .text          0x0003be5c     0x4158 ../../fftw-3.3.4/.libs//libfftw3f.a(t1_64.o)
                0x0003ffa0                fftwf_codelet_t1_64
 .text          0x0003ffb4      0x3d8 ../../fftw-3.3.4/.libs//libfftw3f.a(t1_7.o)
                0x00040378                fftwf_codelet_t1_7
 .text          0x0004038c      0x36c ../../fftw-3.3.4/.libs//libfftw3f.a(t1_8.o)
                0x000406e4                fftwf_codelet_t1_8
 .text          0x000406f8      0x514 ../../fftw-3.3.4/.libs//libfftw3f.a(t1_9.o)
                0x00040bf8                fftwf_codelet_t1_9
 .text          0x00040c0c      0x590 ../../fftw-3.3.4/.libs//libfftw3f.a(t2_10.o)
                0x00041188                fftwf_codelet_t2_10
 .text          0x0004119c      0xb00 ../../fftw-3.3.4/.libs//libfftw3f.a(t2_16.o)
                0x00041c88                fftwf_codelet_t2_16
 .text          0x00041c9c      0xfd8 ../../fftw-3.3.4/.libs//libfftw3f.a(t2_20.o)
                0x00042c60                fftwf_codelet_t2_20
 .text          0x00042c74     0x1d88 ../../fftw-3.3.4/.libs//libfftw3f.a(t2_25.o)
                0x000449e8                fftwf_codelet_t2_25
 .text          0x000449fc     0x20a8 ../../fftw-3.3.4/.libs//libfftw3f.a(t2_32.o)
                0x00046a90                fftwf_codelet_t2_32
 .text          0x00046aa4      0x170 ../../fftw-3.3.4/.libs//libfftw3f.a(t2_4.o)
                0x00046c00                fftwf_codelet_t2_4
 .text          0x00046c14      0x240 ../../fftw-3.3.4/.libs//libfftw3f.a(t2_5.o)
                0x00046e40                fftwf_codelet_t2_5
 .text          0x00046e54     0x5c1c ../../fftw-3.3.4/.libs//libfftw3f.a(t2_64.o)
                0x0004ca5c                fftwf_codelet_t2_64
 .text          0x0004ca70      0x39c ../../fftw-3.3.4/.libs//libfftw3f.a(t2_8.o)
                0x0004cdf8                fftwf_codelet_t2_8
 .text          0x0004ce0c       0x68 ../../fftw-3.3.4/.libs//libfftw3f.a(lt7-conf.o)
                0x0004ce0c                fftwf_rdft_conf_standard
 *fill*         0x0004ce74        0x4 
 .text          0x0004ce78      0x3e8 ../../fftw-3.3.4/.libs//libfftw3f.a(dft-r2hc.o)
                0x0004d238                fftwf_dft_r2hc_register
 .text          0x0004d260      0x1f4 ../../fftw-3.3.4/.libs//libfftw3f.a(dht-r2hc.o)
                0x0004d42c                fftwf_dht_r2hc_register
 .text          0x0004d454      0xc20 ../../fftw-3.3.4/.libs//libfftw3f.a(dht-rader.o)
                0x0004e020                fftwf_dht_rader_register
 .text          0x0004e074      0x534 ../../fftw-3.3.4/.libs//libfftw3f.a(lt8-generic.o)
                0x0004e554                fftwf_rdft_generic_register
 .text          0x0004e5a8      0xa44 ../../fftw-3.3.4/.libs//libfftw3f.a(hc2hc-generic.o)
                0x0004ef90                fftwf_hc2hc_generic_register
 .text          0x0004efec      0x520 ../../fftw-3.3.4/.libs//libfftw3f.a(hc2hc.o)
                0x0004f420                fftwf_hc2hc_applicable
                0x0004f4d4                fftwf_mksolver_hc2hc
                0x0004f4f8                fftwf_mkplan_hc2hc
 .text          0x0004f50c      0x3b0 ../../fftw-3.3.4/.libs//libfftw3f.a(lt9-indirect.o)
                0x0004f864                fftwf_rdft_indirect_register
 .text          0x0004f8bc       0xbc ../../fftw-3.3.4/.libs//libfftw3f.a(lt10-nop.o)
                0x0004f950                fftwf_rdft_nop_register
 .text          0x0004f978       0xd0 ../../fftw-3.3.4/.libs//libfftw3f.a(nop2.o)
                0x0004fa20                fftwf_rdft2_nop_register
 .text          0x0004fa48       0x14 ../../fftw-3.3.4/.libs//libfftw3f.a(lt11-plan.o)
                0x0004fa48                fftwf_mkplan_rdft
 .text          0x0004fa5c       0x14 ../../fftw-3.3.4/.libs//libfftw3f.a(plan2.o)
                0x0004fa5c                fftwf_mkplan_rdft2
 .text          0x0004fa70      0xce8 ../../fftw-3.3.4/.libs//libfftw3f.a(lt12-problem.o)
                0x0005035c                fftwf_rdft_zerotens
                0x00050370                fftwf_rdft_kind_str
                0x00050380                fftwf_mkproblem_rdft
                0x0005067c                fftwf_mkproblem_rdft_d
                0x000506b4                fftwf_mkproblem_rdft_1
                0x000506d0                fftwf_mkproblem_rdft_1_d
                0x00050708                fftwf_mkproblem_rdft_0_d
 .text          0x00050758      0x4b0 ../../fftw-3.3.4/.libs//libfftw3f.a(rank-geq2-rdft2.o)
                0x00050b6c                fftwf_rdft2_rank_geq2_register
 .text          0x00050c08      0x37c ../../fftw-3.3.4/.libs//libfftw3f.a(lt13-rank-geq2.o)
                0x00050ee8                fftwf_rdft_rank_geq2_register
 .text          0x00050f84      0x44c ../../fftw-3.3.4/.libs//libfftw3f.a(rank0-rdft2.o)
                0x000513a8                fftwf_rdft2_rank0_register
 .text          0x000513d0     0x1e58 ../../fftw-3.3.4/.libs//libfftw3f.a(rank0.o)
                0x00053008                fftwf_rdft_rank0_register
 .text          0x00053228      0x408 ../../fftw-3.3.4/.libs//libfftw3f.a(rdft-dht.o)
                0x00053608                fftwf_rdft_dht_register
 .text          0x00053630      0x17c ../../fftw-3.3.4/.libs//libfftw3f.a(rdft2-inplace-strides.o)
                0x00053630                fftwf_rdft2_inplace_strides
 .text          0x000537ac      0xb08 ../../fftw-3.3.4/.libs//libfftw3f.a(rdft2-rdft.o)
                0x0005428c                fftwf_rdft2_rdft_register
 .text          0x000542b4       0x24 ../../fftw-3.3.4/.libs//libfftw3f.a(rdft2-strides.o)
                0x000542b4                fftwf_rdft2_strides
 .text          0x000542d8       0xec ../../fftw-3.3.4/.libs//libfftw3f.a(rdft2-tensor-max-index.o)
                0x000542d8                fftwf_rdft2_tensor_max_index
 .text          0x000543c4       0x1c ../../fftw-3.3.4/.libs//libfftw3f.a(lt14-solve.o)
                0x000543c4                fftwf_rdft_solve
 .text          0x000543e0       0x24 ../../fftw-3.3.4/.libs//libfftw3f.a(solve2.o)
                0x000543e0                fftwf_rdft2_solve
 .text          0x00054404      0x3e4 ../../fftw-3.3.4/.libs//libfftw3f.a(vrank-geq1-rdft2.o)
                0x00054774                fftwf_rdft2_vrank_geq1_register
 .text          0x000547e8      0x384 ../../fftw-3.3.4/.libs//libfftw3f.a(lt15-vrank-geq1.o)
                0x00054af8                fftwf_rdft_vrank_geq1_register
 .text          0x00054b6c     0x19dc ../../fftw-3.3.4/.libs//libfftw3f.a(vrank3-transpose.o)
                0x000564d0                fftwf_rdft_vrank3_transpose_register
 .text          0x00056548        0x0 ../../fftw-3.3.4/.libs//libfftw3f.a(lt16-codlist.o)
 .text          0x00056548      0xac0 ../../fftw-3.3.4/.libs//libfftw3f.a(hc2cf2_16.o)
                0x00056ff0                fftwf_codelet_hc2cf2_16
 .text          0x00057008      0xff0 ../../fftw-3.3.4/.libs//libfftw3f.a(hc2cf2_20.o)
                0x00057fe0                fftwf_codelet_hc2cf2_20
 .text          0x00057ff8     0x2098 ../../fftw-3.3.4/.libs//libfftw3f.a(hc2cf2_32.o)
                0x0005a078                fftwf_codelet_hc2cf2_32
 .text          0x0005a090      0x170 ../../fftw-3.3.4/.libs//libfftw3f.a(hc2cf2_4.o)
                0x0005a1e8                fftwf_codelet_hc2cf2_4
 .text          0x0005a200      0x394 ../../fftw-3.3.4/.libs//libfftw3f.a(hc2cf2_8.o)
                0x0005a57c                fftwf_codelet_hc2cf2_8
 .text          0x0005a594      0x564 ../../fftw-3.3.4/.libs//libfftw3f.a(hc2cf_10.o)
                0x0005aae0                fftwf_codelet_hc2cf_10
 .text          0x0005aaf8      0x65c ../../fftw-3.3.4/.libs//libfftw3f.a(hc2cf_12.o)
                0x0005b13c                fftwf_codelet_hc2cf_12
 .text          0x0005b154      0xa40 ../../fftw-3.3.4/.libs//libfftw3f.a(hc2cf_16.o)
                0x0005bb7c                fftwf_codelet_hc2cf_16
 .text          0x0005bb94       0xb4 ../../fftw-3.3.4/.libs//libfftw3f.a(hc2cf_2.o)
                0x0005bc30                fftwf_codelet_hc2cf_2
 .text          0x0005bc48      0xf44 ../../fftw-3.3.4/.libs//libfftw3f.a(hc2cf_20.o)
                0x0005cb74                fftwf_codelet_hc2cf_20
 .text          0x0005cb8c     0x1e38 ../../fftw-3.3.4/.libs//libfftw3f.a(hc2cf_32.o)
                0x0005e9ac                fftwf_codelet_hc2cf_32
 .text          0x0005e9c4      0x16c ../../fftw-3.3.4/.libs//libfftw3f.a(hc2cf_4.o)
                0x0005eb18                fftwf_codelet_hc2cf_4
 .text          0x0005eb30      0x294 ../../fftw-3.3.4/.libs//libfftw3f.a(hc2cf_6.o)
                0x0005edac                fftwf_codelet_hc2cf_6
 .text          0x0005edc4      0x364 ../../fftw-3.3.4/.libs//libfftw3f.a(hc2cf_8.o)
                0x0005f110                fftwf_codelet_hc2cf_8
 .text          0x0005f128      0xcac ../../fftw-3.3.4/.libs//libfftw3f.a(hc2cfdft2_16.o)
                0x0005fdbc                fftwf_codelet_hc2cfdft2_16
 .text          0x0005fdd4     0x1270 ../../fftw-3.3.4/.libs//libfftw3f.a(hc2cfdft2_20.o)
                0x0006102c                fftwf_codelet_hc2cfdft2_20
 .text          0x00061044     0x25cc ../../fftw-3.3.4/.libs//libfftw3f.a(hc2cfdft2_32.o)
                0x000635f8                fftwf_codelet_hc2cfdft2_32
 .text          0x00063610      0x1b4 ../../fftw-3.3.4/.libs//libfftw3f.a(hc2cfdft2_4.o)
                0x000637ac                fftwf_codelet_hc2cfdft2_4
 .text          0x000637c4      0x48c ../../fftw-3.3.4/.libs//libfftw3f.a(hc2cfdft2_8.o)
                0x00063c38                fftwf_codelet_hc2cfdft2_8
 .text          0x00063c50      0x66c ../../fftw-3.3.4/.libs//libfftw3f.a(hc2cfdft_10.o)
                0x000642a4                fftwf_codelet_hc2cfdft_10
 .text          0x000642bc      0x7d4 ../../fftw-3.3.4/.libs//libfftw3f.a(hc2cfdft_12.o)
                0x00064a78                fftwf_codelet_hc2cfdft_12
 .text          0x00064a90      0xb74 ../../fftw-3.3.4/.libs//libfftw3f.a(hc2cfdft_16.o)
                0x000655ec                fftwf_codelet_hc2cfdft_16
 .text          0x00065604       0xd8 ../../fftw-3.3.4/.libs//libfftw3f.a(hc2cfdft_2.o)
                0x000656c4                fftwf_codelet_hc2cfdft_2
 .text          0x000656dc     0x10e4 ../../fftw-3.3.4/.libs//libfftw3f.a(hc2cfdft_20.o)
                0x000667a8                fftwf_codelet_hc2cfdft_20
 .text          0x000667c0     0x229c ../../fftw-3.3.4/.libs//libfftw3f.a(hc2cfdft_32.o)
                0x00068a44                fftwf_codelet_hc2cfdft_32
 .text          0x00068a5c      0x1b0 ../../fftw-3.3.4/.libs//libfftw3f.a(hc2cfdft_4.o)
                0x00068bf4                fftwf_codelet_hc2cfdft_4
 .text          0x00068c0c      0x2e4 ../../fftw-3.3.4/.libs//libfftw3f.a(hc2cfdft_6.o)
                0x00068ed8                fftwf_codelet_hc2cfdft_6
 .text          0x00068ef0      0x440 ../../fftw-3.3.4/.libs//libfftw3f.a(hc2cfdft_8.o)
                0x00069318                fftwf_codelet_hc2cfdft_8
 .text          0x00069330      0xb04 ../../fftw-3.3.4/.libs//libfftw3f.a(hf2_16.o)
                0x00069e20                fftwf_codelet_hf2_16
 .text          0x00069e34     0x1028 ../../fftw-3.3.4/.libs//libfftw3f.a(hf2_20.o)
                0x0006ae48                fftwf_codelet_hf2_20
 .text          0x0006ae5c     0x1d70 ../../fftw-3.3.4/.libs//libfftw3f.a(hf2_25.o)
                0x0006cbb8                fftwf_codelet_hf2_25
 .text          0x0006cbcc     0x210c ../../fftw-3.3.4/.libs//libfftw3f.a(hf2_32.o)
                0x0006ecc4                fftwf_codelet_hf2_32
 .text          0x0006ecd8      0x180 ../../fftw-3.3.4/.libs//libfftw3f.a(hf2_4.o)
                0x0006ee44                fftwf_codelet_hf2_4
 .text          0x0006ee58      0x250 ../../fftw-3.3.4/.libs//libfftw3f.a(hf2_5.o)
                0x0006f094                fftwf_codelet_hf2_5
 .text          0x0006f0a8      0x3b4 ../../fftw-3.3.4/.libs//libfftw3f.a(hf2_8.o)
                0x0006f448                fftwf_codelet_hf2_8
 .text          0x0006f45c      0x578 ../../fftw-3.3.4/.libs//libfftw3f.a(hf_10.o)
                0x0006f9c0                fftwf_codelet_hf_10
 .text          0x0006f9d4      0x654 ../../fftw-3.3.4/.libs//libfftw3f.a(hf_12.o)
                0x00070014                fftwf_codelet_hf_12
 .text          0x00070028      0xb18 ../../fftw-3.3.4/.libs//libfftw3f.a(hf_15.o)
                0x00070b2c                fftwf_codelet_hf_15
 .text          0x00070b40      0xa6c ../../fftw-3.3.4/.libs//libfftw3f.a(hf_16.o)
                0x00071598                fftwf_codelet_hf_16
 .text          0x000715ac       0xb0 ../../fftw-3.3.4/.libs//libfftw3f.a(hf_2.o)
                0x00071648                fftwf_codelet_hf_2
 .text          0x0007165c      0xf50 ../../fftw-3.3.4/.libs//libfftw3f.a(hf_20.o)
                0x00072598                fftwf_codelet_hf_20
 .text          0x000725ac     0x19f0 ../../fftw-3.3.4/.libs//libfftw3f.a(hf_25.o)
                0x00073f88                fftwf_codelet_hf_25
 .text          0x00073f9c      0x120 ../../fftw-3.3.4/.libs//libfftw3f.a(hf_3.o)
                0x000740a8                fftwf_codelet_hf_3
 .text          0x000740bc     0x1d6c ../../fftw-3.3.4/.libs//libfftw3f.a(hf_32.o)
                0x00075e14                fftwf_codelet_hf_32
 .text          0x00075e28      0x17c ../../fftw-3.3.4/.libs//libfftw3f.a(hf_4.o)
                0x00075f90                fftwf_codelet_hf_4
 .text          0x00075fa4      0x244 ../../fftw-3.3.4/.libs//libfftw3f.a(hf_5.o)
                0x000761d4                fftwf_codelet_hf_5
 .text          0x000761e8      0x2a8 ../../fftw-3.3.4/.libs//libfftw3f.a(hf_6.o)
                0x0007647c                fftwf_codelet_hf_6
 .text          0x00076490     0x4298 ../../fftw-3.3.4/.libs//libfftw3f.a(hf_64.o)
                0x0007a714                fftwf_codelet_hf_64
 .text          0x0007a728      0x3d4 ../../fftw-3.3.4/.libs//libfftw3f.a(hf_7.o)
                0x0007aae8                fftwf_codelet_hf_7
 .text          0x0007aafc      0x37c ../../fftw-3.3.4/.libs//libfftw3f.a(hf_8.o)
                0x0007ae64                fftwf_codelet_hf_8
 .text          0x0007ae78      0x524 ../../fftw-3.3.4/.libs//libfftw3f.a(hf_9.o)
                0x0007b388                fftwf_codelet_hf_9
 .text          0x0007b39c      0x214 ../../fftw-3.3.4/.libs//libfftw3f.a(r2cfII_10.o)
                0x0007b59c                fftwf_codelet_r2cfII_10
 .text          0x0007b5b0      0x2bc ../../fftw-3.3.4/.libs//libfftw3f.a(r2cfII_12.o)
                0x0007b858                fftwf_codelet_r2cfII_12
 .text          0x0007b86c      0x408 ../../fftw-3.3.4/.libs//libfftw3f.a(r2cfII_15.o)
                0x0007bc60                fftwf_codelet_r2cfII_15
 .text          0x0007bc74      0x3cc ../../fftw-3.3.4/.libs//libfftw3f.a(r2cfII_16.o)
                0x0007c02c                fftwf_codelet_r2cfII_16
 .text          0x0007c040       0x68 ../../fftw-3.3.4/.libs//libfftw3f.a(r2cfII_2.o)
                0x0007c094                fftwf_codelet_r2cfII_2
 .text          0x0007c0a8      0x638 ../../fftw-3.3.4/.libs//libfftw3f.a(r2cfII_20.o)
                0x0007c6cc                fftwf_codelet_r2cfII_20
 .text          0x0007c6e0      0xdfc ../../fftw-3.3.4/.libs//libfftw3f.a(r2cfII_25.o)
                0x0007d4c8                fftwf_codelet_r2cfII_25
 .text          0x0007d4dc       0xa8 ../../fftw-3.3.4/.libs//libfftw3f.a(r2cfII_3.o)
                0x0007d570                fftwf_codelet_r2cfII_3
 .text          0x0007d584      0xc18 ../../fftw-3.3.4/.libs//libfftw3f.a(r2cfII_32.o)
                0x0007e188                fftwf_codelet_r2cfII_32
 .text          0x0007e19c       0xc8 ../../fftw-3.3.4/.libs//libfftw3f.a(r2cfII_4.o)
                0x0007e250                fftwf_codelet_r2cfII_4
 .text          0x0007e264      0x124 ../../fftw-3.3.4/.libs//libfftw3f.a(r2cfII_5.o)
                0x0007e374                fftwf_codelet_r2cfII_5
 .text          0x0007e388      0x12c ../../fftw-3.3.4/.libs//libfftw3f.a(r2cfII_6.o)
                0x0007e4a0                fftwf_codelet_r2cfII_6
 .text          0x0007e4b4     0x2054 ../../fftw-3.3.4/.libs//libfftw3f.a(r2cfII_64.o)
                0x000804f4                fftwf_codelet_r2cfII_64
 .text          0x00080508      0x1dc ../../fftw-3.3.4/.libs//libfftw3f.a(r2cfII_7.o)
                0x000806d0                fftwf_codelet_r2cfII_7
 .text          0x000806e4      0x1b4 ../../fftw-3.3.4/.libs//libfftw3f.a(r2cfII_8.o)
                0x00080884                fftwf_codelet_r2cfII_8
 .text          0x00080898      0x2a4 ../../fftw-3.3.4/.libs//libfftw3f.a(r2cfII_9.o)
                0x00080b28                fftwf_codelet_r2cfII_9
 .text          0x00080b3c      0x220 ../../fftw-3.3.4/.libs//libfftw3f.a(r2cf_10.o)
                0x00080d48                fftwf_codelet_r2cf_10
 .text          0x00080d5c      0x3e4 ../../fftw-3.3.4/.libs//libfftw3f.a(r2cf_11.o)
                0x0008112c                fftwf_codelet_r2cf_11
 .text          0x00081140      0x270 ../../fftw-3.3.4/.libs//libfftw3f.a(r2cf_12.o)
                0x0008139c                fftwf_codelet_r2cf_12
 .text          0x000813b0     0x4c7c ../../fftw-3.3.4/.libs//libfftw3f.a(r2cf_128.o)
                0x00086018                fftwf_codelet_r2cf_128
 .text          0x0008602c      0x410 ../../fftw-3.3.4/.libs//libfftw3f.a(r2cf_13.o)
                0x00086428                fftwf_codelet_r2cf_13
 .text          0x0008643c      0x378 ../../fftw-3.3.4/.libs//libfftw3f.a(r2cf_14.o)
                0x000867a0                fftwf_codelet_r2cf_14
 .text          0x000867b4      0x3e4 ../../fftw-3.3.4/.libs//libfftw3f.a(r2cf_15.o)
                0x00086b84                fftwf_codelet_r2cf_15
 .text          0x00086b98      0x378 ../../fftw-3.3.4/.libs//libfftw3f.a(r2cf_16.o)
                0x00086efc                fftwf_codelet_r2cf_16
 .text          0x00086f10       0x74 ../../fftw-3.3.4/.libs//libfftw3f.a(r2cf_2.o)
                0x00086f70                fftwf_codelet_r2cf_2
 .text          0x00086f84      0x4f8 ../../fftw-3.3.4/.libs//libfftw3f.a(r2cf_20.o)
                0x00087468                fftwf_codelet_r2cf_20
 .text          0x0008747c      0xe08 ../../fftw-3.3.4/.libs//libfftw3f.a(r2cf_25.o)
                0x00088270                fftwf_codelet_r2cf_25
 .text          0x00088284       0xb0 ../../fftw-3.3.4/.libs//libfftw3f.a(r2cf_3.o)
                0x00088320                fftwf_codelet_r2cf_3
 .text          0x00088334      0xab4 ../../fftw-3.3.4/.libs//libfftw3f.a(r2cf_32.o)
                0x00088dd4                fftwf_codelet_r2cf_32
 .text          0x00088de8       0xb8 ../../fftw-3.3.4/.libs//libfftw3f.a(r2cf_4.o)
                0x00088e8c                fftwf_codelet_r2cf_4
 .text          0x00088ea0      0x124 ../../fftw-3.3.4/.libs//libfftw3f.a(r2cf_5.o)
                0x00088fb0                fftwf_codelet_r2cf_5
 .text          0x00088fc4      0x150 ../../fftw-3.3.4/.libs//libfftw3f.a(r2cf_6.o)
                0x00089100                fftwf_codelet_r2cf_6
 .text          0x00089114     0x1d7c ../../fftw-3.3.4/.libs//libfftw3f.a(r2cf_64.o)
                0x0008ae7c                fftwf_codelet_r2cf_64
 .text          0x0008ae90      0x1d0 ../../fftw-3.3.4/.libs//libfftw3f.a(r2cf_7.o)
                0x0008b04c                fftwf_codelet_r2cf_7
 .text          0x0008b060      0x184 ../../fftw-3.3.4/.libs//libfftw3f.a(r2cf_8.o)
                0x0008b1d0                fftwf_codelet_r2cf_8
 .text          0x0008b1e4      0x290 ../../fftw-3.3.4/.libs//libfftw3f.a(r2cf_9.o)
                0x0008b460                fftwf_codelet_r2cf_9
 .text          0x0008b474        0x0 ../../fftw-3.3.4/.libs//libfftw3f.a(lt17-codlist.o)
 .text          0x0008b474      0xd10 ../../fftw-3.3.4/.libs//libfftw3f.a(hb2_16.o)
                0x0008c170                fftwf_codelet_hb2_16
 .text          0x0008c184     0x121c ../../fftw-3.3.4/.libs//libfftw3f.a(hb2_20.o)
                0x0008d38c                fftwf_codelet_hb2_20
 .text          0x0008d3a0     0x1e94 ../../fftw-3.3.4/.libs//libfftw3f.a(hb2_25.o)
                0x0008f220                fftwf_codelet_hb2_25
 .text          0x0008f234     0x21d0 ../../fftw-3.3.4/.libs//libfftw3f.a(hb2_32.o)
                0x000913f0                fftwf_codelet_hb2_32
 .text          0x00091404      0x180 ../../fftw-3.3.4/.libs//libfftw3f.a(hb2_4.o)
                0x00091570                fftwf_codelet_hb2_4
 .text          0x00091584      0x260 ../../fftw-3.3.4/.libs//libfftw3f.a(hb2_5.o)
                0x000917d0                fftwf_codelet_hb2_5
 .text          0x000917e4      0x488 ../../fftw-3.3.4/.libs//libfftw3f.a(hb2_8.o)
                0x00091c58                fftwf_codelet_hb2_8
 .text          0x00091c6c      0x514 ../../fftw-3.3.4/.libs//libfftw3f.a(hb_10.o)
                0x0009216c                fftwf_codelet_hb_10
 .text          0x00092180      0x654 ../../fftw-3.3.4/.libs//libfftw3f.a(hb_12.o)
                0x000927c0                fftwf_codelet_hb_12
 .text          0x000927d4      0x994 ../../fftw-3.3.4/.libs//libfftw3f.a(hb_15.o)
                0x00093154                fftwf_codelet_hb_15
 .text          0x00093168      0x954 ../../fftw-3.3.4/.libs//libfftw3f.a(hb_16.o)
                0x00093aa8                fftwf_codelet_hb_16
 .text          0x00093abc       0xb0 ../../fftw-3.3.4/.libs//libfftw3f.a(hb_2.o)
                0x00093b58                fftwf_codelet_hb_2
 .text          0x00093b6c      0xdfc ../../fftw-3.3.4/.libs//libfftw3f.a(hb_20.o)
                0x00094954                fftwf_codelet_hb_20
 .text          0x00094968     0x1794 ../../fftw-3.3.4/.libs//libfftw3f.a(hb_25.o)
                0x000960e8                fftwf_codelet_hb_25
 .text          0x000960fc      0x120 ../../fftw-3.3.4/.libs//libfftw3f.a(hb_3.o)
                0x00096208                fftwf_codelet_hb_3
 .text          0x0009621c     0x18bc ../../fftw-3.3.4/.libs//libfftw3f.a(hb_32.o)
                0x00097ac4                fftwf_codelet_hb_32
 .text          0x00097ad8      0x174 ../../fftw-3.3.4/.libs//libfftw3f.a(hb_4.o)
                0x00097c38                fftwf_codelet_hb_4
 .text          0x00097c4c      0x248 ../../fftw-3.3.4/.libs//libfftw3f.a(hb_5.o)
                0x00097e80                fftwf_codelet_hb_5
 .text          0x00097e94      0x29c ../../fftw-3.3.4/.libs//libfftw3f.a(hb_6.o)
                0x0009811c                fftwf_codelet_hb_6
 .text          0x00098130     0x3eec ../../fftw-3.3.4/.libs//libfftw3f.a(hb_64.o)
                0x0009c008                fftwf_codelet_hb_64
 .text          0x0009c01c      0x3d0 ../../fftw-3.3.4/.libs//libfftw3f.a(hb_7.o)
                0x0009c3d8                fftwf_codelet_hb_7
 .text          0x0009c3ec      0x37c ../../fftw-3.3.4/.libs//libfftw3f.a(hb_8.o)
                0x0009c754                fftwf_codelet_hb_8
 .text          0x0009c768      0x510 ../../fftw-3.3.4/.libs//libfftw3f.a(hb_9.o)
                0x0009cc64                fftwf_codelet_hb_9
 .text          0x0009cc78      0xcac ../../fftw-3.3.4/.libs//libfftw3f.a(hc2cb2_16.o)
                0x0009d90c                fftwf_codelet_hc2cb2_16
 .text          0x0009d924     0x11d0 ../../fftw-3.3.4/.libs//libfftw3f.a(hc2cb2_20.o)
                0x0009eadc                fftwf_codelet_hc2cb2_20
 .text          0x0009eaf4     0x2360 ../../fftw-3.3.4/.libs//libfftw3f.a(hc2cb2_32.o)
                0x000a0e3c                fftwf_codelet_hc2cb2_32
 .text          0x000a0e54      0x170 ../../fftw-3.3.4/.libs//libfftw3f.a(hc2cb2_4.o)
                0x000a0fac                fftwf_codelet_hc2cb2_4
 .text          0x000a0fc4      0x450 ../../fftw-3.3.4/.libs//libfftw3f.a(hc2cb2_8.o)
                0x000a13fc                fftwf_codelet_hc2cb2_8
 .text          0x000a1414      0x4f0 ../../fftw-3.3.4/.libs//libfftw3f.a(hc2cb_10.o)
                0x000a18ec                fftwf_codelet_hc2cb_10
 .text          0x000a1904      0x62c ../../fftw-3.3.4/.libs//libfftw3f.a(hc2cb_12.o)
                0x000a1f18                fftwf_codelet_hc2cb_12
 .text          0x000a1f30      0x8f4 ../../fftw-3.3.4/.libs//libfftw3f.a(hc2cb_16.o)
                0x000a280c                fftwf_codelet_hc2cb_16
 .text          0x000a2824       0xb4 ../../fftw-3.3.4/.libs//libfftw3f.a(hc2cb_2.o)
                0x000a28c0                fftwf_codelet_hc2cb_2
 .text          0x000a28d8      0xdac ../../fftw-3.3.4/.libs//libfftw3f.a(hc2cb_20.o)
                0x000a366c                fftwf_codelet_hc2cb_20
 .text          0x000a3684     0x1830 ../../fftw-3.3.4/.libs//libfftw3f.a(hc2cb_32.o)
                0x000a4e9c                fftwf_codelet_hc2cb_32
 .text          0x000a4eb4      0x164 ../../fftw-3.3.4/.libs//libfftw3f.a(hc2cb_4.o)
                0x000a5000                fftwf_codelet_hc2cb_4
 .text          0x000a5018      0x288 ../../fftw-3.3.4/.libs//libfftw3f.a(hc2cb_6.o)
                0x000a5288                fftwf_codelet_hc2cb_6
 .text          0x000a52a0      0x350 ../../fftw-3.3.4/.libs//libfftw3f.a(hc2cb_8.o)
                0x000a55d8                fftwf_codelet_hc2cb_8
 .text          0x000a55f0      0x9f0 ../../fftw-3.3.4/.libs//libfftw3f.a(hc2cbdft2_16.o)
                0x000a5fc8                fftwf_codelet_hc2cbdft2_16
 .text          0x000a5fe0      0xe58 ../../fftw-3.3.4/.libs//libfftw3f.a(hc2cbdft2_20.o)
                0x000a6e20                fftwf_codelet_hc2cbdft2_20
 .text          0x000a6e38     0x1b38 ../../fftw-3.3.4/.libs//libfftw3f.a(hc2cbdft2_32.o)
                0x000a8958                fftwf_codelet_hc2cbdft2_32
 .text          0x000a8970      0x18c ../../fftw-3.3.4/.libs//libfftw3f.a(hc2cbdft2_4.o)
                0x000a8ae4                fftwf_codelet_hc2cbdft2_4
 .text          0x000a8afc      0x3a8 ../../fftw-3.3.4/.libs//libfftw3f.a(hc2cbdft2_8.o)
                0x000a8e8c                fftwf_codelet_hc2cbdft2_8
 .text          0x000a8ea4      0x588 ../../fftw-3.3.4/.libs//libfftw3f.a(hc2cbdft_10.o)
                0x000a9414                fftwf_codelet_hc2cbdft_10
 .text          0x000a942c      0x670 ../../fftw-3.3.4/.libs//libfftw3f.a(hc2cbdft_12.o)
                0x000a9a84                fftwf_codelet_hc2cbdft_12
 .text          0x000a9a9c      0x9f0 ../../fftw-3.3.4/.libs//libfftw3f.a(hc2cbdft_16.o)
                0x000aa474                fftwf_codelet_hc2cbdft_16
 .text          0x000aa48c       0xc4 ../../fftw-3.3.4/.libs//libfftw3f.a(hc2cbdft_2.o)
                0x000aa538                fftwf_codelet_hc2cbdft_2
 .text          0x000aa550      0xe58 ../../fftw-3.3.4/.libs//libfftw3f.a(hc2cbdft_20.o)
                0x000ab390                fftwf_codelet_hc2cbdft_20
 .text          0x000ab3a8     0x1b38 ../../fftw-3.3.4/.libs//libfftw3f.a(hc2cbdft_32.o)
                0x000acec8                fftwf_codelet_hc2cbdft_32
 .text          0x000acee0      0x18c ../../fftw-3.3.4/.libs//libfftw3f.a(hc2cbdft_4.o)
                0x000ad054                fftwf_codelet_hc2cbdft_4
 .text          0x000ad06c      0x2bc ../../fftw-3.3.4/.libs//libfftw3f.a(hc2cbdft_6.o)
                0x000ad310                fftwf_codelet_hc2cbdft_6
 .text          0x000ad328      0x3a8 ../../fftw-3.3.4/.libs//libfftw3f.a(hc2cbdft_8.o)
                0x000ad6b8                fftwf_codelet_hc2cbdft_8
 .text          0x000ad6d0      0x224 ../../fftw-3.3.4/.libs//libfftw3f.a(r2cbIII_10.o)
                0x000ad8e0                fftwf_codelet_r2cbIII_10
 .text          0x000ad8f4      0x2b8 ../../fftw-3.3.4/.libs//libfftw3f.a(r2cbIII_12.o)
                0x000adb98                fftwf_codelet_r2cbIII_12
 .text          0x000adbac      0x3d8 ../../fftw-3.3.4/.libs//libfftw3f.a(r2cbIII_15.o)
                0x000adf70                fftwf_codelet_r2cbIII_15
 .text          0x000adf84      0x418 ../../fftw-3.3.4/.libs//libfftw3f.a(r2cbIII_16.o)
                0x000ae388                fftwf_codelet_r2cbIII_16
 .text          0x000ae39c       0x70 ../../fftw-3.3.4/.libs//libfftw3f.a(r2cbIII_2.o)
                0x000ae3f8                fftwf_codelet_r2cbIII_2
 .text          0x000ae40c      0x55c ../../fftw-3.3.4/.libs//libfftw3f.a(r2cbIII_20.o)
                0x000ae954                fftwf_codelet_r2cbIII_20
 .text          0x000ae968      0x9d0 ../../fftw-3.3.4/.libs//libfftw3f.a(r2cbIII_25.o)
                0x000af324                fftwf_codelet_r2cbIII_25
 .text          0x000af338       0xa8 ../../fftw-3.3.4/.libs//libfftw3f.a(r2cbIII_3.o)
                0x000af3cc                fftwf_codelet_r2cbIII_3
 .text          0x000af3e0      0xcc0 ../../fftw-3.3.4/.libs//libfftw3f.a(r2cbIII_32.o)
                0x000b008c                fftwf_codelet_r2cbIII_32
 .text          0x000b00a0       0xcc ../../fftw-3.3.4/.libs//libfftw3f.a(r2cbIII_4.o)
                0x000b0158                fftwf_codelet_r2cbIII_4
 .text          0x000b016c      0x128 ../../fftw-3.3.4/.libs//libfftw3f.a(r2cbIII_5.o)
                0x000b0280                fftwf_codelet_r2cbIII_5
 .text          0x000b0294      0x13c ../../fftw-3.3.4/.libs//libfftw3f.a(r2cbIII_6.o)
                0x000b03bc                fftwf_codelet_r2cbIII_6
 .text          0x000b03d0     0x1ff8 ../../fftw-3.3.4/.libs//libfftw3f.a(r2cbIII_64.o)
                0x000b23b4                fftwf_codelet_r2cbIII_64
 .text          0x000b23c8      0x1e0 ../../fftw-3.3.4/.libs//libfftw3f.a(r2cbIII_7.o)
                0x000b2594                fftwf_codelet_r2cbIII_7
 .text          0x000b25a8      0x1c8 ../../fftw-3.3.4/.libs//libfftw3f.a(r2cbIII_8.o)
                0x000b275c                fftwf_codelet_r2cbIII_8
 .text          0x000b2770      0x254 ../../fftw-3.3.4/.libs//libfftw3f.a(r2cbIII_9.o)
                0x000b29b0                fftwf_codelet_r2cbIII_9
 .text          0x000b29c4      0x224 ../../fftw-3.3.4/.libs//libfftw3f.a(r2cb_10.o)
                0x000b2bd4                fftwf_codelet_r2cb_10
 .text          0x000b2be8      0x3bc ../../fftw-3.3.4/.libs//libfftw3f.a(r2cb_11.o)
                0x000b2f90                fftwf_codelet_r2cb_11
 .text          0x000b2fa4      0x278 ../../fftw-3.3.4/.libs//libfftw3f.a(r2cb_12.o)
                0x000b3208                fftwf_codelet_r2cb_12
 .text          0x000b321c     0x4e44 ../../fftw-3.3.4/.libs//libfftw3f.a(r2cb_128.o)
                0x000b804c                fftwf_codelet_r2cb_128
 .text          0x000b8060      0x3e8 ../../fftw-3.3.4/.libs//libfftw3f.a(r2cb_13.o)
                0x000b8434                fftwf_codelet_r2cb_13
 .text          0x000b8448      0x37c ../../fftw-3.3.4/.libs//libfftw3f.a(r2cb_14.o)
                0x000b87b0                fftwf_codelet_r2cb_14
 .text          0x000b87c4      0x3a0 ../../fftw-3.3.4/.libs//libfftw3f.a(r2cb_15.o)
                0x000b8b50                fftwf_codelet_r2cb_15
 .text          0x000b8b64      0x370 ../../fftw-3.3.4/.libs//libfftw3f.a(r2cb_16.o)
                0x000b8ec0                fftwf_codelet_r2cb_16
 .text          0x000b8ed4       0x74 ../../fftw-3.3.4/.libs//libfftw3f.a(r2cb_2.o)
                0x000b8f34                fftwf_codelet_r2cb_2
 .text          0x000b8f48      0x4c8 ../../fftw-3.3.4/.libs//libfftw3f.a(r2cb_20.o)
                0x000b93fc                fftwf_codelet_r2cb_20
 .text          0x000b9410      0x9b0 ../../fftw-3.3.4/.libs//libfftw3f.a(r2cb_25.o)
                0x000b9dac                fftwf_codelet_r2cb_25
 .text          0x000b9dc0       0xac ../../fftw-3.3.4/.libs//libfftw3f.a(r2cb_3.o)
                0x000b9e58                fftwf_codelet_r2cb_3
 .text          0x000b9e6c      0xab8 ../../fftw-3.3.4/.libs//libfftw3f.a(r2cb_32.o)
                0x000ba910                fftwf_codelet_r2cb_32
 .text          0x000ba924       0xc0 ../../fftw-3.3.4/.libs//libfftw3f.a(r2cb_4.o)
                0x000ba9d0                fftwf_codelet_r2cb_4
 .text          0x000ba9e4      0x128 ../../fftw-3.3.4/.libs//libfftw3f.a(r2cb_5.o)
                0x000baaf8                fftwf_codelet_r2cb_5
 .text          0x000bab0c      0x140 ../../fftw-3.3.4/.libs//libfftw3f.a(r2cb_6.o)
                0x000bac38                fftwf_codelet_r2cb_6
 .text          0x000bac4c     0x1b9c ../../fftw-3.3.4/.libs//libfftw3f.a(r2cb_64.o)
                0x000bc7d4                fftwf_codelet_r2cb_64
 .text          0x000bc7e8      0x1c8 ../../fftw-3.3.4/.libs//libfftw3f.a(r2cb_7.o)
                0x000bc99c                fftwf_codelet_r2cb_7
 .text          0x000bc9b0      0x19c ../../fftw-3.3.4/.libs//libfftw3f.a(r2cb_8.o)
                0x000bcb38                fftwf_codelet_r2cb_8
 .text          0x000bcb4c      0x240 ../../fftw-3.3.4/.libs//libfftw3f.a(r2cb_9.o)
                0x000bcd78                fftwf_codelet_r2cb_9
 .text          0x000bcd8c        0x0 ../../fftw-3.3.4/.libs//libfftw3f.a(lt18-codlist.o)
 .text          0x000bcd8c      0x238 ../../fftw-3.3.4/.libs//libfftw3f.a(e01_8.o)
                0x000bcfb0                fftwf_codelet_e01_8
 .text          0x000bcfc4      0x244 ../../fftw-3.3.4/.libs//libfftw3f.a(e10_8.o)
                0x000bd1f4                fftwf_codelet_e10_8
 .text          0x000bd208       0x10 ../../fftw-3.3.4/.libs//libfftw3f.a(lt19-conf.o)
                0x000bd208                fftwf_reodft_conf_standard
 .text          0x000bd218      0x3d8 ../../fftw-3.3.4/.libs//libfftw3f.a(redft00e-r2hc-pad.o)
                0x000bd5c8                fftwf_redft00e_r2hc_pad_register
 .text          0x000bd5f0      0xbc8 ../../fftw-3.3.4/.libs//libfftw3f.a(reodft00e-splitradix.o)
                0x000be18c                fftwf_reodft00e_splitradix_register
 .text          0x000be1b8      0xccc ../../fftw-3.3.4/.libs//libfftw3f.a(reodft010e-r2hc.o)
                0x000bee5c                fftwf_reodft010e_r2hc_register
 .text          0x000bee84      0xf60 ../../fftw-3.3.4/.libs//libfftw3f.a(reodft11e-r2hc-odd.o)
                0x000bfdbc                fftwf_reodft11e_r2hc_odd_register
 .text          0x000bfde4      0xcb4 ../../fftw-3.3.4/.libs//libfftw3f.a(reodft11e-radix2.o)
                0x000c0a70                fftwf_reodft11e_radix2_r2hc_register
 .text          0x000c0a98      0x3ec ../../fftw-3.3.4/.libs//libfftw3f.a(rodft00e-r2hc-pad.o)
                0x000c0e5c                fftwf_rodft00e_r2hc_pad_register
 .text          0x000c0e84       0xa8 ../../fftw-3.3.4/.libs//libfftw3f.a(neon.o)
                0x000c0ef8                fftwf_have_simd_neon
 .text          0x000c0f2c        0x0 ../../fftw-3.3.4/.libs//libfftw3f.a(lt20-codlist.o)
 *fill*         0x000c0f2c        0x4 
 .text          0x000c0f30      0x3c8 ../../fftw-3.3.4/.libs//libfftw3f.a(n1bv_10.o)
                0x000c12e4                fftwf_codelet_n1bv_10_neon
 .text          0x000c12f8      0x6b0 ../../fftw-3.3.4/.libs//libfftw3f.a(n1bv_11.o)
                0x000c1990                fftwf_codelet_n1bv_11_neon
 .text          0x000c19a8      0x420 ../../fftw-3.3.4/.libs//libfftw3f.a(n1bv_12.o)
                0x000c1db4                fftwf_codelet_n1bv_12_neon
 .text          0x000c1dc8     0x9720 ../../fftw-3.3.4/.libs//libfftw3f.a(n1bv_128.o)
                0x000cb4d4                fftwf_codelet_n1bv_128_neon
 .text          0x000cb4e8      0x788 ../../fftw-3.3.4/.libs//libfftw3f.a(n1bv_13.o)
                0x000cbc5c                fftwf_codelet_n1bv_13_neon
 .text          0x000cbc70      0x728 ../../fftw-3.3.4/.libs//libfftw3f.a(n1bv_14.o)
                0x000cc384                fftwf_codelet_n1bv_14_neon
 .text          0x000cc398      0x728 ../../fftw-3.3.4/.libs//libfftw3f.a(n1bv_15.o)
                0x000ccaac                fftwf_codelet_n1bv_15_neon
 .text          0x000ccac0      0x698 ../../fftw-3.3.4/.libs//libfftw3f.a(n1bv_16.o)
                0x000cd144                fftwf_codelet_n1bv_16_neon
 .text          0x000cd158       0xb0 ../../fftw-3.3.4/.libs//libfftw3f.a(n1bv_2.o)
                0x000cd1f4                fftwf_codelet_n1bv_2_neon
 .text          0x000cd208      0x988 ../../fftw-3.3.4/.libs//libfftw3f.a(n1bv_20.o)
                0x000cdb78                fftwf_codelet_n1bv_20_neon
 .text          0x000cdb90     0x1a08 ../../fftw-3.3.4/.libs//libfftw3f.a(n1bv_25.o)
                0x000cf580                fftwf_codelet_n1bv_25_neon
 .text          0x000cf598      0x170 ../../fftw-3.3.4/.libs//libfftw3f.a(n1bv_3.o)
                0x000cf6f0                fftwf_codelet_n1bv_3_neon
 .text          0x000cf708     0x1428 ../../fftw-3.3.4/.libs//libfftw3f.a(n1bv_32.o)
                0x000d0b18                fftwf_codelet_n1bv_32_neon
 .text          0x000d0b30      0x1a8 ../../fftw-3.3.4/.libs//libfftw3f.a(n1bv_4.o)
                0x000d0cc0                fftwf_codelet_n1bv_4_neon
 .text          0x000d0cd8      0x288 ../../fftw-3.3.4/.libs//libfftw3f.a(n1bv_5.o)
                0x000d0f48                fftwf_codelet_n1bv_5_neon
 .text          0x000d0f60      0x2a8 ../../fftw-3.3.4/.libs//libfftw3f.a(n1bv_6.o)
                0x000d11f0                fftwf_codelet_n1bv_6_neon
 .text          0x000d1208     0x3c00 ../../fftw-3.3.4/.libs//libfftw3f.a(n1bv_64.o)
                0x000d4df4                fftwf_codelet_n1bv_64_neon
 .text          0x000d4e08      0x3e8 ../../fftw-3.3.4/.libs//libfftw3f.a(n1bv_7.o)
                0x000d51d8                fftwf_codelet_n1bv_7_neon
 .text          0x000d51f0      0x370 ../../fftw-3.3.4/.libs//libfftw3f.a(n1bv_8.o)
                0x000d5548                fftwf_codelet_n1bv_8_neon
 .text          0x000d5560      0x4a8 ../../fftw-3.3.4/.libs//libfftw3f.a(n1bv_9.o)
                0x000d59f4                fftwf_codelet_n1bv_9_neon
 .text          0x000d5a08      0x3d0 ../../fftw-3.3.4/.libs//libfftw3f.a(n1fv_10.o)
                0x000d5dc4                fftwf_codelet_n1fv_10_neon
 .text          0x000d5dd8      0x6d8 ../../fftw-3.3.4/.libs//libfftw3f.a(n1fv_11.o)
                0x000d6498                fftwf_codelet_n1fv_11_neon
 .text          0x000d64b0      0x418 ../../fftw-3.3.4/.libs//libfftw3f.a(n1fv_12.o)
                0x000d68b4                fftwf_codelet_n1fv_12_neon
 .text          0x000d68c8     0x9778 ../../fftw-3.3.4/.libs//libfftw3f.a(n1fv_128.o)
                0x000e002c                fftwf_codelet_n1fv_128_neon
 .text          0x000e0040      0x798 ../../fftw-3.3.4/.libs//libfftw3f.a(n1fv_13.o)
                0x000e07c0                fftwf_codelet_n1fv_13_neon
 .text          0x000e07d8      0x730 ../../fftw-3.3.4/.libs//libfftw3f.a(n1fv_14.o)
                0x000e0ef4                fftwf_codelet_n1fv_14_neon
 .text          0x000e0f08      0x758 ../../fftw-3.3.4/.libs//libfftw3f.a(n1fv_15.o)
                0x000e164c                fftwf_codelet_n1fv_15_neon
 .text          0x000e1660      0x670 ../../fftw-3.3.4/.libs//libfftw3f.a(n1fv_16.o)
                0x000e1cbc                fftwf_codelet_n1fv_16_neon
 .text          0x000e1cd0       0xb0 ../../fftw-3.3.4/.libs//libfftw3f.a(n1fv_2.o)
                0x000e1d6c                fftwf_codelet_n1fv_2_neon
 .text          0x000e1d80      0x980 ../../fftw-3.3.4/.libs//libfftw3f.a(n1fv_20.o)
                0x000e26e8                fftwf_codelet_n1fv_20_neon
 .text          0x000e2700     0x1a88 ../../fftw-3.3.4/.libs//libfftw3f.a(n1fv_25.o)
                0x000e4170                fftwf_codelet_n1fv_25_neon
 .text          0x000e4188      0x170 ../../fftw-3.3.4/.libs//libfftw3f.a(n1fv_3.o)
                0x000e42e0                fftwf_codelet_n1fv_3_neon
 .text          0x000e42f8     0x1418 ../../fftw-3.3.4/.libs//libfftw3f.a(n1fv_32.o)
                0x000e56fc                fftwf_codelet_n1fv_32_neon
 .text          0x000e5710      0x1a8 ../../fftw-3.3.4/.libs//libfftw3f.a(n1fv_4.o)
                0x000e58a0                fftwf_codelet_n1fv_4_neon
 .text          0x000e58b8      0x280 ../../fftw-3.3.4/.libs//libfftw3f.a(n1fv_5.o)
                0x000e5b20                fftwf_codelet_n1fv_5_neon
 .text          0x000e5b38      0x2a8 ../../fftw-3.3.4/.libs//libfftw3f.a(n1fv_6.o)
                0x000e5dc8                fftwf_codelet_n1fv_6_neon
 .text          0x000e5de0     0x3c60 ../../fftw-3.3.4/.libs//libfftw3f.a(n1fv_64.o)
                0x000e9a28                fftwf_codelet_n1fv_64_neon
 .text          0x000e9a40      0x3e0 ../../fftw-3.3.4/.libs//libfftw3f.a(n1fv_7.o)
                0x000e9e08                fftwf_codelet_n1fv_7_neon
 .text          0x000e9e20      0x370 ../../fftw-3.3.4/.libs//libfftw3f.a(n1fv_8.o)
                0x000ea178                fftwf_codelet_n1fv_8_neon
 .text          0x000ea190      0x4d8 ../../fftw-3.3.4/.libs//libfftw3f.a(n1fv_9.o)
                0x000ea654                fftwf_codelet_n1fv_9_neon
 .text          0x000ea668      0x2e0 ../../fftw-3.3.4/.libs//libfftw3f.a(n2bv_10.o)
                0x000ea934                fftwf_codelet_n2bv_10_neon
 .text          0x000ea948      0x300 ../../fftw-3.3.4/.libs//libfftw3f.a(n2bv_12.o)
                0x000eac34                fftwf_codelet_n2bv_12_neon
 .text          0x000eac48      0x5e0 ../../fftw-3.3.4/.libs//libfftw3f.a(n2bv_14.o)
                0x000eb214                fftwf_codelet_n2bv_14_neon
 .text          0x000eb228      0x4c8 ../../fftw-3.3.4/.libs//libfftw3f.a(n2bv_16.o)
                0x000eb6dc                fftwf_codelet_n2bv_16_neon
 .text          0x000eb6f0       0x8c ../../fftw-3.3.4/.libs//libfftw3f.a(n2bv_2.o)
                0x000eb768                fftwf_codelet_n2bv_2_neon
 *fill*         0x000eb77c        0x4 
 .text          0x000eb780      0x7f0 ../../fftw-3.3.4/.libs//libfftw3f.a(n2bv_20.o)
                0x000ebf58                fftwf_codelet_n2bv_20_neon
 .text          0x000ebf70     0x1148 ../../fftw-3.3.4/.libs//libfftw3f.a(n2bv_32.o)
                0x000ed0a4                fftwf_codelet_n2bv_32_neon
 .text          0x000ed0b8      0x120 ../../fftw-3.3.4/.libs//libfftw3f.a(n2bv_4.o)
                0x000ed1c0                fftwf_codelet_n2bv_4_neon
 .text          0x000ed1d8      0x1d0 ../../fftw-3.3.4/.libs//libfftw3f.a(n2bv_6.o)
                0x000ed390                fftwf_codelet_n2bv_6_neon
 .text          0x000ed3a8     0x33b0 ../../fftw-3.3.4/.libs//libfftw3f.a(n2bv_64.o)
                0x000f0740                fftwf_codelet_n2bv_64_neon
 .text          0x000f0758      0x238 ../../fftw-3.3.4/.libs//libfftw3f.a(n2bv_8.o)
                0x000f0978                fftwf_codelet_n2bv_8_neon
 .text          0x000f0990      0x2f0 ../../fftw-3.3.4/.libs//libfftw3f.a(n2fv_10.o)
                0x000f0c6c                fftwf_codelet_n2fv_10_neon
 .text          0x000f0c80      0x300 ../../fftw-3.3.4/.libs//libfftw3f.a(n2fv_12.o)
                0x000f0f6c                fftwf_codelet_n2fv_12_neon
 .text          0x000f0f80      0x610 ../../fftw-3.3.4/.libs//libfftw3f.a(n2fv_14.o)
                0x000f1578                fftwf_codelet_n2fv_14_neon
 .text          0x000f1590      0x4e8 ../../fftw-3.3.4/.libs//libfftw3f.a(n2fv_16.o)
                0x000f1a64                fftwf_codelet_n2fv_16_neon
 .text          0x000f1a78       0x8c ../../fftw-3.3.4/.libs//libfftw3f.a(n2fv_2.o)
                0x000f1af0                fftwf_codelet_n2fv_2_neon
 *fill*         0x000f1b04        0x4 
 .text          0x000f1b08      0x7b0 ../../fftw-3.3.4/.libs//libfftw3f.a(n2fv_20.o)
                0x000f22a0                fftwf_codelet_n2fv_20_neon
 .text          0x000f22b8     0x1130 ../../fftw-3.3.4/.libs//libfftw3f.a(n2fv_32.o)
                0x000f33d4                fftwf_codelet_n2fv_32_neon
 .text          0x000f33e8      0x120 ../../fftw-3.3.4/.libs//libfftw3f.a(n2fv_4.o)
                0x000f34f0                fftwf_codelet_n2fv_4_neon
 .text          0x000f3508      0x1c8 ../../fftw-3.3.4/.libs//libfftw3f.a(n2fv_6.o)
                0x000f36b8                fftwf_codelet_n2fv_6_neon
 .text          0x000f36d0     0x3528 ../../fftw-3.3.4/.libs//libfftw3f.a(n2fv_64.o)
                0x000f6be0                fftwf_codelet_n2fv_64_neon
 .text          0x000f6bf8      0x228 ../../fftw-3.3.4/.libs//libfftw3f.a(n2fv_8.o)
                0x000f6e08                fftwf_codelet_n2fv_8_neon
 .text          0x000f6e20     0x1668 ../../fftw-3.3.4/.libs//libfftw3f.a(n2sv_16.o)
                0x000f8470                fftwf_codelet_n2sv_16_neon
 .text          0x000f8488     0x33f0 ../../fftw-3.3.4/.libs//libfftw3f.a(n2sv_32.o)
                0x000fb860                fftwf_codelet_n2sv_32_neon
 .text          0x000fb878      0x310 ../../fftw-3.3.4/.libs//libfftw3f.a(n2sv_4.o)
                0x000fbb74                fftwf_codelet_n2sv_4_neon
 .text          0x000fbb88     0x9e98 ../../fftw-3.3.4/.libs//libfftw3f.a(n2sv_64.o)
                0x00105a08                fftwf_codelet_n2sv_64_neon
 .text          0x00105a20      0x740 ../../fftw-3.3.4/.libs//libfftw3f.a(n2sv_8.o)
                0x0010614c                fftwf_codelet_n2sv_8_neon
 .text          0x00106160      0x188 ../../fftw-3.3.4/.libs//libfftw3f.a(q1bv_2.o)
                0x001062d0                fftwf_codelet_q1bv_2_neon
 .text          0x001062e8      0x950 ../../fftw-3.3.4/.libs//libfftw3f.a(q1bv_4.o)
                0x00106c20                fftwf_codelet_q1bv_4_neon
 .text          0x00106c38     0x1340 ../../fftw-3.3.4/.libs//libfftw3f.a(q1bv_5.o)
                0x00107f60                fftwf_codelet_q1bv_5_neon
 .text          0x00107f78     0x3560 ../../fftw-3.3.4/.libs//libfftw3f.a(q1bv_8.o)
                0x0010b4c0                fftwf_codelet_q1bv_8_neon
 .text          0x0010b4d8      0x188 ../../fftw-3.3.4/.libs//libfftw3f.a(q1fv_2.o)
                0x0010b648                fftwf_codelet_q1fv_2_neon
 .text          0x0010b660      0x958 ../../fftw-3.3.4/.libs//libfftw3f.a(q1fv_4.o)
                0x0010bfa4                fftwf_codelet_q1fv_4_neon
 .text          0x0010bfb8     0x1388 ../../fftw-3.3.4/.libs//libfftw3f.a(q1fv_5.o)
                0x0010d32c                fftwf_codelet_q1fv_5_neon
 .text          0x0010d340     0x35c8 ../../fftw-3.3.4/.libs//libfftw3f.a(q1fv_8.o)
                0x001108f0                fftwf_codelet_q1fv_8_neon
 .text          0x00110908      0x698 ../../fftw-3.3.4/.libs//libfftw3f.a(t1buv_10.o)
                0x00110f8c                fftwf_codelet_t1buv_10_neon
 .text          0x00110fa0       0xe0 ../../fftw-3.3.4/.libs//libfftw3f.a(t1buv_2.o)
                0x00111068                fftwf_codelet_t1buv_2_neon
 .text          0x00111080      0x190 ../../fftw-3.3.4/.libs//libfftw3f.a(t1buv_3.o)
                0x001111f8                fftwf_codelet_t1buv_3_neon
 .text          0x00111210      0x1f8 ../../fftw-3.3.4/.libs//libfftw3f.a(t1buv_4.o)
                0x001113f0                fftwf_codelet_t1buv_4_neon
 .text          0x00111408      0x308 ../../fftw-3.3.4/.libs//libfftw3f.a(t1buv_5.o)
                0x001116f8                fftwf_codelet_t1buv_5_neon
 .text          0x00111710      0x388 ../../fftw-3.3.4/.libs//libfftw3f.a(t1buv_6.o)
                0x00111a80                fftwf_codelet_t1buv_6_neon
 .text          0x00111a98      0x518 ../../fftw-3.3.4/.libs//libfftw3f.a(t1buv_7.o)
                0x00111f98                fftwf_codelet_t1buv_7_neon
 .text          0x00111fb0      0x4d0 ../../fftw-3.3.4/.libs//libfftw3f.a(t1buv_8.o)
                0x00112468                fftwf_codelet_t1buv_8_neon
 .text          0x00112480      0x750 ../../fftw-3.3.4/.libs//libfftw3f.a(t1buv_9.o)
                0x00112bb8                fftwf_codelet_t1buv_9_neon
 .text          0x00112bd0      0x4e8 ../../fftw-3.3.4/.libs//libfftw3f.a(t1bv_10.o)
                0x001130a0                fftwf_codelet_t1bv_10_neon
 .text          0x001130b8      0x5f0 ../../fftw-3.3.4/.libs//libfftw3f.a(t1bv_12.o)
                0x00113690                fftwf_codelet_t1bv_12_neon
 .text          0x001136a8      0x978 ../../fftw-3.3.4/.libs//libfftw3f.a(t1bv_15.o)
                0x00114008                fftwf_codelet_t1bv_15_neon
 .text          0x00114020      0x900 ../../fftw-3.3.4/.libs//libfftw3f.a(t1bv_16.o)
                0x00114908                fftwf_codelet_t1bv_16_neon
 .text          0x00114920       0xb8 ../../fftw-3.3.4/.libs//libfftw3f.a(t1bv_2.o)
                0x001149c0                fftwf_codelet_t1bv_2_neon
 .text          0x001149d8      0xc88 ../../fftw-3.3.4/.libs//libfftw3f.a(t1bv_20.o)
                0x0011564c                fftwf_codelet_t1bv_20_neon
 .text          0x00115660     0x1e78 ../../fftw-3.3.4/.libs//libfftw3f.a(t1bv_25.o)
                0x001174c0                fftwf_codelet_t1bv_25_neon
 .text          0x001174d8      0x138 ../../fftw-3.3.4/.libs//libfftw3f.a(t1bv_3.o)
                0x001175f8                fftwf_codelet_t1bv_3_neon
 .text          0x00117610     0x1a58 ../../fftw-3.3.4/.libs//libfftw3f.a(t1bv_32.o)
                0x00119054                fftwf_codelet_t1bv_32_neon
 .text          0x00119068      0x170 ../../fftw-3.3.4/.libs//libfftw3f.a(t1bv_4.o)
                0x001191c0                fftwf_codelet_t1bv_4_neon
 .text          0x001191d8      0x238 ../../fftw-3.3.4/.libs//libfftw3f.a(t1bv_5.o)
                0x001193f8                fftwf_codelet_t1bv_5_neon
 .text          0x00119410      0x288 ../../fftw-3.3.4/.libs//libfftw3f.a(t1bv_6.o)
                0x00119680                fftwf_codelet_t1bv_6_neon
 .text          0x00119698     0x44a8 ../../fftw-3.3.4/.libs//libfftw3f.a(t1bv_64.o)
                0x0011db28                fftwf_codelet_t1bv_64_neon
 .text          0x0011db40      0x3c8 ../../fftw-3.3.4/.libs//libfftw3f.a(t1bv_7.o)
                0x0011def0                fftwf_codelet_t1bv_7_neon
 .text          0x0011df08      0x340 ../../fftw-3.3.4/.libs//libfftw3f.a(t1bv_8.o)
                0x0011e230                fftwf_codelet_t1bv_8_neon
 .text          0x0011e248      0x5a0 ../../fftw-3.3.4/.libs//libfftw3f.a(t1bv_9.o)
                0x0011e7d0                fftwf_codelet_t1bv_9_neon
 .text          0x0011e7e8      0x668 ../../fftw-3.3.4/.libs//libfftw3f.a(t1fuv_10.o)
                0x0011ee38                fftwf_codelet_t1fuv_10_neon
 .text          0x0011ee50       0xe0 ../../fftw-3.3.4/.libs//libfftw3f.a(t1fuv_2.o)
                0x0011ef18                fftwf_codelet_t1fuv_2_neon
 .text          0x0011ef30      0x190 ../../fftw-3.3.4/.libs//libfftw3f.a(t1fuv_3.o)
                0x0011f0a8                fftwf_codelet_t1fuv_3_neon
 .text          0x0011f0c0      0x1f8 ../../fftw-3.3.4/.libs//libfftw3f.a(t1fuv_4.o)
                0x0011f2a0                fftwf_codelet_t1fuv_4_neon
 .text          0x0011f2b8      0x308 ../../fftw-3.3.4/.libs//libfftw3f.a(t1fuv_5.o)
                0x0011f5a8                fftwf_codelet_t1fuv_5_neon
 .text          0x0011f5c0      0x380 ../../fftw-3.3.4/.libs//libfftw3f.a(t1fuv_6.o)
                0x0011f928                fftwf_codelet_t1fuv_6_neon
 .text          0x0011f940      0x4e8 ../../fftw-3.3.4/.libs//libfftw3f.a(t1fuv_7.o)
                0x0011fe10                fftwf_codelet_t1fuv_7_neon
 .text          0x0011fe28      0x4b8 ../../fftw-3.3.4/.libs//libfftw3f.a(t1fuv_8.o)
                0x001202c8                fftwf_codelet_t1fuv_8_neon
 .text          0x001202e0      0x768 ../../fftw-3.3.4/.libs//libfftw3f.a(t1fuv_9.o)
                0x00120a30                fftwf_codelet_t1fuv_9_neon
 .text          0x00120a48      0x4f0 ../../fftw-3.3.4/.libs//libfftw3f.a(t1fv_10.o)
                0x00120f20                fftwf_codelet_t1fv_10_neon
 .text          0x00120f38      0x5a8 ../../fftw-3.3.4/.libs//libfftw3f.a(t1fv_12.o)
                0x001214cc                fftwf_codelet_t1fv_12_neon
 .text          0x001214e0      0x950 ../../fftw-3.3.4/.libs//libfftw3f.a(t1fv_15.o)
                0x00121e18                fftwf_codelet_t1fv_15_neon
 .text          0x00121e30      0x928 ../../fftw-3.3.4/.libs//libfftw3f.a(t1fv_16.o)
                0x00122740                fftwf_codelet_t1fv_16_neon
 .text          0x00122758       0xb8 ../../fftw-3.3.4/.libs//libfftw3f.a(t1fv_2.o)
                0x001227f8                fftwf_codelet_t1fv_2_neon
 .text          0x00122810      0xd00 ../../fftw-3.3.4/.libs//libfftw3f.a(t1fv_20.o)
                0x001234f8                fftwf_codelet_t1fv_20_neon
 .text          0x00123510     0x1ee8 ../../fftw-3.3.4/.libs//libfftw3f.a(t1fv_25.o)
                0x001253e0                fftwf_codelet_t1fv_25_neon
 .text          0x001253f8      0x138 ../../fftw-3.3.4/.libs//libfftw3f.a(t1fv_3.o)
                0x00125518                fftwf_codelet_t1fv_3_neon
 .text          0x00125530     0x19d8 ../../fftw-3.3.4/.libs//libfftw3f.a(t1fv_32.o)
                0x00126ef4                fftwf_codelet_t1fv_32_neon
 .text          0x00126f08      0x170 ../../fftw-3.3.4/.libs//libfftw3f.a(t1fv_4.o)
                0x00127060                fftwf_codelet_t1fv_4_neon
 .text          0x00127078      0x238 ../../fftw-3.3.4/.libs//libfftw3f.a(t1fv_5.o)
                0x00127298                fftwf_codelet_t1fv_5_neon
 .text          0x001272b0      0x288 ../../fftw-3.3.4/.libs//libfftw3f.a(t1fv_6.o)
                0x00127520                fftwf_codelet_t1fv_6_neon
 .text          0x00127538     0x4958 ../../fftw-3.3.4/.libs//libfftw3f.a(t1fv_64.o)
                0x0012be7c                fftwf_codelet_t1fv_64_neon
 .text          0x0012be90      0x3c0 ../../fftw-3.3.4/.libs//libfftw3f.a(t1fv_7.o)
                0x0012c238                fftwf_codelet_t1fv_7_neon
 .text          0x0012c250      0x348 ../../fftw-3.3.4/.libs//libfftw3f.a(t1fv_8.o)
                0x0012c580                fftwf_codelet_t1fv_8_neon
 .text          0x0012c598      0x5a8 ../../fftw-3.3.4/.libs//libfftw3f.a(t1fv_9.o)
                0x0012cb2c                fftwf_codelet_t1fv_9_neon
 .text          0x0012cb40     0x10c0 ../../fftw-3.3.4/.libs//libfftw3f.a(t1sv_16.o)
                0x0012dbec                fftwf_codelet_t1sv_16_neon
 .text          0x0012dc00       0xac ../../fftw-3.3.4/.libs//libfftw3f.a(t1sv_2.o)
                0x0012dc98                fftwf_codelet_t1sv_2_neon
 *fill*         0x0012dcac        0x4 
 .text          0x0012dcb0     0x3478 ../../fftw-3.3.4/.libs//libfftw3f.a(t1sv_32.o)
                0x00131114                fftwf_codelet_t1sv_32_neon
 .text          0x00131128      0x19c ../../fftw-3.3.4/.libs//libfftw3f.a(t1sv_4.o)
                0x001312b0                fftwf_codelet_t1sv_4_neon
 *fill*         0x001312c4        0x4 
 .text          0x001312c8      0x4b0 ../../fftw-3.3.4/.libs//libfftw3f.a(t1sv_8.o)
                0x00131760                fftwf_codelet_t1sv_8_neon
 .text          0x00131778      0x410 ../../fftw-3.3.4/.libs//libfftw3f.a(t2bv_10.o)
                0x00131b70                fftwf_codelet_t2bv_10_neon
 .text          0x00131b88      0x738 ../../fftw-3.3.4/.libs//libfftw3f.a(t2bv_16.o)
                0x001322a8                fftwf_codelet_t2bv_16_neon
 .text          0x001322c0       0x88 ../../fftw-3.3.4/.libs//libfftw3f.a(t2bv_2.o)
                0x00132334                fftwf_codelet_t2bv_2_neon
 .text          0x00132348      0xb08 ../../fftw-3.3.4/.libs//libfftw3f.a(t2bv_20.o)
                0x00132e38                fftwf_codelet_t2bv_20_neon
 .text          0x00132e50     0x1b78 ../../fftw-3.3.4/.libs//libfftw3f.a(t2bv_25.o)
                0x001349b0                fftwf_codelet_t2bv_25_neon
 .text          0x001349c8     0x1650 ../../fftw-3.3.4/.libs//libfftw3f.a(t2bv_32.o)
                0x00136004                fftwf_codelet_t2bv_32_neon
 .text          0x00136018      0x128 ../../fftw-3.3.4/.libs//libfftw3f.a(t2bv_4.o)
                0x00136128                fftwf_codelet_t2bv_4_neon
 .text          0x00136140      0x200 ../../fftw-3.3.4/.libs//libfftw3f.a(t2bv_5.o)
                0x00136328                fftwf_codelet_t2bv_5_neon
 .text          0x00136340     0x3f00 ../../fftw-3.3.4/.libs//libfftw3f.a(t2bv_64.o)
                0x0013a228                fftwf_codelet_t2bv_64_neon
 .text          0x0013a240      0x2a8 ../../fftw-3.3.4/.libs//libfftw3f.a(t2bv_8.o)
                0x0013a4d0                fftwf_codelet_t2bv_8_neon
 .text          0x0013a4e8      0x408 ../../fftw-3.3.4/.libs//libfftw3f.a(t2fv_10.o)
                0x0013a8d8                fftwf_codelet_t2fv_10_neon
 .text          0x0013a8f0      0x770 ../../fftw-3.3.4/.libs//libfftw3f.a(t2fv_16.o)
                0x0013b048                fftwf_codelet_t2fv_16_neon
 .text          0x0013b060       0x88 ../../fftw-3.3.4/.libs//libfftw3f.a(t2fv_2.o)
                0x0013b0d4                fftwf_codelet_t2fv_2_neon
 .text          0x0013b0e8      0xac8 ../../fftw-3.3.4/.libs//libfftw3f.a(t2fv_20.o)
                0x0013bb98                fftwf_codelet_t2fv_20_neon
 .text          0x0013bbb0     0x1c20 ../../fftw-3.3.4/.libs//libfftw3f.a(t2fv_25.o)
                0x0013d7b8                fftwf_codelet_t2fv_25_neon
 .text          0x0013d7d0     0x1690 ../../fftw-3.3.4/.libs//libfftw3f.a(t2fv_32.o)
                0x0013ee4c                fftwf_codelet_t2fv_32_neon
 .text          0x0013ee60      0x128 ../../fftw-3.3.4/.libs//libfftw3f.a(t2fv_4.o)
                0x0013ef70                fftwf_codelet_t2fv_4_neon
 .text          0x0013ef88      0x200 ../../fftw-3.3.4/.libs//libfftw3f.a(t2fv_5.o)
                0x0013f170                fftwf_codelet_t2fv_5_neon
 .text          0x0013f188     0x4098 ../../fftw-3.3.4/.libs//libfftw3f.a(t2fv_64.o)
                0x0014320c                fftwf_codelet_t2fv_64_neon
 .text          0x00143220      0x2a8 ../../fftw-3.3.4/.libs//libfftw3f.a(t2fv_8.o)
                0x001434b0                fftwf_codelet_t2fv_8_neon
 .text          0x001434c8     0x10b8 ../../fftw-3.3.4/.libs//libfftw3f.a(t2sv_16.o)
                0x00144568                fftwf_codelet_t2sv_16_neon
 .text          0x00144580     0x3c30 ../../fftw-3.3.4/.libs//libfftw3f.a(t2sv_32.o)
                0x0014819c                fftwf_codelet_t2sv_32_neon
 .text          0x001481b0      0x188 ../../fftw-3.3.4/.libs//libfftw3f.a(t2sv_4.o)
                0x00148324                fftwf_codelet_t2sv_4_neon
 .text          0x00148338      0x560 ../../fftw-3.3.4/.libs//libfftw3f.a(t2sv_8.o)
                0x00148880                fftwf_codelet_t2sv_8_neon
 .text          0x00148898      0x4c8 ../../fftw-3.3.4/.libs//libfftw3f.a(t3bv_10.o)
                0x00148d4c                fftwf_codelet_t3bv_10_neon
 .text          0x00148d60      0xa18 ../../fftw-3.3.4/.libs//libfftw3f.a(t3bv_16.o)
                0x00149760                fftwf_codelet_t3bv_16_neon
 .text          0x00149778      0xde8 ../../fftw-3.3.4/.libs//libfftw3f.a(t3bv_20.o)
                0x0014a54c                fftwf_codelet_t3bv_20_neon
 .text          0x0014a560     0x23d0 ../../fftw-3.3.4/.libs//libfftw3f.a(t3bv_25.o)
                0x0014c918                fftwf_codelet_t3bv_25_neon
 .text          0x0014c930     0x1c58 ../../fftw-3.3.4/.libs//libfftw3f.a(t3bv_32.o)
                0x0014e570                fftwf_codelet_t3bv_32_neon
 .text          0x0014e588      0x170 ../../fftw-3.3.4/.libs//libfftw3f.a(t3bv_4.o)
                0x0014e6e0                fftwf_codelet_t3bv_4_neon
 .text          0x0014e6f8      0x238 ../../fftw-3.3.4/.libs//libfftw3f.a(t3bv_5.o)
                0x0014e918                fftwf_codelet_t3bv_5_neon
 .text          0x0014e930      0x360 ../../fftw-3.3.4/.libs//libfftw3f.a(t3bv_8.o)
                0x0014ec78                fftwf_codelet_t3bv_8_neon
 .text          0x0014ec90      0x4f8 ../../fftw-3.3.4/.libs//libfftw3f.a(t3fv_10.o)
                0x0014f170                fftwf_codelet_t3fv_10_neon
 .text          0x0014f188      0x9c0 ../../fftw-3.3.4/.libs//libfftw3f.a(t3fv_16.o)
                0x0014fb34                fftwf_codelet_t3fv_16_neon
 .text          0x0014fb48      0xe98 ../../fftw-3.3.4/.libs//libfftw3f.a(t3fv_20.o)
                0x001509c8                fftwf_codelet_t3fv_20_neon
 .text          0x001509e0     0x2028 ../../fftw-3.3.4/.libs//libfftw3f.a(t3fv_25.o)
                0x001529f0                fftwf_codelet_t3fv_25_neon
 .text          0x00152a08     0x1c40 ../../fftw-3.3.4/.libs//libfftw3f.a(t3fv_32.o)
                0x00154630                fftwf_codelet_t3fv_32_neon
 .text          0x00154648      0x170 ../../fftw-3.3.4/.libs//libfftw3f.a(t3fv_4.o)
                0x001547a0                fftwf_codelet_t3fv_4_neon
 .text          0x001547b8      0x238 ../../fftw-3.3.4/.libs//libfftw3f.a(t3fv_5.o)
                0x001549d8                fftwf_codelet_t3fv_5_neon
 .text          0x001549f0      0x360 ../../fftw-3.3.4/.libs//libfftw3f.a(t3fv_8.o)
                0x00154d38                fftwf_codelet_t3fv_8_neon
 .text          0x00154d50        0x0 ../../fftw-3.3.4/.libs//libfftw3f.a(lt21-codlist.o)
 .text          0x00154d50      0x7b0 ../../fftw-3.3.4/.libs//libfftw3f.a(hc2cbdftv_10.o)
                0x001554e4                fftwf_codelet_hc2cbdftv_10_neon
 .text          0x00155500      0x950 ../../fftw-3.3.4/.libs//libfftw3f.a(hc2cbdftv_12.o)
                0x00155e38                fftwf_codelet_hc2cbdftv_12_neon
 .text          0x00155e50      0xed8 ../../fftw-3.3.4/.libs//libfftw3f.a(hc2cbdftv_16.o)
                0x00156d0c                fftwf_codelet_hc2cbdftv_16_neon
 .text          0x00156d28      0x100 ../../fftw-3.3.4/.libs//libfftw3f.a(hc2cbdftv_2.o)
                0x00156e10                fftwf_codelet_hc2cbdftv_2_neon
 .text          0x00156e28     0x1390 ../../fftw-3.3.4/.libs//libfftw3f.a(hc2cbdftv_20.o)
                0x0015819c                fftwf_codelet_hc2cbdftv_20_neon
 .text          0x001581b8     0x2818 ../../fftw-3.3.4/.libs//libfftw3f.a(hc2cbdftv_32.o)
                0x0015a9b8                fftwf_codelet_hc2cbdftv_32_neon
 .text          0x0015a9d0      0x230 ../../fftw-3.3.4/.libs//libfftw3f.a(hc2cbdftv_4.o)
                0x0015abe8                fftwf_codelet_hc2cbdftv_4_neon
 .text          0x0015ac00      0x3b8 ../../fftw-3.3.4/.libs//libfftw3f.a(hc2cbdftv_6.o)
                0x0015af9c                fftwf_codelet_hc2cbdftv_6_neon
 .text          0x0015afb8      0x508 ../../fftw-3.3.4/.libs//libfftw3f.a(hc2cbdftv_8.o)
                0x0015b4a4                fftwf_codelet_hc2cbdftv_8_neon
 .text          0x0015b4c0      0x678 ../../fftw-3.3.4/.libs//libfftw3f.a(hc2cfdftv_10.o)
                0x0015bb20                fftwf_codelet_hc2cfdftv_10_neon
 .text          0x0015bb38      0x850 ../../fftw-3.3.4/.libs//libfftw3f.a(hc2cfdftv_12.o)
                0x0015c370                fftwf_codelet_hc2cfdftv_12_neon
 .text          0x0015c388      0xce0 ../../fftw-3.3.4/.libs//libfftw3f.a(hc2cfdftv_16.o)
                0x0015d04c                fftwf_codelet_hc2cfdftv_16_neon
 .text          0x0015d068      0x108 ../../fftw-3.3.4/.libs//libfftw3f.a(hc2cfdftv_2.o)
                0x0015d158                fftwf_codelet_hc2cfdftv_2_neon
 .text          0x0015d170     0x1270 ../../fftw-3.3.4/.libs//libfftw3f.a(hc2cfdftv_20.o)
                0x0015e3c4                fftwf_codelet_hc2cfdftv_20_neon
 .text          0x0015e3e0     0x25a8 ../../fftw-3.3.4/.libs//libfftw3f.a(hc2cfdftv_32.o)
                0x0016096c                fftwf_codelet_hc2cfdftv_32_neon
 .text          0x00160988      0x250 ../../fftw-3.3.4/.libs//libfftw3f.a(hc2cfdftv_4.o)
                0x00160bc0                fftwf_codelet_hc2cfdftv_4_neon
 .text          0x00160bd8      0x3b8 ../../fftw-3.3.4/.libs//libfftw3f.a(hc2cfdftv_6.o)
                0x00160f74                fftwf_codelet_hc2cfdftv_6_neon
 .text          0x00160f90      0x4c0 ../../fftw-3.3.4/.libs//libfftw3f.a(hc2cfdftv_8.o)
                0x00161434                fftwf_codelet_hc2cfdftv_8_neon
 .text          0x00161450        0x4 ../../fftw-3.3.4/.libs//libfftw3f.a(awake.o)
                0x00161450                fftwf_null_awake
 .text          0x00161454      0x29c ../../fftw-3.3.4/.libs//libfftw3f.a(buffered.o)
                0x00161454                fftwf_nbuf
                0x00161514                fftwf_bufdist
                0x0016153c                fftwf_toobig
                0x0016154c                fftwf_nbuf_redundant
 .text          0x001616f0      0x250 ../../fftw-3.3.4/.libs//libfftw3f.a(cpy1d.o)
                0x001616f0                fftwf_cpy1d
 .text          0x00161940      0x4b8 ../../fftw-3.3.4/.libs//libfftw3f.a(cpy2d-pair.o)
                0x00161940                fftwf_cpy2d_pair
                0x00161a38                fftwf_cpy2d_pair_ci
                0x00161c18                fftwf_cpy2d_pair_co
 .text          0x00161df8      0x708 ../../fftw-3.3.4/.libs//libfftw3f.a(cpy2d.o)
                0x00161df8                fftwf_cpy2d
                0x00162318                fftwf_cpy2d_ci
                0x00162370                fftwf_cpy2d_co
                0x001623c8                fftwf_cpy2d_tiled
                0x00162458                fftwf_cpy2d_tiledbuf
 .text          0x00162500        0xc ../../fftw-3.3.4/.libs//libfftw3f.a(iabs.o)
                0x00162500                fftwf_iabs
 .text          0x0016250c       0x20 ../../fftw-3.3.4/.libs//libfftw3f.a(minmax.o)
                0x0016250c                fftwf_imax
                0x0016251c                fftwf_imin
 .text          0x0016252c      0x308 ../../fftw-3.3.4/.libs//libfftw3f.a(pickdim.o)
                0x0016252c                fftwf_pickdim
 .text          0x00162834      0x118 ../../fftw-3.3.4/.libs//libfftw3f.a(rader.o)
                0x00162834                fftwf_rader_tl_insert
                0x00162874                fftwf_rader_tl_find
                0x001628cc                fftwf_rader_tl_delete
 .text          0x0016294c       0x4c ../../fftw-3.3.4/.libs//libfftw3f.a(solvtab.o)
                0x0016294c                fftwf_solvtab_exec
 .text          0x00162998        0x0 ../../fftw-3.3.4/.libs//libfftw3f.a(stride.o)
 .text          0x00162998       0x8c ../../fftw-3.3.4/.libs//libfftw3f.a(tensor2.o)
                0x00162998                fftwf_mktensor_2d
                0x001629cc                fftwf_mktensor_3d
 .text          0x00162a24      0x46c ../../fftw-3.3.4/.libs//libfftw3f.a(tensor4.o)
                0x00162a24                fftwf_tensor_max_index
                0x00162a98                fftwf_tensor_min_istride
                0x00162b08                fftwf_tensor_min_ostride
                0x00162b78                fftwf_tensor_min_stride
                0x00162c44                fftwf_tensor_inplace_strides
                0x00162ca0                fftwf_tensor_inplace_strides2
                0x00162d50                fftwf_tensor_strides_decrease
 .text          0x00162e90      0x688 ../../fftw-3.3.4/.libs//libfftw3f.a(tile2d.o)
                0x00162e90                fftwf_tile2d
                0x001634fc                fftwf_compute_tilesz
 .text          0x00163518      0xcb8 ../../fftw-3.3.4/.libs//libfftw3f.a(transpose.o)
                0x00163e24                fftwf_transpose
                0x00164104                fftwf_transpose_tiled
                0x00164160                fftwf_transpose_tiledbuf
 .text          0x001641d0      0x428 ../../fftw-3.3.4/.libs//libfftw3f.a(trig.o)
                0x00164438                fftwf_mktriggen
                0x001645d4                fftwf_triggen_destroy
 .text          0x001645f8      0x624 ../../fftw-3.3.4/.libs//libfftw3f.a(twiddle.o)
                0x001645f8                fftwf_twiddle_length
                0x0016468c                fftwf_twiddle_awake
 .text          0x00164c1c      0x6d4 ../../fftw-3.3.4/.libs//libfftw3f.a(bluestein.o)
                0x001652c8                fftwf_dft_bluestein_register
 .text          0x001652f0      0x684 ../../fftw-3.3.4/.libs//libfftw3f.a(lt1-buffered.o)
                0x00165920                fftwf_dft_buffered_register
 .text          0x00165974      0x5a0 ../../fftw-3.3.4/.libs//libfftw3f.a(lt2-ct.o)
                0x00165aa4                fftwf_ct_applicable
                0x00165ecc                fftwf_mksolver_ct
                0x00165f00                fftwf_mkplan_dftw
 .text          0x00165f14        0x8 ../../fftw-3.3.4/.libs//libfftw3f.a(kdft-difsq.o)
                0x00165f14                fftwf_kdft_difsq_register
 .text          0x00165f1c        0x8 ../../fftw-3.3.4/.libs//libfftw3f.a(kdft-dit.o)
                0x00165f1c                fftwf_kdft_dit_register
 .text          0x00165f24       0x44 ../../fftw-3.3.4/.libs//libfftw3f.a(kdft.o)
                0x00165f24                fftwf_kdft_register
 .text          0x00165f68       0x78 ../../fftw-3.3.4/.libs//libfftw3f.a(n.o)
 .text          0x00165fe0       0x5c ../../fftw-3.3.4/.libs//libfftw3f.a(t.o)
 .text          0x0016603c      0x7a0 ../../fftw-3.3.4/.libs//libfftw3f.a(lt6-buffered.o)
                0x00166788                fftwf_rdft_buffered_register
 .text          0x001667dc      0xa00 ../../fftw-3.3.4/.libs//libfftw3f.a(buffered2.o)
                0x00167188                fftwf_rdft2_buffered_register
 .text          0x001671dc        0x4 ../../fftw-3.3.4/.libs//libfftw3f.a(khc2c.o)
                0x001671dc                fftwf_khc2c_register
 .text          0x001671e0        0x4 ../../fftw-3.3.4/.libs//libfftw3f.a(khc2hc.o)
                0x001671e0                fftwf_khc2hc_register
 .text          0x001671e4       0x5c ../../fftw-3.3.4/.libs//libfftw3f.a(kr2c.o)
                0x001671e4                fftwf_kr2c_register
 .text          0x00167240       0x24 ../../fftw-3.3.4/.libs//libfftw3f.a(kr2r.o)
                0x00167240                fftwf_kr2r_register
 .text          0x00167264        0x8 ../../fftw-3.3.4/.libs//libfftw3f.a(hc2c.o)
 .text          0x0016726c        0x0 ../../fftw-3.3.4/.libs//libfftw3f.a(hfb.o)
 .text          0x0016726c        0x0 ../../fftw-3.3.4/.libs//libfftw3f.a(r2c.o)
 .text          0x0016726c        0x0 ../../fftw-3.3.4/.libs//libfftw3f.a(r2r.o)
 .text          0x0016726c      0xbd0 ../../fftw-3.3.4/.libs//libfftw3f.a(genus.o)
 .text          0x00167e3c      0x148 ../../fftw-3.3.4/.libs//libfftw3f.a(lt22-genus.o)
 .text          0x00167f84      0xa98 ../../fftw-3.3.4/.libs//libfftw3f.a(dftw-direct.o)
                0x001688f0                fftwf_regsolver_ct_directw
 .text          0x00168a1c      0x2d4 ../../fftw-3.3.4/.libs//libfftw3f.a(dftw-directsq.o)
                0x00168c50                fftwf_regsolver_ct_directwsq
 .text          0x00168cf0      0x868 ../../fftw-3.3.4/.libs//libfftw3f.a(direct.o)
                0x001694f8                fftwf_mksolver_dft_direct
                0x00169528                fftwf_mksolver_dft_directbuf
 .text          0x00169558      0xfc8 ../../fftw-3.3.4/.libs//libfftw3f.a(ct-hc2c-direct.o)
                0x0016a49c                fftwf_regsolver_hc2c_direct
 .text          0x0016a520      0x78c ../../fftw-3.3.4/.libs//libfftw3f.a(ct-hc2c.o)
                0x0016abb8                fftwf_hc2c_applicable
                0x0016ac6c                fftwf_mksolver_hc2c
                0x0016ac98                fftwf_mkplan_hc2c
 .text          0x0016acac      0x80c ../../fftw-3.3.4/.libs//libfftw3f.a(direct-r2c.o)
                0x0016b458                fftwf_mksolver_rdft_r2c_direct
                0x0016b488                fftwf_mksolver_rdft_r2c_directbuf
 .text          0x0016b4b8      0x1fc ../../fftw-3.3.4/.libs//libfftw3f.a(direct-r2r.o)
                0x0016b68c                fftwf_mksolver_rdft_r2r_direct
 .text          0x0016b6b4      0x33c ../../fftw-3.3.4/.libs//libfftw3f.a(direct2.o)
                0x0016b9c8                fftwf_mksolver_rdft2_direct
 .text          0x0016b9f0      0x924 ../../fftw-3.3.4/.libs//libfftw3f.a(hc2hc-direct.o)
                0x0016c224                fftwf_regsolver_hc2hc_direct
 .text          0x0016c314       0x4c ../../fftw-3.3.4/.libs//libfftw3f.a(ct.o)
                0x0016c314                fftwf_ct_uglyp
 .text          0x0016c360      0x278 /opt/ti-sdk-am335x-evm-07.00.00.00/linux-devkit/sysroots/i686-arago-linux/usr/bin/../lib/gcc/arm-linux-gnueabihf/4.7.3/libgcc.a(_udivsi3.o)
                0x0016c360                __aeabi_uidiv
                0x0016c360                __udivsi3
                0x0016c5bc                __aeabi_uidivmod
 .text          0x0016c5d8      0x2b0 /opt/ti-sdk-am335x-evm-07.00.00.00/linux-devkit/sysroots/i686-arago-linux/usr/bin/../lib/gcc/arm-linux-gnueabihf/4.7.3/libgcc.a(_divsi3.o)
                0x0016c5d8                __divsi3
                0x0016c5d8                __aeabi_idiv
                0x0016c86c                __aeabi_idivmod
 .text          0x0016c888      0x370 /opt/ti-sdk-am335x-evm-07.00.00.00/linux-devkit/sysroots/i686-arago-linux/usr/bin/../lib/gcc/arm-linux-gnueabihf/4.7.3/libgcc.a(_arm_addsubdf3.o)
                0x0016c888                __aeabi_drsub
                0x0016c890                __aeabi_dsub
                0x0016c890                __subdf3
                0x0016c894                __adddf3
                0x0016c894                __aeabi_dadd
                0x0016cb0c                __floatunsidf
                0x0016cb0c                __aeabi_ui2d
                0x0016cb2c                __aeabi_i2d
                0x0016cb2c                __floatsidf
                0x0016cb50                __aeabi_f2d
                0x0016cb50                __extendsfdf2
                0x0016cb8c                __aeabi_ul2d
                0x0016cb8c                __floatundidf
                0x0016cb9c                __floatdidf
                0x0016cb9c                __aeabi_l2d
 .text          0x0016cbf8        0xc /opt/ti-sdk-am335x-evm-07.00.00.00/linux-devkit/sysroots/i686-arago-linux/usr/bin/../lib/gcc/arm-linux-gnueabihf/4.7.3/libgcc.a(_dvmd_lnx.o)
                0x0016cbf8                __aeabi_ldiv0
                0x0016cbf8                __aeabi_idiv0
 .text          0x0016cc04       0x48 /opt/ti-sdk-am335x-evm-07.00.00.00/linux-devkit/sysroots/i686-arago-linux/usr/bin/../arm-linux-gnueabihf/libc/usr/lib/arm-linux-gnueabihf/4.7.3/./libc_nonshared.a(elf-init.oS)
                0x0016cc04                __libc_csu_init
                0x0016cc48                __libc_csu_fini
 .text          0x0016cc4c        0x0 /opt/ti-sdk-am335x-evm-07.00.00.00/linux-devkit/sysroots/i686-arago-linux/usr/bin/../lib/gcc/arm-linux-gnueabihf/4.7.3/crtend.o
 .text          0x0016cc4c        0x0 /opt/ti-sdk-am335x-evm-07.00.00.00/linux-devkit/sysroots/i686-arago-linux/usr/bin/../arm-linux-gnueabihf/libc/usr/lib/arm-linux-gnueabihf/4.7.3/crtn.o
 *(.gnu.warning)
 *(.glue_7t)
 .glue_7t       0x00000000        0x0 linker stubs
 *(.glue_7)
 .glue_7        0x00000000        0x0 linker stubs
 *(.vfp11_veneer)
 .vfp11_veneer  0x00000000        0x0 linker stubs
 *(.v4_bx)
 .v4_bx         0x00000000        0x0 linker stubs

.fini           0x0016cc4c        0x6
 *(SORT(.fini))
 .fini          0x0016cc4c        0x4 /opt/ti-sdk-am335x-evm-07.00.00.00/linux-devkit/sysroots/i686-arago-linux/usr/bin/../arm-linux-gnueabihf/libc/usr/lib/arm-linux-gnueabihf/4.7.3/crti.o
                0x0016cc4c                _fini
 .fini          0x0016cc50        0x2 /opt/ti-sdk-am335x-evm-07.00.00.00/linux-devkit/sysroots/i686-arago-linux/usr/bin/../arm-linux-gnueabihf/libc/usr/lib/arm-linux-gnueabihf/4.7.3/crtn.o
                0x0016cc52                PROVIDE (__etext, .)
                0x0016cc52                PROVIDE (_etext, .)
                0x0016cc52                PROVIDE (etext, .)

.rodata         0x0016cc58    0x13c10
 *(.rodata .rodata.* .gnu.linkonce.r.*)
 .rodata.cst4   0x0016cc58        0x4 /opt/ti-sdk-am335x-evm-07.00.00.00/linux-devkit/sysroots/i686-arago-linux/usr/bin/../arm-linux-gnueabihf/libc/usr/lib/arm-linux-gnueabihf/4.7.3/crt1.o
                0x0016cc58                _IO_stdin_used
 *fill*         0x0016cc5c        0x4 
 .rodata        0x0016cc60      0x308 release/main.o
 .rodata.str1.4
                0x0016cf68      0x270 release/main.o
 .rodata        0x0016d1d8      0x3b0 release/mongoose.o
 .rodata.str1.4
                0x0016d588     0x16b9 release/mongoose.o
                               0x1764 (size before relaxing)
 *fill*         0x0016ec41        0x7 
 .rodata        0x0016ec48       0x10 release/dt78xx_aio.o
 .rodata.str1.4
                0x0016ec58       0x85 release/dt78xx_aio.o
                                 0x88 (size before relaxing)
 *fill*         0x0016ecdd        0x3 
 .rodata.str1.4
                0x0016ece0       0x20 release/dt78xx_misc.o
 .rodata        0x0016ed00       0x10 ../../fftw-3.3.4/.libs//libfftw3f.a(apiplan.o)
 .rodata        0x0016ed10      0x290 ../../fftw-3.3.4/.libs//libfftw3f.a(mapflags.o)
 .rodata.str1.4
                0x0016efa0        0x8 ../../fftw-3.3.4/.libs//libfftw3f.a(alloc.o)
                                  0xc (size before relaxing)
 .rodata.str1.4
                0x0016efa8       0x23 ../../fftw-3.3.4/.libs//libfftw3f.a(assert.o)
                                 0x24 (size before relaxing)
 *fill*         0x0016efcb        0x5 
 .rodata        0x0016efd0       0x20 ../../fftw-3.3.4/.libs//libfftw3f.a(planner.o)
 .rodata.str1.4
                0x0016eff0      0x106 ../../fftw-3.3.4/.libs//libfftw3f.a(planner.o)
                                0x10c (size before relaxing)
 *fill*         0x0016f0f6        0x2 
 .rodata        0x0016f0f8       0x10 ../../fftw-3.3.4/.libs//libfftw3f.a(primes.o)
 .rodata        0x0016f108       0x14 ../../fftw-3.3.4/.libs//libfftw3f.a(problem.o)
 .rodata.str1.4
                0x0016f11c       0x1b ../../fftw-3.3.4/.libs//libfftw3f.a(problem.o)
                                 0x1c (size before relaxing)
 *fill*         0x0016f137        0x1 
 .rodata        0x0016f138       0x14 ../../fftw-3.3.4/.libs//libfftw3f.a(problem2.o)
 .rodata.str1.4
                0x0016f14c       0x1a ../../fftw-3.3.4/.libs//libfftw3f.a(problem2.o)
                                 0x1c (size before relaxing)
 *fill*         0x0016f166        0x2 
 .rodata        0x0016f168      0x180 ../../fftw-3.3.4/.libs//libfftw3f.a(md5.o)
 .rodata.str1.4
                0x0016f2e8       0x20 ../../fftw-3.3.4/.libs//libfftw3f.a(tensor.o)
                                 0x2c (size before relaxing)
 .rodata        0x0016f308       0x60 ../../fftw-3.3.4/.libs//libfftw3f.a(conf.o)
 .rodata.str1.4
                0x0016f368      0x149 ../../fftw-3.3.4/.libs//libfftw3f.a(conf.o)
                                0x14c (size before relaxing)
 *fill*         0x0016f4b1        0x3 
 .rodata        0x0016f4b4       0x18 ../../fftw-3.3.4/.libs//libfftw3f.a(dftw-generic.o)
 .rodata.str1.4
                0x0016f4cc       0x28 ../../fftw-3.3.4/.libs//libfftw3f.a(dftw-generic.o)
 *fill*         0x0016f4f4        0x4 
 .rodata        0x0016f4f8       0x30 ../../fftw-3.3.4/.libs//libfftw3f.a(dftw-genericbuf.o)
 .rodata.str1.4
                0x0016f528       0x21 ../../fftw-3.3.4/.libs//libfftw3f.a(dftw-genericbuf.o)
                                 0x24 (size before relaxing)
 *fill*         0x0016f549        0x3 
 .rodata        0x0016f54c       0x24 ../../fftw-3.3.4/.libs//libfftw3f.a(generic.o)
 .rodata.str1.4
                0x0016f570       0x11 ../../fftw-3.3.4/.libs//libfftw3f.a(generic.o)
                                 0x14 (size before relaxing)
 *fill*         0x0016f581        0x3 
 .rodata        0x0016f584       0x1c ../../fftw-3.3.4/.libs//libfftw3f.a(indirect-transpose.o)
 .rodata.str1.4
                0x0016f5a0       0x29 ../../fftw-3.3.4/.libs//libfftw3f.a(indirect-transpose.o)
                                 0x2c (size before relaxing)
 *fill*         0x0016f5c9        0x3 
 .rodata        0x0016f5cc       0x34 ../../fftw-3.3.4/.libs//libfftw3f.a(indirect.o)
 .rodata.str1.4
                0x0016f600       0x3b ../../fftw-3.3.4/.libs//libfftw3f.a(indirect.o)
                                 0x3c (size before relaxing)
 *fill*         0x0016f63b        0x1 
 .rodata        0x0016f63c       0x1c ../../fftw-3.3.4/.libs//libfftw3f.a(nop.o)
 .rodata.str1.4
                0x0016f658        0xa ../../fftw-3.3.4/.libs//libfftw3f.a(nop.o)
                                  0xc (size before relaxing)
 *fill*         0x0016f662        0x2 
 .rodata        0x0016f664       0x14 ../../fftw-3.3.4/.libs//libfftw3f.a(lt4-problem.o)
 .rodata.str1.4
                0x0016f678       0x20 ../../fftw-3.3.4/.libs//libfftw3f.a(lt4-problem.o)
 .rodata        0x0016f698       0x1c ../../fftw-3.3.4/.libs//libfftw3f.a(lt5-rader.o)
 .rodata.str1.4
                0x0016f6b4       0x27 ../../fftw-3.3.4/.libs//libfftw3f.a(lt5-rader.o)
                                 0x28 (size before relaxing)
 *fill*         0x0016f6db        0x5 
 .rodata        0x0016f6e0       0x30 ../../fftw-3.3.4/.libs//libfftw3f.a(rank-geq2.o)
 .rodata.str1.4
                0x0016f710       0x1d ../../fftw-3.3.4/.libs//libfftw3f.a(rank-geq2.o)
                                 0x20 (size before relaxing)
 *fill*         0x0016f72d        0x3 
 .rodata        0x0016f730       0x28 ../../fftw-3.3.4/.libs//libfftw3f.a(vrank-geq1.o)
 .rodata.str1.4
                0x0016f758       0x1c ../../fftw-3.3.4/.libs//libfftw3f.a(vrank-geq1.o)
 .rodata        0x0016f774      0x198 ../../fftw-3.3.4/.libs//libfftw3f.a(codlist.o)
                0x0016f774                fftwf_solvtab_dft_standard
 .rodata.str1.4
                0x0016f90c      0x3e7 ../../fftw-3.3.4/.libs//libfftw3f.a(codlist.o)
                                0x3e8 (size before relaxing)
 *fill*         0x0016fcf3        0x5 
 .rodata        0x0016fcf8       0x40 ../../fftw-3.3.4/.libs//libfftw3f.a(n1_10.o)
 .rodata.str1.4
                0x0016fd38        0x6 ../../fftw-3.3.4/.libs//libfftw3f.a(n1_10.o)
                                  0x8 (size before relaxing)
 *fill*         0x0016fd3e        0x2 
 .rodata        0x0016fd40       0x40 ../../fftw-3.3.4/.libs//libfftw3f.a(n1_11.o)
 .rodata.str1.4
                0x0016fd80        0x6 ../../fftw-3.3.4/.libs//libfftw3f.a(n1_11.o)
                                  0x8 (size before relaxing)
 *fill*         0x0016fd86        0x2 
 .rodata        0x0016fd88       0x40 ../../fftw-3.3.4/.libs//libfftw3f.a(n1_12.o)
 .rodata.str1.4
                0x0016fdc8        0x6 ../../fftw-3.3.4/.libs//libfftw3f.a(n1_12.o)
                                  0x8 (size before relaxing)
 *fill*         0x0016fdce        0x2 
 .rodata        0x0016fdd0       0x40 ../../fftw-3.3.4/.libs//libfftw3f.a(n1_13.o)
 .rodata.str1.4
                0x0016fe10        0x6 ../../fftw-3.3.4/.libs//libfftw3f.a(n1_13.o)
                                  0x8 (size before relaxing)
 *fill*         0x0016fe16        0x2 
 .rodata        0x0016fe18       0x40 ../../fftw-3.3.4/.libs//libfftw3f.a(n1_14.o)
 .rodata.str1.4
                0x0016fe58        0x6 ../../fftw-3.3.4/.libs//libfftw3f.a(n1_14.o)
                                  0x8 (size before relaxing)
 *fill*         0x0016fe5e        0x2 
 .rodata        0x0016fe60       0x40 ../../fftw-3.3.4/.libs//libfftw3f.a(n1_15.o)
 .rodata.str1.4
                0x0016fea0        0x6 ../../fftw-3.3.4/.libs//libfftw3f.a(n1_15.o)
                                  0x8 (size before relaxing)
 *fill*         0x0016fea6        0x2 
 .rodata        0x0016fea8       0x40 ../../fftw-3.3.4/.libs//libfftw3f.a(n1_16.o)
 .rodata.str1.4
                0x0016fee8        0x6 ../../fftw-3.3.4/.libs//libfftw3f.a(n1_16.o)
                                  0x8 (size before relaxing)
 *fill*         0x0016feee        0x2 
 .rodata        0x0016fef0       0x40 ../../fftw-3.3.4/.libs//libfftw3f.a(n1_2.o)
 .rodata.str1.4
                0x0016ff30        0x5 ../../fftw-3.3.4/.libs//libfftw3f.a(n1_2.o)
                                  0x8 (size before relaxing)
 *fill*         0x0016ff35        0x3 
 .rodata        0x0016ff38       0x40 ../../fftw-3.3.4/.libs//libfftw3f.a(n1_20.o)
 .rodata.str1.4
                0x0016ff78        0x6 ../../fftw-3.3.4/.libs//libfftw3f.a(n1_20.o)
                                  0x8 (size before relaxing)
 *fill*         0x0016ff7e        0x2 
 .rodata        0x0016ff80       0x40 ../../fftw-3.3.4/.libs//libfftw3f.a(n1_25.o)
 .rodata.str1.4
                0x0016ffc0        0x6 ../../fftw-3.3.4/.libs//libfftw3f.a(n1_25.o)
                                  0x8 (size before relaxing)
 *fill*         0x0016ffc6        0x2 
 .rodata        0x0016ffc8       0x40 ../../fftw-3.3.4/.libs//libfftw3f.a(n1_3.o)
 .rodata.str1.4
                0x00170008        0x5 ../../fftw-3.3.4/.libs//libfftw3f.a(n1_3.o)
                                  0x8 (size before relaxing)
 *fill*         0x0017000d        0x3 
 .rodata        0x00170010       0x40 ../../fftw-3.3.4/.libs//libfftw3f.a(n1_32.o)
 .rodata.str1.4
                0x00170050        0x6 ../../fftw-3.3.4/.libs//libfftw3f.a(n1_32.o)
                                  0x8 (size before relaxing)
 *fill*         0x00170056        0x2 
 .rodata        0x00170058       0x40 ../../fftw-3.3.4/.libs//libfftw3f.a(n1_4.o)
 .rodata.str1.4
                0x00170098        0x5 ../../fftw-3.3.4/.libs//libfftw3f.a(n1_4.o)
                                  0x8 (size before relaxing)
 *fill*         0x0017009d        0x3 
 .rodata        0x001700a0       0x40 ../../fftw-3.3.4/.libs//libfftw3f.a(n1_5.o)
 .rodata.str1.4
                0x001700e0        0x5 ../../fftw-3.3.4/.libs//libfftw3f.a(n1_5.o)
                                  0x8 (size before relaxing)
 *fill*         0x001700e5        0x3 
 .rodata        0x001700e8       0x40 ../../fftw-3.3.4/.libs//libfftw3f.a(n1_6.o)
 .rodata.str1.4
                0x00170128        0x5 ../../fftw-3.3.4/.libs//libfftw3f.a(n1_6.o)
                                  0x8 (size before relaxing)
 *fill*         0x0017012d        0x3 
 .rodata        0x00170130       0x40 ../../fftw-3.3.4/.libs//libfftw3f.a(n1_64.o)
 .rodata.str1.4
                0x00170170        0x6 ../../fftw-3.3.4/.libs//libfftw3f.a(n1_64.o)
                                  0x8 (size before relaxing)
 *fill*         0x00170176        0x2 
 .rodata        0x00170178       0x40 ../../fftw-3.3.4/.libs//libfftw3f.a(n1_7.o)
 .rodata.str1.4
                0x001701b8        0x5 ../../fftw-3.3.4/.libs//libfftw3f.a(n1_7.o)
                                  0x8 (size before relaxing)
 *fill*         0x001701bd        0x3 
 .rodata        0x001701c0       0x40 ../../fftw-3.3.4/.libs//libfftw3f.a(n1_8.o)
 .rodata.str1.4
                0x00170200        0x5 ../../fftw-3.3.4/.libs//libfftw3f.a(n1_8.o)
                                  0x8 (size before relaxing)
 *fill*         0x00170205        0x3 
 .rodata        0x00170208       0x40 ../../fftw-3.3.4/.libs//libfftw3f.a(n1_9.o)
 .rodata.str1.4
                0x00170248        0x5 ../../fftw-3.3.4/.libs//libfftw3f.a(n1_9.o)
                                  0x8 (size before relaxing)
 *fill*         0x0017024d        0x3 
 .rodata        0x00170250       0x48 ../../fftw-3.3.4/.libs//libfftw3f.a(q1_2.o)
 .rodata.str1.4
                0x00170298        0x5 ../../fftw-3.3.4/.libs//libfftw3f.a(q1_2.o)
                                  0x8 (size before relaxing)
 *fill*         0x0017029d        0x3 
 .rodata        0x001702a0       0x48 ../../fftw-3.3.4/.libs//libfftw3f.a(q1_3.o)
 .rodata.str1.4
                0x001702e8        0x5 ../../fftw-3.3.4/.libs//libfftw3f.a(q1_3.o)
                                  0x8 (size before relaxing)
 *fill*         0x001702ed        0x3 
 .rodata        0x001702f0       0x48 ../../fftw-3.3.4/.libs//libfftw3f.a(q1_4.o)
 .rodata.str1.4
                0x00170338        0x5 ../../fftw-3.3.4/.libs//libfftw3f.a(q1_4.o)
                                  0x8 (size before relaxing)
 *fill*         0x0017033d        0x3 
 .rodata        0x00170340       0x48 ../../fftw-3.3.4/.libs//libfftw3f.a(q1_5.o)
 .rodata.str1.4
                0x00170388        0x5 ../../fftw-3.3.4/.libs//libfftw3f.a(q1_5.o)
                                  0x8 (size before relaxing)
 *fill*         0x0017038d        0x3 
 .rodata        0x00170390       0x48 ../../fftw-3.3.4/.libs//libfftw3f.a(q1_6.o)
 .rodata.str1.4
                0x001703d8        0x5 ../../fftw-3.3.4/.libs//libfftw3f.a(q1_6.o)
                                  0x8 (size before relaxing)
 *fill*         0x001703dd        0x3 
 .rodata        0x001703e0       0x48 ../../fftw-3.3.4/.libs//libfftw3f.a(q1_8.o)
 .rodata.str1.4
                0x00170428        0x5 ../../fftw-3.3.4/.libs//libfftw3f.a(q1_8.o)
                                  0x8 (size before relaxing)
 *fill*         0x0017042d        0x3 
 .rodata        0x00170430       0x48 ../../fftw-3.3.4/.libs//libfftw3f.a(t1_10.o)
 .rodata.str1.4
                0x00170478        0x6 ../../fftw-3.3.4/.libs//libfftw3f.a(t1_10.o)
                                  0x8 (size before relaxing)
 *fill*         0x0017047e        0x2 
 .rodata        0x00170480       0x48 ../../fftw-3.3.4/.libs//libfftw3f.a(t1_12.o)
 .rodata.str1.4
                0x001704c8        0x6 ../../fftw-3.3.4/.libs//libfftw3f.a(t1_12.o)
                                  0x8 (size before relaxing)
 *fill*         0x001704ce        0x2 
 .rodata        0x001704d0       0x48 ../../fftw-3.3.4/.libs//libfftw3f.a(t1_15.o)
 .rodata.str1.4
                0x00170518        0x6 ../../fftw-3.3.4/.libs//libfftw3f.a(t1_15.o)
                                  0x8 (size before relaxing)
 *fill*         0x0017051e        0x2 
 .rodata        0x00170520       0x48 ../../fftw-3.3.4/.libs//libfftw3f.a(t1_16.o)
 .rodata.str1.4
                0x00170568        0x6 ../../fftw-3.3.4/.libs//libfftw3f.a(t1_16.o)
                                  0x8 (size before relaxing)
 *fill*         0x0017056e        0x2 
 .rodata        0x00170570       0x48 ../../fftw-3.3.4/.libs//libfftw3f.a(t1_2.o)
 .rodata.str1.4
                0x001705b8        0x5 ../../fftw-3.3.4/.libs//libfftw3f.a(t1_2.o)
                                  0x8 (size before relaxing)
 *fill*         0x001705bd        0x3 
 .rodata        0x001705c0       0x48 ../../fftw-3.3.4/.libs//libfftw3f.a(t1_20.o)
 .rodata.str1.4
                0x00170608        0x6 ../../fftw-3.3.4/.libs//libfftw3f.a(t1_20.o)
                                  0x8 (size before relaxing)
 *fill*         0x0017060e        0x2 
 .rodata        0x00170610       0x48 ../../fftw-3.3.4/.libs//libfftw3f.a(t1_25.o)
 .rodata.str1.4
                0x00170658        0x6 ../../fftw-3.3.4/.libs//libfftw3f.a(t1_25.o)
                                  0x8 (size before relaxing)
 *fill*         0x0017065e        0x2 
 .rodata        0x00170660       0x48 ../../fftw-3.3.4/.libs//libfftw3f.a(t1_3.o)
 .rodata.str1.4
                0x001706a8        0x5 ../../fftw-3.3.4/.libs//libfftw3f.a(t1_3.o)
                                  0x8 (size before relaxing)
 *fill*         0x001706ad        0x3 
 .rodata        0x001706b0       0x48 ../../fftw-3.3.4/.libs//libfftw3f.a(t1_32.o)
 .rodata.str1.4
                0x001706f8        0x6 ../../fftw-3.3.4/.libs//libfftw3f.a(t1_32.o)
                                  0x8 (size before relaxing)
 *fill*         0x001706fe        0x2 
 .rodata        0x00170700       0x48 ../../fftw-3.3.4/.libs//libfftw3f.a(t1_4.o)
 .rodata.str1.4
                0x00170748        0x5 ../../fftw-3.3.4/.libs//libfftw3f.a(t1_4.o)
                                  0x8 (size before relaxing)
 *fill*         0x0017074d        0x3 
 .rodata        0x00170750       0x48 ../../fftw-3.3.4/.libs//libfftw3f.a(t1_5.o)
 .rodata.str1.4
                0x00170798        0x5 ../../fftw-3.3.4/.libs//libfftw3f.a(t1_5.o)
                                  0x8 (size before relaxing)
 *fill*         0x0017079d        0x3 
 .rodata        0x001707a0       0x48 ../../fftw-3.3.4/.libs//libfftw3f.a(t1_6.o)
 .rodata.str1.4
                0x001707e8        0x5 ../../fftw-3.3.4/.libs//libfftw3f.a(t1_6.o)
                                  0x8 (size before relaxing)
 *fill*         0x001707ed        0x3 
 .rodata        0x001707f0       0x48 ../../fftw-3.3.4/.libs//libfftw3f.a(t1_64.o)
 .rodata.str1.4
                0x00170838        0x6 ../../fftw-3.3.4/.libs//libfftw3f.a(t1_64.o)
                                  0x8 (size before relaxing)
 *fill*         0x0017083e        0x2 
 .rodata        0x00170840       0x48 ../../fftw-3.3.4/.libs//libfftw3f.a(t1_7.o)
 .rodata.str1.4
                0x00170888        0x5 ../../fftw-3.3.4/.libs//libfftw3f.a(t1_7.o)
                                  0x8 (size before relaxing)
 *fill*         0x0017088d        0x3 
 .rodata        0x00170890       0x48 ../../fftw-3.3.4/.libs//libfftw3f.a(t1_8.o)
 .rodata.str1.4
                0x001708d8        0x5 ../../fftw-3.3.4/.libs//libfftw3f.a(t1_8.o)
                                  0x8 (size before relaxing)
 *fill*         0x001708dd        0x3 
 .rodata        0x001708e0       0x48 ../../fftw-3.3.4/.libs//libfftw3f.a(t1_9.o)
 .rodata.str1.4
                0x00170928        0x5 ../../fftw-3.3.4/.libs//libfftw3f.a(t1_9.o)
                                  0x8 (size before relaxing)
 *fill*         0x0017092d        0x3 
 .rodata        0x00170930       0x50 ../../fftw-3.3.4/.libs//libfftw3f.a(t2_10.o)
 .rodata.str1.4
                0x00170980        0x6 ../../fftw-3.3.4/.libs//libfftw3f.a(t2_10.o)
                                  0x8 (size before relaxing)
 *fill*         0x00170986        0x2 
 .rodata        0x00170988       0x58 ../../fftw-3.3.4/.libs//libfftw3f.a(t2_16.o)
 .rodata.str1.4
                0x001709e0        0x6 ../../fftw-3.3.4/.libs//libfftw3f.a(t2_16.o)
                                  0x8 (size before relaxing)
 *fill*         0x001709e6        0x2 
 .rodata        0x001709e8       0x58 ../../fftw-3.3.4/.libs//libfftw3f.a(t2_20.o)
 .rodata.str1.4
                0x00170a40        0x6 ../../fftw-3.3.4/.libs//libfftw3f.a(t2_20.o)
                                  0x8 (size before relaxing)
 *fill*         0x00170a46        0x2 
 .rodata        0x00170a48       0x58 ../../fftw-3.3.4/.libs//libfftw3f.a(t2_25.o)
 .rodata.str1.4
                0x00170aa0        0x6 ../../fftw-3.3.4/.libs//libfftw3f.a(t2_25.o)
                                  0x8 (size before relaxing)
 *fill*         0x00170aa6        0x2 
 .rodata        0x00170aa8       0x58 ../../fftw-3.3.4/.libs//libfftw3f.a(t2_32.o)
 .rodata.str1.4
                0x00170b00        0x6 ../../fftw-3.3.4/.libs//libfftw3f.a(t2_32.o)
                                  0x8 (size before relaxing)
 *fill*         0x00170b06        0x2 
 .rodata        0x00170b08       0x50 ../../fftw-3.3.4/.libs//libfftw3f.a(t2_4.o)
 .rodata.str1.4
                0x00170b58        0x5 ../../fftw-3.3.4/.libs//libfftw3f.a(t2_4.o)
                                  0x8 (size before relaxing)
 *fill*         0x00170b5d        0x3 
 .rodata        0x00170b60       0x50 ../../fftw-3.3.4/.libs//libfftw3f.a(t2_5.o)
 .rodata.str1.4
                0x00170bb0        0x5 ../../fftw-3.3.4/.libs//libfftw3f.a(t2_5.o)
                                  0x8 (size before relaxing)
 *fill*         0x00170bb5        0x3 
 .rodata        0x00170bb8       0x58 ../../fftw-3.3.4/.libs//libfftw3f.a(t2_64.o)
 .rodata.str1.4
                0x00170c10        0x6 ../../fftw-3.3.4/.libs//libfftw3f.a(t2_64.o)
                                  0x8 (size before relaxing)
 *fill*         0x00170c16        0x2 
 .rodata        0x00170c18       0x50 ../../fftw-3.3.4/.libs//libfftw3f.a(t2_8.o)
 .rodata.str1.4
                0x00170c68        0x5 ../../fftw-3.3.4/.libs//libfftw3f.a(t2_8.o)
                                  0x8 (size before relaxing)
 *fill*         0x00170c6d        0x3 
 .rodata        0x00170c70       0xa0 ../../fftw-3.3.4/.libs//libfftw3f.a(lt7-conf.o)
 .rodata.str1.4
                0x00170d10      0x22d ../../fftw-3.3.4/.libs//libfftw3f.a(lt7-conf.o)
                                0x230 (size before relaxing)
 *fill*         0x00170f3d        0x3 
 .rodata        0x00170f40       0x1c ../../fftw-3.3.4/.libs//libfftw3f.a(dft-r2hc.o)
 .rodata.str1.4
                0x00170f5c       0x14 ../../fftw-3.3.4/.libs//libfftw3f.a(dft-r2hc.o)
 .rodata        0x00170f70       0x1c ../../fftw-3.3.4/.libs//libfftw3f.a(dht-r2hc.o)
 .rodata.str1.4
                0x00170f8c       0x14 ../../fftw-3.3.4/.libs//libfftw3f.a(dht-r2hc.o)
 .rodata        0x00170fa0       0x30 ../../fftw-3.3.4/.libs//libfftw3f.a(dht-rader.o)
 .rodata.str1.4
                0x00170fd0       0x21 ../../fftw-3.3.4/.libs//libfftw3f.a(dht-rader.o)
                                 0x2c (size before relaxing)
 *fill*         0x00170ff1        0x3 
 .rodata        0x00170ff4       0x24 ../../fftw-3.3.4/.libs//libfftw3f.a(lt8-generic.o)
 .rodata.str1.4
                0x00171018       0x25 ../../fftw-3.3.4/.libs//libfftw3f.a(lt8-generic.o)
                                 0x28 (size before relaxing)
 *fill*         0x0017103d        0x3 
 .rodata        0x00171040       0x18 ../../fftw-3.3.4/.libs//libfftw3f.a(hc2hc-generic.o)
 .rodata.str1.4
                0x00171058       0x27 ../../fftw-3.3.4/.libs//libfftw3f.a(hc2hc-generic.o)
                                 0x30 (size before relaxing)
 *fill*         0x0017107f        0x1 
 .rodata        0x00171080       0x1c ../../fftw-3.3.4/.libs//libfftw3f.a(hc2hc.o)
 .rodata.str1.4
                0x0017109c       0x1c ../../fftw-3.3.4/.libs//libfftw3f.a(hc2hc.o)
                                 0x24 (size before relaxing)
 .rodata        0x001710b8       0x34 ../../fftw-3.3.4/.libs//libfftw3f.a(lt9-indirect.o)
 .rodata.str1.4
                0x001710ec       0x2c ../../fftw-3.3.4/.libs//libfftw3f.a(lt9-indirect.o)
                                 0x40 (size before relaxing)
 .rodata        0x00171118       0x1c ../../fftw-3.3.4/.libs//libfftw3f.a(lt10-nop.o)
 .rodata.str1.4
                0x00171134        0xb ../../fftw-3.3.4/.libs//libfftw3f.a(lt10-nop.o)
                                  0xc (size before relaxing)
 *fill*         0x0017113f        0x1 
 .rodata        0x00171140       0x1c ../../fftw-3.3.4/.libs//libfftw3f.a(nop2.o)
 .rodata.str1.4
                0x0017115c        0xc ../../fftw-3.3.4/.libs//libfftw3f.a(nop2.o)
 .rodata        0x00171168       0xa0 ../../fftw-3.3.4/.libs//libfftw3f.a(lt12-problem.o)
 .rodata.str1.4
                0x00171208       0x1d ../../fftw-3.3.4/.libs//libfftw3f.a(lt12-problem.o)
                                 0x24 (size before relaxing)
 *fill*         0x00171225        0x3 
 .rodata        0x00171228       0x30 ../../fftw-3.3.4/.libs//libfftw3f.a(rank-geq2-rdft2.o)
 .rodata.str1.4
                0x00171258       0x1f ../../fftw-3.3.4/.libs//libfftw3f.a(rank-geq2-rdft2.o)
                                 0x20 (size before relaxing)
 *fill*         0x00171277        0x1 
 .rodata        0x00171278       0x30 ../../fftw-3.3.4/.libs//libfftw3f.a(lt13-rank-geq2.o)
 .rodata.str1.4
                0x001712a8       0x1e ../../fftw-3.3.4/.libs//libfftw3f.a(lt13-rank-geq2.o)
                                 0x20 (size before relaxing)
 *fill*         0x001712c6        0x2 
 .rodata        0x001712c8       0x1c ../../fftw-3.3.4/.libs//libfftw3f.a(rank0-rdft2.o)
 .rodata.str1.4
                0x001712e4       0x31 ../../fftw-3.3.4/.libs//libfftw3f.a(rank0-rdft2.o)
                                 0x34 (size before relaxing)
 *fill*         0x00171315        0x3 
 .rodata        0x00171318       0x1c ../../fftw-3.3.4/.libs//libfftw3f.a(rank0.o)
 .rodata.str1.4
                0x00171334       0xce ../../fftw-3.3.4/.libs//libfftw3f.a(rank0.o)
                                 0xd4 (size before relaxing)
 *fill*         0x00171402        0x2 
 .rodata        0x00171404       0x1c ../../fftw-3.3.4/.libs//libfftw3f.a(rdft-dht.o)
 .rodata.str1.4
                0x00171420       0x12 ../../fftw-3.3.4/.libs//libfftw3f.a(rdft-dht.o)
                                 0x24 (size before relaxing)
 *fill*         0x00171432        0x2 
 .rodata        0x00171434       0x1c ../../fftw-3.3.4/.libs//libfftw3f.a(rdft2-rdft.o)
 .rodata.str1.4
                0x00171450       0x27 ../../fftw-3.3.4/.libs//libfftw3f.a(rdft2-rdft.o)
                                 0x38 (size before relaxing)
 *fill*         0x00171477        0x1 
 .rodata        0x00171478       0x28 ../../fftw-3.3.4/.libs//libfftw3f.a(vrank-geq1-rdft2.o)
 .rodata.str1.4
                0x001714a0       0x1e ../../fftw-3.3.4/.libs//libfftw3f.a(vrank-geq1-rdft2.o)
                                 0x20 (size before relaxing)
 *fill*         0x001714be        0x2 
 .rodata        0x001714c0       0x28 ../../fftw-3.3.4/.libs//libfftw3f.a(lt15-vrank-geq1.o)
 .rodata.str1.4
                0x001714e8       0x1d ../../fftw-3.3.4/.libs//libfftw3f.a(lt15-vrank-geq1.o)
                                 0x20 (size before relaxing)
 *fill*         0x00171505        0x3 
 .rodata        0x00171508       0x4c ../../fftw-3.3.4/.libs//libfftw3f.a(vrank3-transpose.o)
 .rodata.str1.4
                0x00171554       0x4b ../../fftw-3.3.4/.libs//libfftw3f.a(vrank3-transpose.o)
                                 0x58 (size before relaxing)
 *fill*         0x0017159f        0x1 
 .rodata        0x001715a0      0x2c0 ../../fftw-3.3.4/.libs//libfftw3f.a(lt16-codlist.o)
                0x001715a0                fftwf_solvtab_rdft_r2cf
 .rodata.str1.4
                0x00171860      0x813 ../../fftw-3.3.4/.libs//libfftw3f.a(lt16-codlist.o)
                                0x814 (size before relaxing)
 *fill*         0x00172073        0x5 
 .rodata        0x00172078       0x48 ../../fftw-3.3.4/.libs//libfftw3f.a(hc2cf2_16.o)
 .rodata.str1.4
                0x001720c0        0xa ../../fftw-3.3.4/.libs//libfftw3f.a(hc2cf2_16.o)
                                  0xc (size before relaxing)
 *fill*         0x001720ca        0x6 
 .rodata        0x001720d0       0x48 ../../fftw-3.3.4/.libs//libfftw3f.a(hc2cf2_20.o)
 .rodata.str1.4
                0x00172118        0xa ../../fftw-3.3.4/.libs//libfftw3f.a(hc2cf2_20.o)
                                  0xc (size before relaxing)
 *fill*         0x00172122        0x6 
 .rodata        0x00172128       0x48 ../../fftw-3.3.4/.libs//libfftw3f.a(hc2cf2_32.o)
 .rodata.str1.4
                0x00172170        0xa ../../fftw-3.3.4/.libs//libfftw3f.a(hc2cf2_32.o)
                                  0xc (size before relaxing)
 *fill*         0x0017217a        0x6 
 .rodata        0x00172180       0x40 ../../fftw-3.3.4/.libs//libfftw3f.a(hc2cf2_4.o)
 .rodata.str1.4
                0x001721c0        0x9 ../../fftw-3.3.4/.libs//libfftw3f.a(hc2cf2_4.o)
                                  0xc (size before relaxing)
 *fill*         0x001721c9        0x7 
 .rodata        0x001721d0       0x40 ../../fftw-3.3.4/.libs//libfftw3f.a(hc2cf2_8.o)
 .rodata.str1.4
                0x00172210        0x9 ../../fftw-3.3.4/.libs//libfftw3f.a(hc2cf2_8.o)
                                  0xc (size before relaxing)
 *fill*         0x00172219        0x7 
 .rodata        0x00172220       0x38 ../../fftw-3.3.4/.libs//libfftw3f.a(hc2cf_10.o)
 .rodata.str1.4
                0x00172258        0x9 ../../fftw-3.3.4/.libs//libfftw3f.a(hc2cf_10.o)
                                  0xc (size before relaxing)
 *fill*         0x00172261        0x7 
 .rodata        0x00172268       0x38 ../../fftw-3.3.4/.libs//libfftw3f.a(hc2cf_12.o)
 .rodata.str1.4
                0x001722a0        0x9 ../../fftw-3.3.4/.libs//libfftw3f.a(hc2cf_12.o)
                                  0xc (size before relaxing)
 *fill*         0x001722a9        0x7 
 .rodata        0x001722b0       0x38 ../../fftw-3.3.4/.libs//libfftw3f.a(hc2cf_16.o)
 .rodata.str1.4
                0x001722e8        0x9 ../../fftw-3.3.4/.libs//libfftw3f.a(hc2cf_16.o)
                                  0xc (size before relaxing)
 *fill*         0x001722f1        0x7 
 .rodata        0x001722f8       0x38 ../../fftw-3.3.4/.libs//libfftw3f.a(hc2cf_2.o)
 .rodata.str1.4
                0x00172330        0x8 ../../fftw-3.3.4/.libs//libfftw3f.a(hc2cf_2.o)
 .rodata        0x00172338       0x38 ../../fftw-3.3.4/.libs//libfftw3f.a(hc2cf_20.o)
 .rodata.str1.4
                0x00172370        0x9 ../../fftw-3.3.4/.libs//libfftw3f.a(hc2cf_20.o)
                                  0xc (size before relaxing)
 *fill*         0x00172379        0x7 
 .rodata        0x00172380       0x38 ../../fftw-3.3.4/.libs//libfftw3f.a(hc2cf_32.o)
 .rodata.str1.4
                0x001723b8        0x9 ../../fftw-3.3.4/.libs//libfftw3f.a(hc2cf_32.o)
                                  0xc (size before relaxing)
 *fill*         0x001723c1        0x7 
 .rodata        0x001723c8       0x38 ../../fftw-3.3.4/.libs//libfftw3f.a(hc2cf_4.o)
 .rodata.str1.4
                0x00172400        0x8 ../../fftw-3.3.4/.libs//libfftw3f.a(hc2cf_4.o)
 .rodata        0x00172408       0x38 ../../fftw-3.3.4/.libs//libfftw3f.a(hc2cf_6.o)
 .rodata.str1.4
                0x00172440        0x8 ../../fftw-3.3.4/.libs//libfftw3f.a(hc2cf_6.o)
 .rodata        0x00172448       0x38 ../../fftw-3.3.4/.libs//libfftw3f.a(hc2cf_8.o)
 .rodata.str1.4
                0x00172480        0x8 ../../fftw-3.3.4/.libs//libfftw3f.a(hc2cf_8.o)
 .rodata        0x00172488       0x48 ../../fftw-3.3.4/.libs//libfftw3f.a(hc2cfdft2_16.o)
 .rodata.str1.4
                0x001724d0        0xd ../../fftw-3.3.4/.libs//libfftw3f.a(hc2cfdft2_16.o)
                                 0x10 (size before relaxing)
 *fill*         0x001724dd        0x3 
 .rodata        0x001724e0       0x48 ../../fftw-3.3.4/.libs//libfftw3f.a(hc2cfdft2_20.o)
 .rodata.str1.4
                0x00172528        0xd ../../fftw-3.3.4/.libs//libfftw3f.a(hc2cfdft2_20.o)
                                 0x10 (size before relaxing)
 *fill*         0x00172535        0x3 
 .rodata        0x00172538       0x48 ../../fftw-3.3.4/.libs//libfftw3f.a(hc2cfdft2_32.o)
 .rodata.str1.4
                0x00172580        0xd ../../fftw-3.3.4/.libs//libfftw3f.a(hc2cfdft2_32.o)
                                 0x10 (size before relaxing)
 *fill*         0x0017258d        0x3 
 .rodata        0x00172590       0x40 ../../fftw-3.3.4/.libs//libfftw3f.a(hc2cfdft2_4.o)
 .rodata.str1.4
                0x001725d0        0xc ../../fftw-3.3.4/.libs//libfftw3f.a(hc2cfdft2_4.o)
 *fill*         0x001725dc        0x4 
 .rodata        0x001725e0       0x40 ../../fftw-3.3.4/.libs//libfftw3f.a(hc2cfdft2_8.o)
 .rodata.str1.4
                0x00172620        0xc ../../fftw-3.3.4/.libs//libfftw3f.a(hc2cfdft2_8.o)
 *fill*         0x0017262c        0x4 
 .rodata        0x00172630       0x38 ../../fftw-3.3.4/.libs//libfftw3f.a(hc2cfdft_10.o)
 .rodata.str1.4
                0x00172668        0xc ../../fftw-3.3.4/.libs//libfftw3f.a(hc2cfdft_10.o)
 *fill*         0x00172674        0x4 
 .rodata        0x00172678       0x38 ../../fftw-3.3.4/.libs//libfftw3f.a(hc2cfdft_12.o)
 .rodata.str1.4
                0x001726b0        0xc ../../fftw-3.3.4/.libs//libfftw3f.a(hc2cfdft_12.o)
 *fill*         0x001726bc        0x4 
 .rodata        0x001726c0       0x38 ../../fftw-3.3.4/.libs//libfftw3f.a(hc2cfdft_16.o)
 .rodata.str1.4
                0x001726f8        0xc ../../fftw-3.3.4/.libs//libfftw3f.a(hc2cfdft_16.o)
 *fill*         0x00172704        0x4 
 .rodata        0x00172708       0x38 ../../fftw-3.3.4/.libs//libfftw3f.a(hc2cfdft_2.o)
 .rodata.str1.4
                0x00172740        0xb ../../fftw-3.3.4/.libs//libfftw3f.a(hc2cfdft_2.o)
                                  0xc (size before relaxing)
 *fill*         0x0017274b        0x5 
 .rodata        0x00172750       0x38 ../../fftw-3.3.4/.libs//libfftw3f.a(hc2cfdft_20.o)
 .rodata.str1.4
                0x00172788        0xc ../../fftw-3.3.4/.libs//libfftw3f.a(hc2cfdft_20.o)
 *fill*         0x00172794        0x4 
 .rodata        0x00172798       0x38 ../../fftw-3.3.4/.libs//libfftw3f.a(hc2cfdft_32.o)
 .rodata.str1.4
                0x001727d0        0xc ../../fftw-3.3.4/.libs//libfftw3f.a(hc2cfdft_32.o)
 *fill*         0x001727dc        0x4 
 .rodata        0x001727e0       0x38 ../../fftw-3.3.4/.libs//libfftw3f.a(hc2cfdft_4.o)
 .rodata.str1.4
                0x00172818        0xb ../../fftw-3.3.4/.libs//libfftw3f.a(hc2cfdft_4.o)
                                  0xc (size before relaxing)
 *fill*         0x00172823        0x5 
 .rodata        0x00172828       0x38 ../../fftw-3.3.4/.libs//libfftw3f.a(hc2cfdft_6.o)
 .rodata.str1.4
                0x00172860        0xb ../../fftw-3.3.4/.libs//libfftw3f.a(hc2cfdft_6.o)
                                  0xc (size before relaxing)
 *fill*         0x0017286b        0x5 
 .rodata        0x00172870       0x38 ../../fftw-3.3.4/.libs//libfftw3f.a(hc2cfdft_8.o)
 .rodata.str1.4
                0x001728a8        0xb ../../fftw-3.3.4/.libs//libfftw3f.a(hc2cfdft_8.o)
                                  0xc (size before relaxing)
 *fill*         0x001728b3        0x5 
 .rodata        0x001728b8       0x48 ../../fftw-3.3.4/.libs//libfftw3f.a(hf2_16.o)
 .rodata.str1.4
                0x00172900        0x7 ../../fftw-3.3.4/.libs//libfftw3f.a(hf2_16.o)
                                  0x8 (size before relaxing)
 *fill*         0x00172907        0x1 
 .rodata        0x00172908       0x48 ../../fftw-3.3.4/.libs//libfftw3f.a(hf2_20.o)
 .rodata.str1.4
                0x00172950        0x7 ../../fftw-3.3.4/.libs//libfftw3f.a(hf2_20.o)
                                  0x8 (size before relaxing)
 *fill*         0x00172957        0x1 
 .rodata        0x00172958       0x48 ../../fftw-3.3.4/.libs//libfftw3f.a(hf2_25.o)
 .rodata.str1.4
                0x001729a0        0x7 ../../fftw-3.3.4/.libs//libfftw3f.a(hf2_25.o)
                                  0x8 (size before relaxing)
 *fill*         0x001729a7        0x1 
 .rodata        0x001729a8       0x48 ../../fftw-3.3.4/.libs//libfftw3f.a(hf2_32.o)
 .rodata.str1.4
                0x001729f0        0x7 ../../fftw-3.3.4/.libs//libfftw3f.a(hf2_32.o)
                                  0x8 (size before relaxing)
 *fill*         0x001729f7        0x1 
 .rodata        0x001729f8       0x40 ../../fftw-3.3.4/.libs//libfftw3f.a(hf2_4.o)
 .rodata.str1.4
                0x00172a38        0x6 ../../fftw-3.3.4/.libs//libfftw3f.a(hf2_4.o)
                                  0x8 (size before relaxing)
 *fill*         0x00172a3e        0x2 
 .rodata        0x00172a40       0x40 ../../fftw-3.3.4/.libs//libfftw3f.a(hf2_5.o)
 .rodata.str1.4
                0x00172a80        0x6 ../../fftw-3.3.4/.libs//libfftw3f.a(hf2_5.o)
                                  0x8 (size before relaxing)
 *fill*         0x00172a86        0x2 
 .rodata        0x00172a88       0x40 ../../fftw-3.3.4/.libs//libfftw3f.a(hf2_8.o)
 .rodata.str1.4
                0x00172ac8        0x6 ../../fftw-3.3.4/.libs//libfftw3f.a(hf2_8.o)
                                  0x8 (size before relaxing)
 *fill*         0x00172ace        0x2 
 .rodata        0x00172ad0       0x38 ../../fftw-3.3.4/.libs//libfftw3f.a(hf_10.o)
 .rodata.str1.4
                0x00172b08        0x6 ../../fftw-3.3.4/.libs//libfftw3f.a(hf_10.o)
                                  0x8 (size before relaxing)
 *fill*         0x00172b0e        0x2 
 .rodata        0x00172b10       0x38 ../../fftw-3.3.4/.libs//libfftw3f.a(hf_12.o)
 .rodata.str1.4
                0x00172b48        0x6 ../../fftw-3.3.4/.libs//libfftw3f.a(hf_12.o)
                                  0x8 (size before relaxing)
 *fill*         0x00172b4e        0x2 
 .rodata        0x00172b50       0x38 ../../fftw-3.3.4/.libs//libfftw3f.a(hf_15.o)
 .rodata.str1.4
                0x00172b88        0x6 ../../fftw-3.3.4/.libs//libfftw3f.a(hf_15.o)
                                  0x8 (size before relaxing)
 *fill*         0x00172b8e        0x2 
 .rodata        0x00172b90       0x38 ../../fftw-3.3.4/.libs//libfftw3f.a(hf_16.o)
 .rodata.str1.4
                0x00172bc8        0x6 ../../fftw-3.3.4/.libs//libfftw3f.a(hf_16.o)
                                  0x8 (size before relaxing)
 *fill*         0x00172bce        0x2 
 .rodata        0x00172bd0       0x38 ../../fftw-3.3.4/.libs//libfftw3f.a(hf_2.o)
 .rodata.str1.4
                0x00172c08        0x5 ../../fftw-3.3.4/.libs//libfftw3f.a(hf_2.o)
                                  0x8 (size before relaxing)
 *fill*         0x00172c0d        0x3 
 .rodata        0x00172c10       0x38 ../../fftw-3.3.4/.libs//libfftw3f.a(hf_20.o)
 .rodata.str1.4
                0x00172c48        0x6 ../../fftw-3.3.4/.libs//libfftw3f.a(hf_20.o)
                                  0x8 (size before relaxing)
 *fill*         0x00172c4e        0x2 
 .rodata        0x00172c50       0x38 ../../fftw-3.3.4/.libs//libfftw3f.a(hf_25.o)
 .rodata.str1.4
                0x00172c88        0x6 ../../fftw-3.3.4/.libs//libfftw3f.a(hf_25.o)
                                  0x8 (size before relaxing)
 *fill*         0x00172c8e        0x2 
 .rodata        0x00172c90       0x38 ../../fftw-3.3.4/.libs//libfftw3f.a(hf_3.o)
 .rodata.str1.4
                0x00172cc8        0x5 ../../fftw-3.3.4/.libs//libfftw3f.a(hf_3.o)
                                  0x8 (size before relaxing)
 *fill*         0x00172ccd        0x3 
 .rodata        0x00172cd0       0x38 ../../fftw-3.3.4/.libs//libfftw3f.a(hf_32.o)
 .rodata.str1.4
                0x00172d08        0x6 ../../fftw-3.3.4/.libs//libfftw3f.a(hf_32.o)
                                  0x8 (size before relaxing)
 *fill*         0x00172d0e        0x2 
 .rodata        0x00172d10       0x38 ../../fftw-3.3.4/.libs//libfftw3f.a(hf_4.o)
 .rodata.str1.4
                0x00172d48        0x5 ../../fftw-3.3.4/.libs//libfftw3f.a(hf_4.o)
                                  0x8 (size before relaxing)
 *fill*         0x00172d4d        0x3 
 .rodata        0x00172d50       0x38 ../../fftw-3.3.4/.libs//libfftw3f.a(hf_5.o)
 .rodata.str1.4
                0x00172d88        0x5 ../../fftw-3.3.4/.libs//libfftw3f.a(hf_5.o)
                                  0x8 (size before relaxing)
 *fill*         0x00172d8d        0x3 
 .rodata        0x00172d90       0x38 ../../fftw-3.3.4/.libs//libfftw3f.a(hf_6.o)
 .rodata.str1.4
                0x00172dc8        0x5 ../../fftw-3.3.4/.libs//libfftw3f.a(hf_6.o)
                                  0x8 (size before relaxing)
 *fill*         0x00172dcd        0x3 
 .rodata        0x00172dd0       0x38 ../../fftw-3.3.4/.libs//libfftw3f.a(hf_64.o)
 .rodata.str1.4
                0x00172e08        0x6 ../../fftw-3.3.4/.libs//libfftw3f.a(hf_64.o)
                                  0x8 (size before relaxing)
 *fill*         0x00172e0e        0x2 
 .rodata        0x00172e10       0x38 ../../fftw-3.3.4/.libs//libfftw3f.a(hf_7.o)
 .rodata.str1.4
                0x00172e48        0x5 ../../fftw-3.3.4/.libs//libfftw3f.a(hf_7.o)
                                  0x8 (size before relaxing)
 *fill*         0x00172e4d        0x3 
 .rodata        0x00172e50       0x38 ../../fftw-3.3.4/.libs//libfftw3f.a(hf_8.o)
 .rodata.str1.4
                0x00172e88        0x5 ../../fftw-3.3.4/.libs//libfftw3f.a(hf_8.o)
                                  0x8 (size before relaxing)
 *fill*         0x00172e8d        0x3 
 .rodata        0x00172e90       0x38 ../../fftw-3.3.4/.libs//libfftw3f.a(hf_9.o)
 .rodata.str1.4
                0x00172ec8        0x5 ../../fftw-3.3.4/.libs//libfftw3f.a(hf_9.o)
                                  0x8 (size before relaxing)
 *fill*         0x00172ecd        0x3 
 .rodata        0x00172ed0       0x30 ../../fftw-3.3.4/.libs//libfftw3f.a(r2cfII_10.o)
 .rodata.str1.4
                0x00172f00        0xa ../../fftw-3.3.4/.libs//libfftw3f.a(r2cfII_10.o)
                                  0xc (size before relaxing)
 *fill*         0x00172f0a        0x6 
 .rodata        0x00172f10       0x30 ../../fftw-3.3.4/.libs//libfftw3f.a(r2cfII_12.o)
 .rodata.str1.4
                0x00172f40        0xa ../../fftw-3.3.4/.libs//libfftw3f.a(r2cfII_12.o)
                                  0xc (size before relaxing)
 *fill*         0x00172f4a        0x6 
 .rodata        0x00172f50       0x30 ../../fftw-3.3.4/.libs//libfftw3f.a(r2cfII_15.o)
 .rodata.str1.4
                0x00172f80        0xa ../../fftw-3.3.4/.libs//libfftw3f.a(r2cfII_15.o)
                                  0xc (size before relaxing)
 *fill*         0x00172f8a        0x6 
 .rodata        0x00172f90       0x30 ../../fftw-3.3.4/.libs//libfftw3f.a(r2cfII_16.o)
 .rodata.str1.4
                0x00172fc0        0xa ../../fftw-3.3.4/.libs//libfftw3f.a(r2cfII_16.o)
                                  0xc (size before relaxing)
 *fill*         0x00172fca        0x6 
 .rodata        0x00172fd0       0x30 ../../fftw-3.3.4/.libs//libfftw3f.a(r2cfII_2.o)
 .rodata.str1.4
                0x00173000        0x9 ../../fftw-3.3.4/.libs//libfftw3f.a(r2cfII_2.o)
                                  0xc (size before relaxing)
 *fill*         0x00173009        0x7 
 .rodata        0x00173010       0x30 ../../fftw-3.3.4/.libs//libfftw3f.a(r2cfII_20.o)
 .rodata.str1.4
                0x00173040        0xa ../../fftw-3.3.4/.libs//libfftw3f.a(r2cfII_20.o)
                                  0xc (size before relaxing)
 *fill*         0x0017304a        0x6 
 .rodata        0x00173050       0x30 ../../fftw-3.3.4/.libs//libfftw3f.a(r2cfII_25.o)
 .rodata.str1.4
                0x00173080        0xa ../../fftw-3.3.4/.libs//libfftw3f.a(r2cfII_25.o)
                                  0xc (size before relaxing)
 *fill*         0x0017308a        0x6 
 .rodata        0x00173090       0x30 ../../fftw-3.3.4/.libs//libfftw3f.a(r2cfII_3.o)
 .rodata.str1.4
                0x001730c0        0x9 ../../fftw-3.3.4/.libs//libfftw3f.a(r2cfII_3.o)
                                  0xc (size before relaxing)
 *fill*         0x001730c9        0x7 
 .rodata        0x001730d0       0x30 ../../fftw-3.3.4/.libs//libfftw3f.a(r2cfII_32.o)
 .rodata.str1.4
                0x00173100        0xa ../../fftw-3.3.4/.libs//libfftw3f.a(r2cfII_32.o)
                                  0xc (size before relaxing)
 *fill*         0x0017310a        0x6 
 .rodata        0x00173110       0x30 ../../fftw-3.3.4/.libs//libfftw3f.a(r2cfII_4.o)
 .rodata.str1.4
                0x00173140        0x9 ../../fftw-3.3.4/.libs//libfftw3f.a(r2cfII_4.o)
                                  0xc (size before relaxing)
 *fill*         0x00173149        0x7 
 .rodata        0x00173150       0x30 ../../fftw-3.3.4/.libs//libfftw3f.a(r2cfII_5.o)
 .rodata.str1.4
                0x00173180        0x9 ../../fftw-3.3.4/.libs//libfftw3f.a(r2cfII_5.o)
                                  0xc (size before relaxing)
 *fill*         0x00173189        0x7 
 .rodata        0x00173190       0x30 ../../fftw-3.3.4/.libs//libfftw3f.a(r2cfII_6.o)
 .rodata.str1.4
                0x001731c0        0x9 ../../fftw-3.3.4/.libs//libfftw3f.a(r2cfII_6.o)
                                  0xc (size before relaxing)
 *fill*         0x001731c9        0x7 
 .rodata        0x001731d0       0x30 ../../fftw-3.3.4/.libs//libfftw3f.a(r2cfII_64.o)
 .rodata.str1.4
                0x00173200        0xa ../../fftw-3.3.4/.libs//libfftw3f.a(r2cfII_64.o)
                                  0xc (size before relaxing)
 *fill*         0x0017320a        0x6 
 .rodata        0x00173210       0x30 ../../fftw-3.3.4/.libs//libfftw3f.a(r2cfII_7.o)
 .rodata.str1.4
                0x00173240        0x9 ../../fftw-3.3.4/.libs//libfftw3f.a(r2cfII_7.o)
                                  0xc (size before relaxing)
 *fill*         0x00173249        0x7 
 .rodata        0x00173250       0x30 ../../fftw-3.3.4/.libs//libfftw3f.a(r2cfII_8.o)
 .rodata.str1.4
                0x00173280        0x9 ../../fftw-3.3.4/.libs//libfftw3f.a(r2cfII_8.o)
                                  0xc (size before relaxing)
 *fill*         0x00173289        0x7 
 .rodata        0x00173290       0x30 ../../fftw-3.3.4/.libs//libfftw3f.a(r2cfII_9.o)
 .rodata.str1.4
                0x001732c0        0x9 ../../fftw-3.3.4/.libs//libfftw3f.a(r2cfII_9.o)
                                  0xc (size before relaxing)
 *fill*         0x001732c9        0x7 
 .rodata        0x001732d0       0x30 ../../fftw-3.3.4/.libs//libfftw3f.a(r2cf_10.o)
 .rodata.str1.4
                0x00173300        0x8 ../../fftw-3.3.4/.libs//libfftw3f.a(r2cf_10.o)
 .rodata        0x00173308       0x30 ../../fftw-3.3.4/.libs//libfftw3f.a(r2cf_11.o)
 .rodata.str1.4
                0x00173338        0x8 ../../fftw-3.3.4/.libs//libfftw3f.a(r2cf_11.o)
 .rodata        0x00173340       0x30 ../../fftw-3.3.4/.libs//libfftw3f.a(r2cf_12.o)
 .rodata.str1.4
                0x00173370        0x8 ../../fftw-3.3.4/.libs//libfftw3f.a(r2cf_12.o)
 .rodata        0x00173378       0x30 ../../fftw-3.3.4/.libs//libfftw3f.a(r2cf_128.o)
 .rodata.str1.4
                0x001733a8        0x9 ../../fftw-3.3.4/.libs//libfftw3f.a(r2cf_128.o)
                                  0xc (size before relaxing)
 *fill*         0x001733b1        0x7 
 .rodata        0x001733b8       0x30 ../../fftw-3.3.4/.libs//libfftw3f.a(r2cf_13.o)
 .rodata.str1.4
                0x001733e8        0x8 ../../fftw-3.3.4/.libs//libfftw3f.a(r2cf_13.o)
 .rodata        0x001733f0       0x30 ../../fftw-3.3.4/.libs//libfftw3f.a(r2cf_14.o)
 .rodata.str1.4
                0x00173420        0x8 ../../fftw-3.3.4/.libs//libfftw3f.a(r2cf_14.o)
 .rodata        0x00173428       0x30 ../../fftw-3.3.4/.libs//libfftw3f.a(r2cf_15.o)
 .rodata.str1.4
                0x00173458        0x8 ../../fftw-3.3.4/.libs//libfftw3f.a(r2cf_15.o)
 .rodata        0x00173460       0x30 ../../fftw-3.3.4/.libs//libfftw3f.a(r2cf_16.o)
 .rodata.str1.4
                0x00173490        0x8 ../../fftw-3.3.4/.libs//libfftw3f.a(r2cf_16.o)
 .rodata        0x00173498       0x30 ../../fftw-3.3.4/.libs//libfftw3f.a(r2cf_2.o)
 .rodata.str1.4
                0x001734c8        0x7 ../../fftw-3.3.4/.libs//libfftw3f.a(r2cf_2.o)
                                  0x8 (size before relaxing)
 *fill*         0x001734cf        0x1 
 .rodata        0x001734d0       0x30 ../../fftw-3.3.4/.libs//libfftw3f.a(r2cf_20.o)
 .rodata.str1.4
                0x00173500        0x8 ../../fftw-3.3.4/.libs//libfftw3f.a(r2cf_20.o)
 .rodata        0x00173508       0x30 ../../fftw-3.3.4/.libs//libfftw3f.a(r2cf_25.o)
 .rodata.str1.4
                0x00173538        0x8 ../../fftw-3.3.4/.libs//libfftw3f.a(r2cf_25.o)
 .rodata        0x00173540       0x30 ../../fftw-3.3.4/.libs//libfftw3f.a(r2cf_3.o)
 .rodata.str1.4
                0x00173570        0x7 ../../fftw-3.3.4/.libs//libfftw3f.a(r2cf_3.o)
                                  0x8 (size before relaxing)
 *fill*         0x00173577        0x1 
 .rodata        0x00173578       0x30 ../../fftw-3.3.4/.libs//libfftw3f.a(r2cf_32.o)
 .rodata.str1.4
                0x001735a8        0x8 ../../fftw-3.3.4/.libs//libfftw3f.a(r2cf_32.o)
 .rodata        0x001735b0       0x30 ../../fftw-3.3.4/.libs//libfftw3f.a(r2cf_4.o)
 .rodata.str1.4
                0x001735e0        0x7 ../../fftw-3.3.4/.libs//libfftw3f.a(r2cf_4.o)
                                  0x8 (size before relaxing)
 *fill*         0x001735e7        0x1 
 .rodata        0x001735e8       0x30 ../../fftw-3.3.4/.libs//libfftw3f.a(r2cf_5.o)
 .rodata.str1.4
                0x00173618        0x7 ../../fftw-3.3.4/.libs//libfftw3f.a(r2cf_5.o)
                                  0x8 (size before relaxing)
 *fill*         0x0017361f        0x1 
 .rodata        0x00173620       0x30 ../../fftw-3.3.4/.libs//libfftw3f.a(r2cf_6.o)
 .rodata.str1.4
                0x00173650        0x7 ../../fftw-3.3.4/.libs//libfftw3f.a(r2cf_6.o)
                                  0x8 (size before relaxing)
 *fill*         0x00173657        0x1 
 .rodata        0x00173658       0x30 ../../fftw-3.3.4/.libs//libfftw3f.a(r2cf_64.o)
 .rodata.str1.4
                0x00173688        0x8 ../../fftw-3.3.4/.libs//libfftw3f.a(r2cf_64.o)
 .rodata        0x00173690       0x30 ../../fftw-3.3.4/.libs//libfftw3f.a(r2cf_7.o)
 .rodata.str1.4
                0x001736c0        0x7 ../../fftw-3.3.4/.libs//libfftw3f.a(r2cf_7.o)
                                  0x8 (size before relaxing)
 *fill*         0x001736c7        0x1 
 .rodata        0x001736c8       0x30 ../../fftw-3.3.4/.libs//libfftw3f.a(r2cf_8.o)
 .rodata.str1.4
                0x001736f8        0x7 ../../fftw-3.3.4/.libs//libfftw3f.a(r2cf_8.o)
                                  0x8 (size before relaxing)
 *fill*         0x001736ff        0x1 
 .rodata        0x00173700       0x30 ../../fftw-3.3.4/.libs//libfftw3f.a(r2cf_9.o)
 .rodata.str1.4
                0x00173730        0x7 ../../fftw-3.3.4/.libs//libfftw3f.a(r2cf_9.o)
                                  0x8 (size before relaxing)
 *fill*         0x00173737        0x1 
 .rodata        0x00173738      0x2c0 ../../fftw-3.3.4/.libs//libfftw3f.a(lt17-codlist.o)
                0x00173738                fftwf_solvtab_rdft_r2cb
 .rodata.str1.4
                0x001739f8      0x833 ../../fftw-3.3.4/.libs//libfftw3f.a(lt17-codlist.o)
                                0x834 (size before relaxing)
 *fill*         0x0017422b        0x5 
 .rodata        0x00174230       0x48 ../../fftw-3.3.4/.libs//libfftw3f.a(hb2_16.o)
 .rodata.str1.4
                0x00174278        0x7 ../../fftw-3.3.4/.libs//libfftw3f.a(hb2_16.o)
                                  0x8 (size before relaxing)
 *fill*         0x0017427f        0x1 
 .rodata        0x00174280       0x48 ../../fftw-3.3.4/.libs//libfftw3f.a(hb2_20.o)
 .rodata.str1.4
                0x001742c8        0x7 ../../fftw-3.3.4/.libs//libfftw3f.a(hb2_20.o)
                                  0x8 (size before relaxing)
 *fill*         0x001742cf        0x1 
 .rodata        0x001742d0       0x48 ../../fftw-3.3.4/.libs//libfftw3f.a(hb2_25.o)
 .rodata.str1.4
                0x00174318        0x7 ../../fftw-3.3.4/.libs//libfftw3f.a(hb2_25.o)
                                  0x8 (size before relaxing)
 *fill*         0x0017431f        0x1 
 .rodata        0x00174320       0x48 ../../fftw-3.3.4/.libs//libfftw3f.a(hb2_32.o)
 .rodata.str1.4
                0x00174368        0x7 ../../fftw-3.3.4/.libs//libfftw3f.a(hb2_32.o)
                                  0x8 (size before relaxing)
 *fill*         0x0017436f        0x1 
 .rodata        0x00174370       0x40 ../../fftw-3.3.4/.libs//libfftw3f.a(hb2_4.o)
 .rodata.str1.4
                0x001743b0        0x6 ../../fftw-3.3.4/.libs//libfftw3f.a(hb2_4.o)
                                  0x8 (size before relaxing)
 *fill*         0x001743b6        0x2 
 .rodata        0x001743b8       0x40 ../../fftw-3.3.4/.libs//libfftw3f.a(hb2_5.o)
 .rodata.str1.4
                0x001743f8        0x6 ../../fftw-3.3.4/.libs//libfftw3f.a(hb2_5.o)
                                  0x8 (size before relaxing)
 *fill*         0x001743fe        0x2 
 .rodata        0x00174400       0x40 ../../fftw-3.3.4/.libs//libfftw3f.a(hb2_8.o)
 .rodata.str1.4
                0x00174440        0x6 ../../fftw-3.3.4/.libs//libfftw3f.a(hb2_8.o)
                                  0x8 (size before relaxing)
 *fill*         0x00174446        0x2 
 .rodata        0x00174448       0x38 ../../fftw-3.3.4/.libs//libfftw3f.a(hb_10.o)
 .rodata.str1.4
                0x00174480        0x6 ../../fftw-3.3.4/.libs//libfftw3f.a(hb_10.o)
                                  0x8 (size before relaxing)
 *fill*         0x00174486        0x2 
 .rodata        0x00174488       0x38 ../../fftw-3.3.4/.libs//libfftw3f.a(hb_12.o)
 .rodata.str1.4
                0x001744c0        0x6 ../../fftw-3.3.4/.libs//libfftw3f.a(hb_12.o)
                                  0x8 (size before relaxing)
 *fill*         0x001744c6        0x2 
 .rodata        0x001744c8       0x38 ../../fftw-3.3.4/.libs//libfftw3f.a(hb_15.o)
 .rodata.str1.4
                0x00174500        0x6 ../../fftw-3.3.4/.libs//libfftw3f.a(hb_15.o)
                                  0x8 (size before relaxing)
 *fill*         0x00174506        0x2 
 .rodata        0x00174508       0x38 ../../fftw-3.3.4/.libs//libfftw3f.a(hb_16.o)
 .rodata.str1.4
                0x00174540        0x6 ../../fftw-3.3.4/.libs//libfftw3f.a(hb_16.o)
                                  0x8 (size before relaxing)
 *fill*         0x00174546        0x2 
 .rodata        0x00174548       0x38 ../../fftw-3.3.4/.libs//libfftw3f.a(hb_2.o)
 .rodata.str1.4
                0x00174580        0x5 ../../fftw-3.3.4/.libs//libfftw3f.a(hb_2.o)
                                  0x8 (size before relaxing)
 *fill*         0x00174585        0x3 
 .rodata        0x00174588       0x38 ../../fftw-3.3.4/.libs//libfftw3f.a(hb_20.o)
 .rodata.str1.4
                0x001745c0        0x6 ../../fftw-3.3.4/.libs//libfftw3f.a(hb_20.o)
                                  0x8 (size before relaxing)
 *fill*         0x001745c6        0x2 
 .rodata        0x001745c8       0x38 ../../fftw-3.3.4/.libs//libfftw3f.a(hb_25.o)
 .rodata.str1.4
                0x00174600        0x6 ../../fftw-3.3.4/.libs//libfftw3f.a(hb_25.o)
                                  0x8 (size before relaxing)
 *fill*         0x00174606        0x2 
 .rodata        0x00174608       0x38 ../../fftw-3.3.4/.libs//libfftw3f.a(hb_3.o)
 .rodata.str1.4
                0x00174640        0x5 ../../fftw-3.3.4/.libs//libfftw3f.a(hb_3.o)
                                  0x8 (size before relaxing)
 *fill*         0x00174645        0x3 
 .rodata        0x00174648       0x38 ../../fftw-3.3.4/.libs//libfftw3f.a(hb_32.o)
 .rodata.str1.4
                0x00174680        0x6 ../../fftw-3.3.4/.libs//libfftw3f.a(hb_32.o)
                                  0x8 (size before relaxing)
 *fill*         0x00174686        0x2 
 .rodata        0x00174688       0x38 ../../fftw-3.3.4/.libs//libfftw3f.a(hb_4.o)
 .rodata.str1.4
                0x001746c0        0x5 ../../fftw-3.3.4/.libs//libfftw3f.a(hb_4.o)
                                  0x8 (size before relaxing)
 *fill*         0x001746c5        0x3 
 .rodata        0x001746c8       0x38 ../../fftw-3.3.4/.libs//libfftw3f.a(hb_5.o)
 .rodata.str1.4
                0x00174700        0x5 ../../fftw-3.3.4/.libs//libfftw3f.a(hb_5.o)
                                  0x8 (size before relaxing)
 *fill*         0x00174705        0x3 
 .rodata        0x00174708       0x38 ../../fftw-3.3.4/.libs//libfftw3f.a(hb_6.o)
 .rodata.str1.4
                0x00174740        0x5 ../../fftw-3.3.4/.libs//libfftw3f.a(hb_6.o)
                                  0x8 (size before relaxing)
 *fill*         0x00174745        0x3 
 .rodata        0x00174748       0x38 ../../fftw-3.3.4/.libs//libfftw3f.a(hb_64.o)
 .rodata.str1.4
                0x00174780        0x6 ../../fftw-3.3.4/.libs//libfftw3f.a(hb_64.o)
                                  0x8 (size before relaxing)
 *fill*         0x00174786        0x2 
 .rodata        0x00174788       0x38 ../../fftw-3.3.4/.libs//libfftw3f.a(hb_7.o)
 .rodata.str1.4
                0x001747c0        0x5 ../../fftw-3.3.4/.libs//libfftw3f.a(hb_7.o)
                                  0x8 (size before relaxing)
 *fill*         0x001747c5        0x3 
 .rodata        0x001747c8       0x38 ../../fftw-3.3.4/.libs//libfftw3f.a(hb_8.o)
 .rodata.str1.4
                0x00174800        0x5 ../../fftw-3.3.4/.libs//libfftw3f.a(hb_8.o)
                                  0x8 (size before relaxing)
 *fill*         0x00174805        0x3 
 .rodata        0x00174808       0x38 ../../fftw-3.3.4/.libs//libfftw3f.a(hb_9.o)
 .rodata.str1.4
                0x00174840        0x5 ../../fftw-3.3.4/.libs//libfftw3f.a(hb_9.o)
                                  0x8 (size before relaxing)
 *fill*         0x00174845        0x3 
 .rodata        0x00174848       0x48 ../../fftw-3.3.4/.libs//libfftw3f.a(hc2cb2_16.o)
 .rodata.str1.4
                0x00174890        0xa ../../fftw-3.3.4/.libs//libfftw3f.a(hc2cb2_16.o)
                                  0xc (size before relaxing)
 *fill*         0x0017489a        0x6 
 .rodata        0x001748a0       0x48 ../../fftw-3.3.4/.libs//libfftw3f.a(hc2cb2_20.o)
 .rodata.str1.4
                0x001748e8        0xa ../../fftw-3.3.4/.libs//libfftw3f.a(hc2cb2_20.o)
                                  0xc (size before relaxing)
 *fill*         0x001748f2        0x6 
 .rodata        0x001748f8       0x48 ../../fftw-3.3.4/.libs//libfftw3f.a(hc2cb2_32.o)
 .rodata.str1.4
                0x00174940        0xa ../../fftw-3.3.4/.libs//libfftw3f.a(hc2cb2_32.o)
                                  0xc (size before relaxing)
 *fill*         0x0017494a        0x6 
 .rodata        0x00174950       0x40 ../../fftw-3.3.4/.libs//libfftw3f.a(hc2cb2_4.o)
 .rodata.str1.4
                0x00174990        0x9 ../../fftw-3.3.4/.libs//libfftw3f.a(hc2cb2_4.o)
                                  0xc (size before relaxing)
 *fill*         0x00174999        0x7 
 .rodata        0x001749a0       0x40 ../../fftw-3.3.4/.libs//libfftw3f.a(hc2cb2_8.o)
 .rodata.str1.4
                0x001749e0        0x9 ../../fftw-3.3.4/.libs//libfftw3f.a(hc2cb2_8.o)
                                  0xc (size before relaxing)
 *fill*         0x001749e9        0x7 
 .rodata        0x001749f0       0x38 ../../fftw-3.3.4/.libs//libfftw3f.a(hc2cb_10.o)
 .rodata.str1.4
                0x00174a28        0x9 ../../fftw-3.3.4/.libs//libfftw3f.a(hc2cb_10.o)
                                  0xc (size before relaxing)
 *fill*         0x00174a31        0x7 
 .rodata        0x00174a38       0x38 ../../fftw-3.3.4/.libs//libfftw3f.a(hc2cb_12.o)
 .rodata.str1.4
                0x00174a70        0x9 ../../fftw-3.3.4/.libs//libfftw3f.a(hc2cb_12.o)
                                  0xc (size before relaxing)
 *fill*         0x00174a79        0x7 
 .rodata        0x00174a80       0x38 ../../fftw-3.3.4/.libs//libfftw3f.a(hc2cb_16.o)
 .rodata.str1.4
                0x00174ab8        0x9 ../../fftw-3.3.4/.libs//libfftw3f.a(hc2cb_16.o)
                                  0xc (size before relaxing)
 *fill*         0x00174ac1        0x7 
 .rodata        0x00174ac8       0x38 ../../fftw-3.3.4/.libs//libfftw3f.a(hc2cb_2.o)
 .rodata.str1.4
                0x00174b00        0x8 ../../fftw-3.3.4/.libs//libfftw3f.a(hc2cb_2.o)
 .rodata        0x00174b08       0x38 ../../fftw-3.3.4/.libs//libfftw3f.a(hc2cb_20.o)
 .rodata.str1.4
                0x00174b40        0x9 ../../fftw-3.3.4/.libs//libfftw3f.a(hc2cb_20.o)
                                  0xc (size before relaxing)
 *fill*         0x00174b49        0x7 
 .rodata        0x00174b50       0x38 ../../fftw-3.3.4/.libs//libfftw3f.a(hc2cb_32.o)
 .rodata.str1.4
                0x00174b88        0x9 ../../fftw-3.3.4/.libs//libfftw3f.a(hc2cb_32.o)
                                  0xc (size before relaxing)
 *fill*         0x00174b91        0x7 
 .rodata        0x00174b98       0x38 ../../fftw-3.3.4/.libs//libfftw3f.a(hc2cb_4.o)
 .rodata.str1.4
                0x00174bd0        0x8 ../../fftw-3.3.4/.libs//libfftw3f.a(hc2cb_4.o)
 .rodata        0x00174bd8       0x38 ../../fftw-3.3.4/.libs//libfftw3f.a(hc2cb_6.o)
 .rodata.str1.4
                0x00174c10        0x8 ../../fftw-3.3.4/.libs//libfftw3f.a(hc2cb_6.o)
 .rodata        0x00174c18       0x38 ../../fftw-3.3.4/.libs//libfftw3f.a(hc2cb_8.o)
 .rodata.str1.4
                0x00174c50        0x8 ../../fftw-3.3.4/.libs//libfftw3f.a(hc2cb_8.o)
 .rodata        0x00174c58       0x38 ../../fftw-3.3.4/.libs//libfftw3f.a(hc2cbdft2_16.o)
 .rodata.str1.4
                0x00174c90        0xd ../../fftw-3.3.4/.libs//libfftw3f.a(hc2cbdft2_16.o)
                                 0x10 (size before relaxing)
 *fill*         0x00174c9d        0x3 
 .rodata        0x00174ca0       0x38 ../../fftw-3.3.4/.libs//libfftw3f.a(hc2cbdft2_20.o)
 .rodata.str1.4
                0x00174cd8        0xd ../../fftw-3.3.4/.libs//libfftw3f.a(hc2cbdft2_20.o)
                                 0x10 (size before relaxing)
 *fill*         0x00174ce5        0x3 
 .rodata        0x00174ce8       0x38 ../../fftw-3.3.4/.libs//libfftw3f.a(hc2cbdft2_32.o)
 .rodata.str1.4
                0x00174d20        0xd ../../fftw-3.3.4/.libs//libfftw3f.a(hc2cbdft2_32.o)
                                 0x10 (size before relaxing)
 *fill*         0x00174d2d        0x3 
 .rodata        0x00174d30       0x38 ../../fftw-3.3.4/.libs//libfftw3f.a(hc2cbdft2_4.o)
 .rodata.str1.4
                0x00174d68        0xc ../../fftw-3.3.4/.libs//libfftw3f.a(hc2cbdft2_4.o)
 *fill*         0x00174d74        0x4 
 .rodata        0x00174d78       0x38 ../../fftw-3.3.4/.libs//libfftw3f.a(hc2cbdft2_8.o)
 .rodata.str1.4
                0x00174db0        0xc ../../fftw-3.3.4/.libs//libfftw3f.a(hc2cbdft2_8.o)
 *fill*         0x00174dbc        0x4 
 .rodata        0x00174dc0       0x38 ../../fftw-3.3.4/.libs//libfftw3f.a(hc2cbdft_10.o)
 .rodata.str1.4
                0x00174df8        0xc ../../fftw-3.3.4/.libs//libfftw3f.a(hc2cbdft_10.o)
 *fill*         0x00174e04        0x4 
 .rodata        0x00174e08       0x38 ../../fftw-3.3.4/.libs//libfftw3f.a(hc2cbdft_12.o)
 .rodata.str1.4
                0x00174e40        0xc ../../fftw-3.3.4/.libs//libfftw3f.a(hc2cbdft_12.o)
 *fill*         0x00174e4c        0x4 
 .rodata        0x00174e50       0x38 ../../fftw-3.3.4/.libs//libfftw3f.a(hc2cbdft_16.o)
 .rodata.str1.4
                0x00174e88        0xc ../../fftw-3.3.4/.libs//libfftw3f.a(hc2cbdft_16.o)
 *fill*         0x00174e94        0x4 
 .rodata        0x00174e98       0x38 ../../fftw-3.3.4/.libs//libfftw3f.a(hc2cbdft_2.o)
 .rodata.str1.4
                0x00174ed0        0xb ../../fftw-3.3.4/.libs//libfftw3f.a(hc2cbdft_2.o)
                                  0xc (size before relaxing)
 *fill*         0x00174edb        0x5 
 .rodata        0x00174ee0       0x38 ../../fftw-3.3.4/.libs//libfftw3f.a(hc2cbdft_20.o)
 .rodata.str1.4
                0x00174f18        0xc ../../fftw-3.3.4/.libs//libfftw3f.a(hc2cbdft_20.o)
 *fill*         0x00174f24        0x4 
 .rodata        0x00174f28       0x38 ../../fftw-3.3.4/.libs//libfftw3f.a(hc2cbdft_32.o)
 .rodata.str1.4
                0x00174f60        0xc ../../fftw-3.3.4/.libs//libfftw3f.a(hc2cbdft_32.o)
 *fill*         0x00174f6c        0x4 
 .rodata        0x00174f70       0x38 ../../fftw-3.3.4/.libs//libfftw3f.a(hc2cbdft_4.o)
 .rodata.str1.4
                0x00174fa8        0xb ../../fftw-3.3.4/.libs//libfftw3f.a(hc2cbdft_4.o)
                                  0xc (size before relaxing)
 *fill*         0x00174fb3        0x5 
 .rodata        0x00174fb8       0x38 ../../fftw-3.3.4/.libs//libfftw3f.a(hc2cbdft_6.o)
 .rodata.str1.4
                0x00174ff0        0xb ../../fftw-3.3.4/.libs//libfftw3f.a(hc2cbdft_6.o)
                                  0xc (size before relaxing)
 *fill*         0x00174ffb        0x5 
 .rodata        0x00175000       0x38 ../../fftw-3.3.4/.libs//libfftw3f.a(hc2cbdft_8.o)
 .rodata.str1.4
                0x00175038        0xb ../../fftw-3.3.4/.libs//libfftw3f.a(hc2cbdft_8.o)
                                  0xc (size before relaxing)
 *fill*         0x00175043        0x5 
 .rodata        0x00175048       0x30 ../../fftw-3.3.4/.libs//libfftw3f.a(r2cbIII_10.o)
 .rodata.str1.4
                0x00175078        0xb ../../fftw-3.3.4/.libs//libfftw3f.a(r2cbIII_10.o)
                                  0xc (size before relaxing)
 *fill*         0x00175083        0x5 
 .rodata        0x00175088       0x30 ../../fftw-3.3.4/.libs//libfftw3f.a(r2cbIII_12.o)
 .rodata.str1.4
                0x001750b8        0xb ../../fftw-3.3.4/.libs//libfftw3f.a(r2cbIII_12.o)
                                  0xc (size before relaxing)
 *fill*         0x001750c3        0x5 
 .rodata        0x001750c8       0x30 ../../fftw-3.3.4/.libs//libfftw3f.a(r2cbIII_15.o)
 .rodata.str1.4
                0x001750f8        0xb ../../fftw-3.3.4/.libs//libfftw3f.a(r2cbIII_15.o)
                                  0xc (size before relaxing)
 *fill*         0x00175103        0x5 
 .rodata        0x00175108       0x30 ../../fftw-3.3.4/.libs//libfftw3f.a(r2cbIII_16.o)
 .rodata.str1.4
                0x00175138        0xb ../../fftw-3.3.4/.libs//libfftw3f.a(r2cbIII_16.o)
                                  0xc (size before relaxing)
 *fill*         0x00175143        0x5 
 .rodata        0x00175148       0x30 ../../fftw-3.3.4/.libs//libfftw3f.a(r2cbIII_2.o)
 .rodata.str1.4
                0x00175178        0xa ../../fftw-3.3.4/.libs//libfftw3f.a(r2cbIII_2.o)
                                  0xc (size before relaxing)
 *fill*         0x00175182        0x6 
 .rodata        0x00175188       0x30 ../../fftw-3.3.4/.libs//libfftw3f.a(r2cbIII_20.o)
 .rodata.str1.4
                0x001751b8        0xb ../../fftw-3.3.4/.libs//libfftw3f.a(r2cbIII_20.o)
                                  0xc (size before relaxing)
 *fill*         0x001751c3        0x5 
 .rodata        0x001751c8       0x30 ../../fftw-3.3.4/.libs//libfftw3f.a(r2cbIII_25.o)
 .rodata.str1.4
                0x001751f8        0xb ../../fftw-3.3.4/.libs//libfftw3f.a(r2cbIII_25.o)
                                  0xc (size before relaxing)
 *fill*         0x00175203        0x5 
 .rodata        0x00175208       0x30 ../../fftw-3.3.4/.libs//libfftw3f.a(r2cbIII_3.o)
 .rodata.str1.4
                0x00175238        0xa ../../fftw-3.3.4/.libs//libfftw3f.a(r2cbIII_3.o)
                                  0xc (size before relaxing)
 *fill*         0x00175242        0x6 
 .rodata        0x00175248       0x30 ../../fftw-3.3.4/.libs//libfftw3f.a(r2cbIII_32.o)
 .rodata.str1.4
                0x00175278        0xb ../../fftw-3.3.4/.libs//libfftw3f.a(r2cbIII_32.o)
                                  0xc (size before relaxing)
 *fill*         0x00175283        0x5 
 .rodata        0x00175288       0x30 ../../fftw-3.3.4/.libs//libfftw3f.a(r2cbIII_4.o)
 .rodata.str1.4
                0x001752b8        0xa ../../fftw-3.3.4/.libs//libfftw3f.a(r2cbIII_4.o)
                                  0xc (size before relaxing)
 *fill*         0x001752c2        0x6 
 .rodata        0x001752c8       0x30 ../../fftw-3.3.4/.libs//libfftw3f.a(r2cbIII_5.o)
 .rodata.str1.4
                0x001752f8        0xa ../../fftw-3.3.4/.libs//libfftw3f.a(r2cbIII_5.o)
                                  0xc (size before relaxing)
 *fill*         0x00175302        0x6 
 .rodata        0x00175308       0x30 ../../fftw-3.3.4/.libs//libfftw3f.a(r2cbIII_6.o)
 .rodata.str1.4
                0x00175338        0xa ../../fftw-3.3.4/.libs//libfftw3f.a(r2cbIII_6.o)
                                  0xc (size before relaxing)
 *fill*         0x00175342        0x6 
 .rodata        0x00175348       0x30 ../../fftw-3.3.4/.libs//libfftw3f.a(r2cbIII_64.o)
 .rodata.str1.4
                0x00175378        0xb ../../fftw-3.3.4/.libs//libfftw3f.a(r2cbIII_64.o)
                                  0xc (size before relaxing)
 *fill*         0x00175383        0x5 
 .rodata        0x00175388       0x30 ../../fftw-3.3.4/.libs//libfftw3f.a(r2cbIII_7.o)
 .rodata.str1.4
                0x001753b8        0xa ../../fftw-3.3.4/.libs//libfftw3f.a(r2cbIII_7.o)
                                  0xc (size before relaxing)
 *fill*         0x001753c2        0x6 
 .rodata        0x001753c8       0x30 ../../fftw-3.3.4/.libs//libfftw3f.a(r2cbIII_8.o)
 .rodata.str1.4
                0x001753f8        0xa ../../fftw-3.3.4/.libs//libfftw3f.a(r2cbIII_8.o)
                                  0xc (size before relaxing)
 *fill*         0x00175402        0x6 
 .rodata        0x00175408       0x30 ../../fftw-3.3.4/.libs//libfftw3f.a(r2cbIII_9.o)
 .rodata.str1.4
                0x00175438        0xa ../../fftw-3.3.4/.libs//libfftw3f.a(r2cbIII_9.o)
                                  0xc (size before relaxing)
 *fill*         0x00175442        0x6 
 .rodata        0x00175448       0x30 ../../fftw-3.3.4/.libs//libfftw3f.a(r2cb_10.o)
 .rodata.str1.4
                0x00175478        0x8 ../../fftw-3.3.4/.libs//libfftw3f.a(r2cb_10.o)
 .rodata        0x00175480       0x30 ../../fftw-3.3.4/.libs//libfftw3f.a(r2cb_11.o)
 .rodata.str1.4
                0x001754b0        0x8 ../../fftw-3.3.4/.libs//libfftw3f.a(r2cb_11.o)
 .rodata        0x001754b8       0x30 ../../fftw-3.3.4/.libs//libfftw3f.a(r2cb_12.o)
 .rodata.str1.4
                0x001754e8        0x8 ../../fftw-3.3.4/.libs//libfftw3f.a(r2cb_12.o)
 .rodata        0x001754f0       0x30 ../../fftw-3.3.4/.libs//libfftw3f.a(r2cb_128.o)
 .rodata.str1.4
                0x00175520        0x9 ../../fftw-3.3.4/.libs//libfftw3f.a(r2cb_128.o)
                                  0xc (size before relaxing)
 *fill*         0x00175529        0x7 
 .rodata        0x00175530       0x30 ../../fftw-3.3.4/.libs//libfftw3f.a(r2cb_13.o)
 .rodata.str1.4
                0x00175560        0x8 ../../fftw-3.3.4/.libs//libfftw3f.a(r2cb_13.o)
 .rodata        0x00175568       0x30 ../../fftw-3.3.4/.libs//libfftw3f.a(r2cb_14.o)
 .rodata.str1.4
                0x00175598        0x8 ../../fftw-3.3.4/.libs//libfftw3f.a(r2cb_14.o)
 .rodata        0x001755a0       0x30 ../../fftw-3.3.4/.libs//libfftw3f.a(r2cb_15.o)
 .rodata.str1.4
                0x001755d0        0x8 ../../fftw-3.3.4/.libs//libfftw3f.a(r2cb_15.o)
 .rodata        0x001755d8       0x30 ../../fftw-3.3.4/.libs//libfftw3f.a(r2cb_16.o)
 .rodata.str1.4
                0x00175608        0x8 ../../fftw-3.3.4/.libs//libfftw3f.a(r2cb_16.o)
 .rodata        0x00175610       0x30 ../../fftw-3.3.4/.libs//libfftw3f.a(r2cb_2.o)
 .rodata.str1.4
                0x00175640        0x7 ../../fftw-3.3.4/.libs//libfftw3f.a(r2cb_2.o)
                                  0x8 (size before relaxing)
 *fill*         0x00175647        0x1 
 .rodata        0x00175648       0x30 ../../fftw-3.3.4/.libs//libfftw3f.a(r2cb_20.o)
 .rodata.str1.4
                0x00175678        0x8 ../../fftw-3.3.4/.libs//libfftw3f.a(r2cb_20.o)
 .rodata        0x00175680       0x30 ../../fftw-3.3.4/.libs//libfftw3f.a(r2cb_25.o)
 .rodata.str1.4
                0x001756b0        0x8 ../../fftw-3.3.4/.libs//libfftw3f.a(r2cb_25.o)
 .rodata        0x001756b8       0x30 ../../fftw-3.3.4/.libs//libfftw3f.a(r2cb_3.o)
 .rodata.str1.4
                0x001756e8        0x7 ../../fftw-3.3.4/.libs//libfftw3f.a(r2cb_3.o)
                                  0x8 (size before relaxing)
 *fill*         0x001756ef        0x1 
 .rodata        0x001756f0       0x30 ../../fftw-3.3.4/.libs//libfftw3f.a(r2cb_32.o)
 .rodata.str1.4
                0x00175720        0x8 ../../fftw-3.3.4/.libs//libfftw3f.a(r2cb_32.o)
 .rodata        0x00175728       0x30 ../../fftw-3.3.4/.libs//libfftw3f.a(r2cb_4.o)
 .rodata.str1.4
                0x00175758        0x7 ../../fftw-3.3.4/.libs//libfftw3f.a(r2cb_4.o)
                                  0x8 (size before relaxing)
 *fill*         0x0017575f        0x1 
 .rodata        0x00175760       0x30 ../../fftw-3.3.4/.libs//libfftw3f.a(r2cb_5.o)
 .rodata.str1.4
                0x00175790        0x7 ../../fftw-3.3.4/.libs//libfftw3f.a(r2cb_5.o)
                                  0x8 (size before relaxing)
 *fill*         0x00175797        0x1 
 .rodata        0x00175798       0x30 ../../fftw-3.3.4/.libs//libfftw3f.a(r2cb_6.o)
 .rodata.str1.4
                0x001757c8        0x7 ../../fftw-3.3.4/.libs//libfftw3f.a(r2cb_6.o)
                                  0x8 (size before relaxing)
 *fill*         0x001757cf        0x1 
 .rodata        0x001757d0       0x30 ../../fftw-3.3.4/.libs//libfftw3f.a(r2cb_64.o)
 .rodata.str1.4
                0x00175800        0x8 ../../fftw-3.3.4/.libs//libfftw3f.a(r2cb_64.o)
 .rodata        0x00175808       0x30 ../../fftw-3.3.4/.libs//libfftw3f.a(r2cb_7.o)
 .rodata.str1.4
                0x00175838        0x7 ../../fftw-3.3.4/.libs//libfftw3f.a(r2cb_7.o)
                                  0x8 (size before relaxing)
 *fill*         0x0017583f        0x1 
 .rodata        0x00175840       0x30 ../../fftw-3.3.4/.libs//libfftw3f.a(r2cb_8.o)
 .rodata.str1.4
                0x00175870        0x7 ../../fftw-3.3.4/.libs//libfftw3f.a(r2cb_8.o)
                                  0x8 (size before relaxing)
 *fill*         0x00175877        0x1 
 .rodata        0x00175878       0x30 ../../fftw-3.3.4/.libs//libfftw3f.a(r2cb_9.o)
 .rodata.str1.4
                0x001758a8        0x7 ../../fftw-3.3.4/.libs//libfftw3f.a(r2cb_9.o)
                                  0x8 (size before relaxing)
 *fill*         0x001758af        0x1 
 .rodata        0x001758b0       0x18 ../../fftw-3.3.4/.libs//libfftw3f.a(lt18-codlist.o)
                0x001758b0                fftwf_solvtab_rdft_r2r
 .rodata.str1.4
                0x001758c8       0x28 ../../fftw-3.3.4/.libs//libfftw3f.a(lt18-codlist.o)
 .rodata        0x001758f0       0x30 ../../fftw-3.3.4/.libs//libfftw3f.a(e01_8.o)
 .rodata.str1.4
                0x00175920        0x6 ../../fftw-3.3.4/.libs//libfftw3f.a(e01_8.o)
                                  0x8 (size before relaxing)
 *fill*         0x00175926        0x2 
 .rodata        0x00175928       0x30 ../../fftw-3.3.4/.libs//libfftw3f.a(e10_8.o)
 .rodata.str1.4
                0x00175958        0x6 ../../fftw-3.3.4/.libs//libfftw3f.a(e10_8.o)
                                  0x8 (size before relaxing)
 *fill*         0x0017595e        0x2 
 .rodata        0x00175960       0x38 ../../fftw-3.3.4/.libs//libfftw3f.a(lt19-conf.o)
 .rodata.str1.4
                0x00175998       0xd6 ../../fftw-3.3.4/.libs//libfftw3f.a(lt19-conf.o)
                                 0xd8 (size before relaxing)
 *fill*         0x00175a6e        0x2 
 .rodata        0x00175a70       0x1c ../../fftw-3.3.4/.libs//libfftw3f.a(redft00e-r2hc-pad.o)
 .rodata.str1.4
                0x00175a8c       0x25 ../../fftw-3.3.4/.libs//libfftw3f.a(redft00e-r2hc-pad.o)
                                 0x28 (size before relaxing)
 *fill*         0x00175ab1        0x3 
 .rodata        0x00175ab4       0x28 ../../fftw-3.3.4/.libs//libfftw3f.a(reodft00e-splitradix.o)
 .rodata.str1.4
                0x00175adc       0x4f ../../fftw-3.3.4/.libs//libfftw3f.a(reodft00e-splitradix.o)
                                 0x50 (size before relaxing)
 *fill*         0x00175b2b        0x1 
 .rodata        0x00175b2c       0x28 ../../fftw-3.3.4/.libs//libfftw3f.a(reodft010e-r2hc.o)
 .rodata.str1.4
                0x00175b54       0x16 ../../fftw-3.3.4/.libs//libfftw3f.a(reodft010e-r2hc.o)
                                 0x18 (size before relaxing)
 *fill*         0x00175b6a        0x2 
 .rodata        0x00175b6c       0x1c ../../fftw-3.3.4/.libs//libfftw3f.a(reodft11e-r2hc-odd.o)
 .rodata.str1.4
                0x00175b88       0x1a ../../fftw-3.3.4/.libs//libfftw3f.a(reodft11e-r2hc-odd.o)
                                 0x1c (size before relaxing)
 *fill*         0x00175ba2        0x2 
 .rodata        0x00175ba4       0x34 ../../fftw-3.3.4/.libs//libfftw3f.a(reodft11e-radix2.o)
 .rodata.str1.4
                0x00175bd8       0x1d ../../fftw-3.3.4/.libs//libfftw3f.a(reodft11e-radix2.o)
                                 0x20 (size before relaxing)
 *fill*         0x00175bf5        0x3 
 .rodata        0x00175bf8       0x1c ../../fftw-3.3.4/.libs//libfftw3f.a(rodft00e-r2hc-pad.o)
 .rodata.str1.4
                0x00175c14       0x25 ../../fftw-3.3.4/.libs//libfftw3f.a(rodft00e-r2hc-pad.o)
                                 0x28 (size before relaxing)
 *fill*         0x00175c39        0x3 
 .rodata        0x00175c3c      0x558 ../../fftw-3.3.4/.libs//libfftw3f.a(lt20-codlist.o)
                0x00175c3c                fftwf_solvtab_dft_neon
 .rodata.str1.4
                0x00176194     0x1296 ../../fftw-3.3.4/.libs//libfftw3f.a(lt20-codlist.o)
                               0x1298 (size before relaxing)
 *fill*         0x0017742a        0x6 
 .rodata        0x00177430       0x40 ../../fftw-3.3.4/.libs//libfftw3f.a(n1bv_10.o)
 .rodata.str1.4
                0x00177470        0xd ../../fftw-3.3.4/.libs//libfftw3f.a(n1bv_10.o)
                                 0x10 (size before relaxing)
 *fill*         0x0017747d        0x3 
 .rodata        0x00177480       0x40 ../../fftw-3.3.4/.libs//libfftw3f.a(n1bv_11.o)
 .rodata.str1.4
                0x001774c0        0xd ../../fftw-3.3.4/.libs//libfftw3f.a(n1bv_11.o)
                                 0x10 (size before relaxing)
 *fill*         0x001774cd        0x3 
 .rodata        0x001774d0       0x40 ../../fftw-3.3.4/.libs//libfftw3f.a(n1bv_12.o)
 .rodata.str1.4
                0x00177510        0xd ../../fftw-3.3.4/.libs//libfftw3f.a(n1bv_12.o)
                                 0x10 (size before relaxing)
 *fill*         0x0017751d        0x3 
 .rodata        0x00177520       0x40 ../../fftw-3.3.4/.libs//libfftw3f.a(n1bv_128.o)
 .rodata.str1.4
                0x00177560        0xe ../../fftw-3.3.4/.libs//libfftw3f.a(n1bv_128.o)
                                 0x10 (size before relaxing)
 *fill*         0x0017756e        0x2 
 .rodata        0x00177570       0x40 ../../fftw-3.3.4/.libs//libfftw3f.a(n1bv_13.o)
 .rodata.str1.4
                0x001775b0        0xd ../../fftw-3.3.4/.libs//libfftw3f.a(n1bv_13.o)
                                 0x10 (size before relaxing)
 *fill*         0x001775bd        0x3 
 .rodata        0x001775c0       0x40 ../../fftw-3.3.4/.libs//libfftw3f.a(n1bv_14.o)
 .rodata.str1.4
                0x00177600        0xd ../../fftw-3.3.4/.libs//libfftw3f.a(n1bv_14.o)
                                 0x10 (size before relaxing)
 *fill*         0x0017760d        0x3 
 .rodata        0x00177610       0x40 ../../fftw-3.3.4/.libs//libfftw3f.a(n1bv_15.o)
 .rodata.str1.4
                0x00177650        0xd ../../fftw-3.3.4/.libs//libfftw3f.a(n1bv_15.o)
                                 0x10 (size before relaxing)
 *fill*         0x0017765d        0x3 
 .rodata        0x00177660       0x40 ../../fftw-3.3.4/.libs//libfftw3f.a(n1bv_16.o)
 .rodata.str1.4
                0x001776a0        0xd ../../fftw-3.3.4/.libs//libfftw3f.a(n1bv_16.o)
                                 0x10 (size before relaxing)
 *fill*         0x001776ad        0x3 
 .rodata        0x001776b0       0x40 ../../fftw-3.3.4/.libs//libfftw3f.a(n1bv_2.o)
 .rodata.str1.4
                0x001776f0        0xc ../../fftw-3.3.4/.libs//libfftw3f.a(n1bv_2.o)
 *fill*         0x001776fc        0x4 
 .rodata        0x00177700       0x40 ../../fftw-3.3.4/.libs//libfftw3f.a(n1bv_20.o)
 .rodata.str1.4
                0x00177740        0xd ../../fftw-3.3.4/.libs//libfftw3f.a(n1bv_20.o)
                                 0x10 (size before relaxing)
 *fill*         0x0017774d        0x3 
 .rodata        0x00177750       0x40 ../../fftw-3.3.4/.libs//libfftw3f.a(n1bv_25.o)
 .rodata.str1.4
                0x00177790        0xd ../../fftw-3.3.4/.libs//libfftw3f.a(n1bv_25.o)
                                 0x10 (size before relaxing)
 *fill*         0x0017779d        0x3 
 .rodata        0x001777a0       0x40 ../../fftw-3.3.4/.libs//libfftw3f.a(n1bv_3.o)
 .rodata.str1.4
                0x001777e0        0xc ../../fftw-3.3.4/.libs//libfftw3f.a(n1bv_3.o)
 *fill*         0x001777ec        0x4 
 .rodata        0x001777f0       0x40 ../../fftw-3.3.4/.libs//libfftw3f.a(n1bv_32.o)
 .rodata.str1.4
                0x00177830        0xd ../../fftw-3.3.4/.libs//libfftw3f.a(n1bv_32.o)
                                 0x10 (size before relaxing)
 *fill*         0x0017783d        0x3 
 .rodata        0x00177840       0x40 ../../fftw-3.3.4/.libs//libfftw3f.a(n1bv_4.o)
 .rodata.str1.4
                0x00177880        0xc ../../fftw-3.3.4/.libs//libfftw3f.a(n1bv_4.o)
 *fill*         0x0017788c        0x4 
 .rodata        0x00177890       0x40 ../../fftw-3.3.4/.libs//libfftw3f.a(n1bv_5.o)
 .rodata.str1.4
                0x001778d0        0xc ../../fftw-3.3.4/.libs//libfftw3f.a(n1bv_5.o)
 *fill*         0x001778dc        0x4 
 .rodata        0x001778e0       0x40 ../../fftw-3.3.4/.libs//libfftw3f.a(n1bv_6.o)
 .rodata.str1.4
                0x00177920        0xc ../../fftw-3.3.4/.libs//libfftw3f.a(n1bv_6.o)
 *fill*         0x0017792c        0x4 
 .rodata        0x00177930       0x40 ../../fftw-3.3.4/.libs//libfftw3f.a(n1bv_64.o)
 .rodata.str1.4
                0x00177970        0xd ../../fftw-3.3.4/.libs//libfftw3f.a(n1bv_64.o)
                                 0x10 (size before relaxing)
 *fill*         0x0017797d        0x3 
 .rodata        0x00177980       0x40 ../../fftw-3.3.4/.libs//libfftw3f.a(n1bv_7.o)
 .rodata.str1.4
                0x001779c0        0xc ../../fftw-3.3.4/.libs//libfftw3f.a(n1bv_7.o)
 *fill*         0x001779cc        0x4 
 .rodata        0x001779d0       0x40 ../../fftw-3.3.4/.libs//libfftw3f.a(n1bv_8.o)
 .rodata.str1.4
                0x00177a10        0xc ../../fftw-3.3.4/.libs//libfftw3f.a(n1bv_8.o)
 *fill*         0x00177a1c        0x4 
 .rodata        0x00177a20       0x40 ../../fftw-3.3.4/.libs//libfftw3f.a(n1bv_9.o)
 .rodata.str1.4
                0x00177a60        0xc ../../fftw-3.3.4/.libs//libfftw3f.a(n1bv_9.o)
 *fill*         0x00177a6c        0x4 
 .rodata        0x00177a70       0x40 ../../fftw-3.3.4/.libs//libfftw3f.a(n1fv_10.o)
 .rodata.str1.4
                0x00177ab0        0xd ../../fftw-3.3.4/.libs//libfftw3f.a(n1fv_10.o)
                                 0x10 (size before relaxing)
 *fill*         0x00177abd        0x3 
 .rodata        0x00177ac0       0x40 ../../fftw-3.3.4/.libs//libfftw3f.a(n1fv_11.o)
 .rodata.str1.4
                0x00177b00        0xd ../../fftw-3.3.4/.libs//libfftw3f.a(n1fv_11.o)
                                 0x10 (size before relaxing)
 *fill*         0x00177b0d        0x3 
 .rodata        0x00177b10       0x40 ../../fftw-3.3.4/.libs//libfftw3f.a(n1fv_12.o)
 .rodata.str1.4
                0x00177b50        0xd ../../fftw-3.3.4/.libs//libfftw3f.a(n1fv_12.o)
                                 0x10 (size before relaxing)
 *fill*         0x00177b5d        0x3 
 .rodata        0x00177b60       0x40 ../../fftw-3.3.4/.libs//libfftw3f.a(n1fv_128.o)
 .rodata.str1.4
                0x00177ba0        0xe ../../fftw-3.3.4/.libs//libfftw3f.a(n1fv_128.o)
                                 0x10 (size before relaxing)
 *fill*         0x00177bae        0x2 
 .rodata        0x00177bb0       0x40 ../../fftw-3.3.4/.libs//libfftw3f.a(n1fv_13.o)
 .rodata.str1.4
                0x00177bf0        0xd ../../fftw-3.3.4/.libs//libfftw3f.a(n1fv_13.o)
                                 0x10 (size before relaxing)
 *fill*         0x00177bfd        0x3 
 .rodata        0x00177c00       0x40 ../../fftw-3.3.4/.libs//libfftw3f.a(n1fv_14.o)
 .rodata.str1.4
                0x00177c40        0xd ../../fftw-3.3.4/.libs//libfftw3f.a(n1fv_14.o)
                                 0x10 (size before relaxing)
 *fill*         0x00177c4d        0x3 
 .rodata        0x00177c50       0x40 ../../fftw-3.3.4/.libs//libfftw3f.a(n1fv_15.o)
 .rodata.str1.4
                0x00177c90        0xd ../../fftw-3.3.4/.libs//libfftw3f.a(n1fv_15.o)
                                 0x10 (size before relaxing)
 *fill*         0x00177c9d        0x3 
 .rodata        0x00177ca0       0x40 ../../fftw-3.3.4/.libs//libfftw3f.a(n1fv_16.o)
 .rodata.str1.4
                0x00177ce0        0xd ../../fftw-3.3.4/.libs//libfftw3f.a(n1fv_16.o)
                                 0x10 (size before relaxing)
 *fill*         0x00177ced        0x3 
 .rodata        0x00177cf0       0x40 ../../fftw-3.3.4/.libs//libfftw3f.a(n1fv_2.o)
 .rodata.str1.4
                0x00177d30        0xc ../../fftw-3.3.4/.libs//libfftw3f.a(n1fv_2.o)
 *fill*         0x00177d3c        0x4 
 .rodata        0x00177d40       0x40 ../../fftw-3.3.4/.libs//libfftw3f.a(n1fv_20.o)
 .rodata.str1.4
                0x00177d80        0xd ../../fftw-3.3.4/.libs//libfftw3f.a(n1fv_20.o)
                                 0x10 (size before relaxing)
 *fill*         0x00177d8d        0x3 
 .rodata        0x00177d90       0x40 ../../fftw-3.3.4/.libs//libfftw3f.a(n1fv_25.o)
 .rodata.str1.4
                0x00177dd0        0xd ../../fftw-3.3.4/.libs//libfftw3f.a(n1fv_25.o)
                                 0x10 (size before relaxing)
 *fill*         0x00177ddd        0x3 
 .rodata        0x00177de0       0x40 ../../fftw-3.3.4/.libs//libfftw3f.a(n1fv_3.o)
 .rodata.str1.4
                0x00177e20        0xc ../../fftw-3.3.4/.libs//libfftw3f.a(n1fv_3.o)
 *fill*         0x00177e2c        0x4 
 .rodata        0x00177e30       0x40 ../../fftw-3.3.4/.libs//libfftw3f.a(n1fv_32.o)
 .rodata.str1.4
                0x00177e70        0xd ../../fftw-3.3.4/.libs//libfftw3f.a(n1fv_32.o)
                                 0x10 (size before relaxing)
 *fill*         0x00177e7d        0x3 
 .rodata        0x00177e80       0x40 ../../fftw-3.3.4/.libs//libfftw3f.a(n1fv_4.o)
 .rodata.str1.4
                0x00177ec0        0xc ../../fftw-3.3.4/.libs//libfftw3f.a(n1fv_4.o)
 *fill*         0x00177ecc        0x4 
 .rodata        0x00177ed0       0x40 ../../fftw-3.3.4/.libs//libfftw3f.a(n1fv_5.o)
 .rodata.str1.4
                0x00177f10        0xc ../../fftw-3.3.4/.libs//libfftw3f.a(n1fv_5.o)
 *fill*         0x00177f1c        0x4 
 .rodata        0x00177f20       0x40 ../../fftw-3.3.4/.libs//libfftw3f.a(n1fv_6.o)
 .rodata.str1.4
                0x00177f60        0xc ../../fftw-3.3.4/.libs//libfftw3f.a(n1fv_6.o)
 *fill*         0x00177f6c        0x4 
 .rodata        0x00177f70       0x40 ../../fftw-3.3.4/.libs//libfftw3f.a(n1fv_64.o)
 .rodata.str1.4
                0x00177fb0        0xd ../../fftw-3.3.4/.libs//libfftw3f.a(n1fv_64.o)
                                 0x10 (size before relaxing)
 *fill*         0x00177fbd        0x3 
 .rodata        0x00177fc0       0x40 ../../fftw-3.3.4/.libs//libfftw3f.a(n1fv_7.o)
 .rodata.str1.4
                0x00178000        0xc ../../fftw-3.3.4/.libs//libfftw3f.a(n1fv_7.o)
 *fill*         0x0017800c        0x4 
 .rodata        0x00178010       0x40 ../../fftw-3.3.4/.libs//libfftw3f.a(n1fv_8.o)
 .rodata.str1.4
                0x00178050        0xc ../../fftw-3.3.4/.libs//libfftw3f.a(n1fv_8.o)
 *fill*         0x0017805c        0x4 
 .rodata        0x00178060       0x40 ../../fftw-3.3.4/.libs//libfftw3f.a(n1fv_9.o)
 .rodata.str1.4
                0x001780a0        0xc ../../fftw-3.3.4/.libs//libfftw3f.a(n1fv_9.o)
 *fill*         0x001780ac        0x4 
 .rodata        0x001780b0       0x40 ../../fftw-3.3.4/.libs//libfftw3f.a(n2bv_10.o)
 .rodata.str1.4
                0x001780f0        0xd ../../fftw-3.3.4/.libs//libfftw3f.a(n2bv_10.o)
                                 0x10 (size before relaxing)
 *fill*         0x001780fd        0x3 
 .rodata        0x00178100       0x40 ../../fftw-3.3.4/.libs//libfftw3f.a(n2bv_12.o)
 .rodata.str1.4
                0x00178140        0xd ../../fftw-3.3.4/.libs//libfftw3f.a(n2bv_12.o)
                                 0x10 (size before relaxing)
 *fill*         0x0017814d        0x3 
 .rodata        0x00178150       0x40 ../../fftw-3.3.4/.libs//libfftw3f.a(n2bv_14.o)
 .rodata.str1.4
                0x00178190        0xd ../../fftw-3.3.4/.libs//libfftw3f.a(n2bv_14.o)
                                 0x10 (size before relaxing)
 *fill*         0x0017819d        0x3 
 .rodata        0x001781a0       0x40 ../../fftw-3.3.4/.libs//libfftw3f.a(n2bv_16.o)
 .rodata.str1.4
                0x001781e0        0xd ../../fftw-3.3.4/.libs//libfftw3f.a(n2bv_16.o)
                                 0x10 (size before relaxing)
 *fill*         0x001781ed        0x3 
 .rodata        0x001781f0       0x40 ../../fftw-3.3.4/.libs//libfftw3f.a(n2bv_2.o)
 .rodata.str1.4
                0x00178230        0xc ../../fftw-3.3.4/.libs//libfftw3f.a(n2bv_2.o)
 *fill*         0x0017823c        0x4 
 .rodata        0x00178240       0x40 ../../fftw-3.3.4/.libs//libfftw3f.a(n2bv_20.o)
 .rodata.str1.4
                0x00178280        0xd ../../fftw-3.3.4/.libs//libfftw3f.a(n2bv_20.o)
                                 0x10 (size before relaxing)
 *fill*         0x0017828d        0x3 
 .rodata        0x00178290       0x40 ../../fftw-3.3.4/.libs//libfftw3f.a(n2bv_32.o)
 .rodata.str1.4
                0x001782d0        0xd ../../fftw-3.3.4/.libs//libfftw3f.a(n2bv_32.o)
                                 0x10 (size before relaxing)
 *fill*         0x001782dd        0x3 
 .rodata        0x001782e0       0x40 ../../fftw-3.3.4/.libs//libfftw3f.a(n2bv_4.o)
 .rodata.str1.4
                0x00178320        0xc ../../fftw-3.3.4/.libs//libfftw3f.a(n2bv_4.o)
 *fill*         0x0017832c        0x4 
 .rodata        0x00178330       0x40 ../../fftw-3.3.4/.libs//libfftw3f.a(n2bv_6.o)
 .rodata.str1.4
                0x00178370        0xc ../../fftw-3.3.4/.libs//libfftw3f.a(n2bv_6.o)
 *fill*         0x0017837c        0x4 
 .rodata        0x00178380       0x40 ../../fftw-3.3.4/.libs//libfftw3f.a(n2bv_64.o)
 .rodata.str1.4
                0x001783c0        0xd ../../fftw-3.3.4/.libs//libfftw3f.a(n2bv_64.o)
                                 0x10 (size before relaxing)
 *fill*         0x001783cd        0x3 
 .rodata        0x001783d0       0x40 ../../fftw-3.3.4/.libs//libfftw3f.a(n2bv_8.o)
 .rodata.str1.4
                0x00178410        0xc ../../fftw-3.3.4/.libs//libfftw3f.a(n2bv_8.o)
 *fill*         0x0017841c        0x4 
 .rodata        0x00178420       0x40 ../../fftw-3.3.4/.libs//libfftw3f.a(n2fv_10.o)
 .rodata.str1.4
                0x00178460        0xd ../../fftw-3.3.4/.libs//libfftw3f.a(n2fv_10.o)
                                 0x10 (size before relaxing)
 *fill*         0x0017846d        0x3 
 .rodata        0x00178470       0x40 ../../fftw-3.3.4/.libs//libfftw3f.a(n2fv_12.o)
 .rodata.str1.4
                0x001784b0        0xd ../../fftw-3.3.4/.libs//libfftw3f.a(n2fv_12.o)
                                 0x10 (size before relaxing)
 *fill*         0x001784bd        0x3 
 .rodata        0x001784c0       0x40 ../../fftw-3.3.4/.libs//libfftw3f.a(n2fv_14.o)
 .rodata.str1.4
                0x00178500        0xd ../../fftw-3.3.4/.libs//libfftw3f.a(n2fv_14.o)
                                 0x10 (size before relaxing)
 *fill*         0x0017850d        0x3 
 .rodata        0x00178510       0x40 ../../fftw-3.3.4/.libs//libfftw3f.a(n2fv_16.o)
 .rodata.str1.4
                0x00178550        0xd ../../fftw-3.3.4/.libs//libfftw3f.a(n2fv_16.o)
                                 0x10 (size before relaxing)
 *fill*         0x0017855d        0x3 
 .rodata        0x00178560       0x40 ../../fftw-3.3.4/.libs//libfftw3f.a(n2fv_2.o)
 .rodata.str1.4
                0x001785a0        0xc ../../fftw-3.3.4/.libs//libfftw3f.a(n2fv_2.o)
 *fill*         0x001785ac        0x4 
 .rodata        0x001785b0       0x40 ../../fftw-3.3.4/.libs//libfftw3f.a(n2fv_20.o)
 .rodata.str1.4
                0x001785f0        0xd ../../fftw-3.3.4/.libs//libfftw3f.a(n2fv_20.o)
                                 0x10 (size before relaxing)
 *fill*         0x001785fd        0x3 
 .rodata        0x00178600       0x40 ../../fftw-3.3.4/.libs//libfftw3f.a(n2fv_32.o)
 .rodata.str1.4
                0x00178640        0xd ../../fftw-3.3.4/.libs//libfftw3f.a(n2fv_32.o)
                                 0x10 (size before relaxing)
 *fill*         0x0017864d        0x3 
 .rodata        0x00178650       0x40 ../../fftw-3.3.4/.libs//libfftw3f.a(n2fv_4.o)
 .rodata.str1.4
                0x00178690        0xc ../../fftw-3.3.4/.libs//libfftw3f.a(n2fv_4.o)
 *fill*         0x0017869c        0x4 
 .rodata        0x001786a0       0x40 ../../fftw-3.3.4/.libs//libfftw3f.a(n2fv_6.o)
 .rodata.str1.4
                0x001786e0        0xc ../../fftw-3.3.4/.libs//libfftw3f.a(n2fv_6.o)
 *fill*         0x001786ec        0x4 
 .rodata        0x001786f0       0x40 ../../fftw-3.3.4/.libs//libfftw3f.a(n2fv_64.o)
 .rodata.str1.4
                0x00178730        0xd ../../fftw-3.3.4/.libs//libfftw3f.a(n2fv_64.o)
                                 0x10 (size before relaxing)
 *fill*         0x0017873d        0x3 
 .rodata        0x00178740       0x40 ../../fftw-3.3.4/.libs//libfftw3f.a(n2fv_8.o)
 .rodata.str1.4
                0x00178780        0xc ../../fftw-3.3.4/.libs//libfftw3f.a(n2fv_8.o)
 *fill*         0x0017878c        0x4 
 .rodata        0x00178790       0x40 ../../fftw-3.3.4/.libs//libfftw3f.a(n2sv_16.o)
 .rodata.str1.4
                0x001787d0        0xd ../../fftw-3.3.4/.libs//libfftw3f.a(n2sv_16.o)
                                 0x10 (size before relaxing)
 *fill*         0x001787dd        0x3 
 .rodata        0x001787e0       0x40 ../../fftw-3.3.4/.libs//libfftw3f.a(n2sv_32.o)
 .rodata.str1.4
                0x00178820        0xd ../../fftw-3.3.4/.libs//libfftw3f.a(n2sv_32.o)
                                 0x10 (size before relaxing)
 *fill*         0x0017882d        0x3 
 .rodata        0x00178830       0x40 ../../fftw-3.3.4/.libs//libfftw3f.a(n2sv_4.o)
 .rodata.str1.4
                0x00178870        0xc ../../fftw-3.3.4/.libs//libfftw3f.a(n2sv_4.o)
 *fill*         0x0017887c        0x4 
 .rodata        0x00178880       0x40 ../../fftw-3.3.4/.libs//libfftw3f.a(n2sv_64.o)
 .rodata.str1.4
                0x001788c0        0xd ../../fftw-3.3.4/.libs//libfftw3f.a(n2sv_64.o)
                                 0x10 (size before relaxing)
 *fill*         0x001788cd        0x3 
 .rodata        0x001788d0       0x40 ../../fftw-3.3.4/.libs//libfftw3f.a(n2sv_8.o)
 .rodata.str1.4
                0x00178910        0xc ../../fftw-3.3.4/.libs//libfftw3f.a(n2sv_8.o)
 *fill*         0x0017891c        0x4 
 .rodata        0x00178920       0x50 ../../fftw-3.3.4/.libs//libfftw3f.a(q1bv_2.o)
 .rodata.str1.4
                0x00178970        0xc ../../fftw-3.3.4/.libs//libfftw3f.a(q1bv_2.o)
 *fill*         0x0017897c        0x4 
 .rodata        0x00178980       0x60 ../../fftw-3.3.4/.libs//libfftw3f.a(q1bv_4.o)
 .rodata.str1.4
                0x001789e0        0xc ../../fftw-3.3.4/.libs//libfftw3f.a(q1bv_4.o)
 *fill*         0x001789ec        0x4 
 .rodata        0x001789f0       0x68 ../../fftw-3.3.4/.libs//libfftw3f.a(q1bv_5.o)
 .rodata.str1.4
                0x00178a58        0xc ../../fftw-3.3.4/.libs//libfftw3f.a(q1bv_5.o)
 *fill*         0x00178a64        0x4 
 .rodata        0x00178a68       0x80 ../../fftw-3.3.4/.libs//libfftw3f.a(q1bv_8.o)
 .rodata.str1.4
                0x00178ae8        0xc ../../fftw-3.3.4/.libs//libfftw3f.a(q1bv_8.o)
 *fill*         0x00178af4        0x4 
 .rodata        0x00178af8       0x50 ../../fftw-3.3.4/.libs//libfftw3f.a(q1fv_2.o)
 .rodata.str1.4
                0x00178b48        0xc ../../fftw-3.3.4/.libs//libfftw3f.a(q1fv_2.o)
 *fill*         0x00178b54        0x4 
 .rodata        0x00178b58       0x60 ../../fftw-3.3.4/.libs//libfftw3f.a(q1fv_4.o)
 .rodata.str1.4
                0x00178bb8        0xc ../../fftw-3.3.4/.libs//libfftw3f.a(q1fv_4.o)
 *fill*         0x00178bc4        0x4 
 .rodata        0x00178bc8       0x68 ../../fftw-3.3.4/.libs//libfftw3f.a(q1fv_5.o)
 .rodata.str1.4
                0x00178c30        0xc ../../fftw-3.3.4/.libs//libfftw3f.a(q1fv_5.o)
 *fill*         0x00178c3c        0x4 
 .rodata        0x00178c40       0x80 ../../fftw-3.3.4/.libs//libfftw3f.a(q1fv_8.o)
 .rodata.str1.4
                0x00178cc0        0xc ../../fftw-3.3.4/.libs//libfftw3f.a(q1fv_8.o)
 *fill*         0x00178ccc        0x4 
 .rodata        0x00178cd0       0x90 ../../fftw-3.3.4/.libs//libfftw3f.a(t1buv_10.o)
 .rodata.str1.4
                0x00178d60        0xe ../../fftw-3.3.4/.libs//libfftw3f.a(t1buv_10.o)
                                 0x10 (size before relaxing)
 *fill*         0x00178d6e        0x2 
 .rodata        0x00178d70       0x50 ../../fftw-3.3.4/.libs//libfftw3f.a(t1buv_2.o)
 .rodata.str1.4
                0x00178dc0        0xd ../../fftw-3.3.4/.libs//libfftw3f.a(t1buv_2.o)
                                 0x10 (size before relaxing)
 *fill*         0x00178dcd        0x3 
 .rodata        0x00178dd0       0x58 ../../fftw-3.3.4/.libs//libfftw3f.a(t1buv_3.o)
 .rodata.str1.4
                0x00178e28        0xd ../../fftw-3.3.4/.libs//libfftw3f.a(t1buv_3.o)
                                 0x10 (size before relaxing)
 *fill*         0x00178e35        0x3 
 .rodata        0x00178e38       0x60 ../../fftw-3.3.4/.libs//libfftw3f.a(t1buv_4.o)
 .rodata.str1.4
                0x00178e98        0xd ../../fftw-3.3.4/.libs//libfftw3f.a(t1buv_4.o)
                                 0x10 (size before relaxing)
 *fill*         0x00178ea5        0x3 
 .rodata        0x00178ea8       0x68 ../../fftw-3.3.4/.libs//libfftw3f.a(t1buv_5.o)
 .rodata.str1.4
                0x00178f10        0xd ../../fftw-3.3.4/.libs//libfftw3f.a(t1buv_5.o)
                                 0x10 (size before relaxing)
 *fill*         0x00178f1d        0x3 
 .rodata        0x00178f20       0x70 ../../fftw-3.3.4/.libs//libfftw3f.a(t1buv_6.o)
 .rodata.str1.4
                0x00178f90        0xd ../../fftw-3.3.4/.libs//libfftw3f.a(t1buv_6.o)
                                 0x10 (size before relaxing)
 *fill*         0x00178f9d        0x3 
 .rodata        0x00178fa0       0x78 ../../fftw-3.3.4/.libs//libfftw3f.a(t1buv_7.o)
 .rodata.str1.4
                0x00179018        0xd ../../fftw-3.3.4/.libs//libfftw3f.a(t1buv_7.o)
                                 0x10 (size before relaxing)
 *fill*         0x00179025        0x3 
 .rodata        0x00179028       0x80 ../../fftw-3.3.4/.libs//libfftw3f.a(t1buv_8.o)
 .rodata.str1.4
                0x001790a8        0xd ../../fftw-3.3.4/.libs//libfftw3f.a(t1buv_8.o)
                                 0x10 (size before relaxing)
 *fill*         0x001790b5        0x3 
 .rodata        0x001790b8       0x88 ../../fftw-3.3.4/.libs//libfftw3f.a(t1buv_9.o)
 .rodata.str1.4
                0x00179140        0xd ../../fftw-3.3.4/.libs//libfftw3f.a(t1buv_9.o)
                                 0x10 (size before relaxing)
 *fill*         0x0017914d        0x3 
 .rodata        0x00179150       0x90 ../../fftw-3.3.4/.libs//libfftw3f.a(t1bv_10.o)
 .rodata.str1.4
                0x001791e0        0xd ../../fftw-3.3.4/.libs//libfftw3f.a(t1bv_10.o)
                                 0x10 (size before relaxing)
 *fill*         0x001791ed        0x3 
 .rodata        0x001791f0       0xa0 ../../fftw-3.3.4/.libs//libfftw3f.a(t1bv_12.o)
 .rodata.str1.4
                0x00179290        0xd ../../fftw-3.3.4/.libs//libfftw3f.a(t1bv_12.o)
                                 0x10 (size before relaxing)
 *fill*         0x0017929d        0x3 
 .rodata        0x001792a0       0xb8 ../../fftw-3.3.4/.libs//libfftw3f.a(t1bv_15.o)
 .rodata.str1.4
                0x00179358        0xd ../../fftw-3.3.4/.libs//libfftw3f.a(t1bv_15.o)
                                 0x10 (size before relaxing)
 *fill*         0x00179365        0x3 
 .rodata        0x00179368       0xc0 ../../fftw-3.3.4/.libs//libfftw3f.a(t1bv_16.o)
 .rodata.str1.4
                0x00179428        0xd ../../fftw-3.3.4/.libs//libfftw3f.a(t1bv_16.o)
                                 0x10 (size before relaxing)
 *fill*         0x00179435        0x3 
 .rodata        0x00179438       0x50 ../../fftw-3.3.4/.libs//libfftw3f.a(t1bv_2.o)
 .rodata.str1.4
                0x00179488        0xc ../../fftw-3.3.4/.libs//libfftw3f.a(t1bv_2.o)
 *fill*         0x00179494        0x4 
 .rodata        0x00179498       0xe0 ../../fftw-3.3.4/.libs//libfftw3f.a(t1bv_20.o)
 .rodata.str1.4
                0x00179578        0xd ../../fftw-3.3.4/.libs//libfftw3f.a(t1bv_20.o)
                                 0x10 (size before relaxing)
 *fill*         0x00179585        0x3 
 .rodata        0x00179588      0x108 ../../fftw-3.3.4/.libs//libfftw3f.a(t1bv_25.o)
 .rodata.str1.4
                0x00179690        0xd ../../fftw-3.3.4/.libs//libfftw3f.a(t1bv_25.o)
                                 0x10 (size before relaxing)
 *fill*         0x0017969d        0x3 
 .rodata        0x001796a0       0x58 ../../fftw-3.3.4/.libs//libfftw3f.a(t1bv_3.o)
 .rodata.str1.4
                0x001796f8        0xc ../../fftw-3.3.4/.libs//libfftw3f.a(t1bv_3.o)
 *fill*         0x00179704        0x4 
 .rodata        0x00179708      0x140 ../../fftw-3.3.4/.libs//libfftw3f.a(t1bv_32.o)
 .rodata.str1.4
                0x00179848        0xd ../../fftw-3.3.4/.libs//libfftw3f.a(t1bv_32.o)
                                 0x10 (size before relaxing)
 *fill*         0x00179855        0x3 
 .rodata        0x00179858       0x60 ../../fftw-3.3.4/.libs//libfftw3f.a(t1bv_4.o)
 .rodata.str1.4
                0x001798b8        0xc ../../fftw-3.3.4/.libs//libfftw3f.a(t1bv_4.o)
 *fill*         0x001798c4        0x4 
 .rodata        0x001798c8       0x68 ../../fftw-3.3.4/.libs//libfftw3f.a(t1bv_5.o)
 .rodata.str1.4
                0x00179930        0xc ../../fftw-3.3.4/.libs//libfftw3f.a(t1bv_5.o)
 *fill*         0x0017993c        0x4 
 .rodata        0x00179940       0x70 ../../fftw-3.3.4/.libs//libfftw3f.a(t1bv_6.o)
 .rodata.str1.4
                0x001799b0        0xc ../../fftw-3.3.4/.libs//libfftw3f.a(t1bv_6.o)
 *fill*         0x001799bc        0x4 
 .rodata        0x001799c0      0x240 ../../fftw-3.3.4/.libs//libfftw3f.a(t1bv_64.o)
 .rodata.str1.4
                0x00179c00        0xd ../../fftw-3.3.4/.libs//libfftw3f.a(t1bv_64.o)
                                 0x10 (size before relaxing)
 *fill*         0x00179c0d        0x3 
 .rodata        0x00179c10       0x78 ../../fftw-3.3.4/.libs//libfftw3f.a(t1bv_7.o)
 .rodata.str1.4
                0x00179c88        0xc ../../fftw-3.3.4/.libs//libfftw3f.a(t1bv_7.o)
 *fill*         0x00179c94        0x4 
 .rodata        0x00179c98       0x80 ../../fftw-3.3.4/.libs//libfftw3f.a(t1bv_8.o)
 .rodata.str1.4
                0x00179d18        0xc ../../fftw-3.3.4/.libs//libfftw3f.a(t1bv_8.o)
 *fill*         0x00179d24        0x4 
 .rodata        0x00179d28       0x88 ../../fftw-3.3.4/.libs//libfftw3f.a(t1bv_9.o)
 .rodata.str1.4
                0x00179db0        0xc ../../fftw-3.3.4/.libs//libfftw3f.a(t1bv_9.o)
 *fill*         0x00179dbc        0x4 
 .rodata        0x00179dc0       0x90 ../../fftw-3.3.4/.libs//libfftw3f.a(t1fuv_10.o)
 .rodata.str1.4
                0x00179e50        0xe ../../fftw-3.3.4/.libs//libfftw3f.a(t1fuv_10.o)
                                 0x10 (size before relaxing)
 *fill*         0x00179e5e        0x2 
 .rodata        0x00179e60       0x50 ../../fftw-3.3.4/.libs//libfftw3f.a(t1fuv_2.o)
 .rodata.str1.4
                0x00179eb0        0xd ../../fftw-3.3.4/.libs//libfftw3f.a(t1fuv_2.o)
                                 0x10 (size before relaxing)
 *fill*         0x00179ebd        0x3 
 .rodata        0x00179ec0       0x58 ../../fftw-3.3.4/.libs//libfftw3f.a(t1fuv_3.o)
 .rodata.str1.4
                0x00179f18        0xd ../../fftw-3.3.4/.libs//libfftw3f.a(t1fuv_3.o)
                                 0x10 (size before relaxing)
 *fill*         0x00179f25        0x3 
 .rodata        0x00179f28       0x60 ../../fftw-3.3.4/.libs//libfftw3f.a(t1fuv_4.o)
 .rodata.str1.4
                0x00179f88        0xd ../../fftw-3.3.4/.libs//libfftw3f.a(t1fuv_4.o)
                                 0x10 (size before relaxing)
 *fill*         0x00179f95        0x3 
 .rodata        0x00179f98       0x68 ../../fftw-3.3.4/.libs//libfftw3f.a(t1fuv_5.o)
 .rodata.str1.4
                0x0017a000        0xd ../../fftw-3.3.4/.libs//libfftw3f.a(t1fuv_5.o)
                                 0x10 (size before relaxing)
 *fill*         0x0017a00d        0x3 
 .rodata        0x0017a010       0x70 ../../fftw-3.3.4/.libs//libfftw3f.a(t1fuv_6.o)
 .rodata.str1.4
                0x0017a080        0xd ../../fftw-3.3.4/.libs//libfftw3f.a(t1fuv_6.o)
                                 0x10 (size before relaxing)
 *fill*         0x0017a08d        0x3 
 .rodata        0x0017a090       0x78 ../../fftw-3.3.4/.libs//libfftw3f.a(t1fuv_7.o)
 .rodata.str1.4
                0x0017a108        0xd ../../fftw-3.3.4/.libs//libfftw3f.a(t1fuv_7.o)
                                 0x10 (size before relaxing)
 *fill*         0x0017a115        0x3 
 .rodata        0x0017a118       0x80 ../../fftw-3.3.4/.libs//libfftw3f.a(t1fuv_8.o)
 .rodata.str1.4
                0x0017a198        0xd ../../fftw-3.3.4/.libs//libfftw3f.a(t1fuv_8.o)
                                 0x10 (size before relaxing)
 *fill*         0x0017a1a5        0x3 
 .rodata        0x0017a1a8       0x88 ../../fftw-3.3.4/.libs//libfftw3f.a(t1fuv_9.o)
 .rodata.str1.4
                0x0017a230        0xd ../../fftw-3.3.4/.libs//libfftw3f.a(t1fuv_9.o)
                                 0x10 (size before relaxing)
 *fill*         0x0017a23d        0x3 
 .rodata        0x0017a240       0x90 ../../fftw-3.3.4/.libs//libfftw3f.a(t1fv_10.o)
 .rodata.str1.4
                0x0017a2d0        0xd ../../fftw-3.3.4/.libs//libfftw3f.a(t1fv_10.o)
                                 0x10 (size before relaxing)
 *fill*         0x0017a2dd        0x3 
 .rodata        0x0017a2e0       0xa0 ../../fftw-3.3.4/.libs//libfftw3f.a(t1fv_12.o)
 .rodata.str1.4
                0x0017a380        0xd ../../fftw-3.3.4/.libs//libfftw3f.a(t1fv_12.o)
                                 0x10 (size before relaxing)
 *fill*         0x0017a38d        0x3 
 .rodata        0x0017a390       0xb8 ../../fftw-3.3.4/.libs//libfftw3f.a(t1fv_15.o)
 .rodata.str1.4
                0x0017a448        0xd ../../fftw-3.3.4/.libs//libfftw3f.a(t1fv_15.o)
                                 0x10 (size before relaxing)
 *fill*         0x0017a455        0x3 
 .rodata        0x0017a458       0xc0 ../../fftw-3.3.4/.libs//libfftw3f.a(t1fv_16.o)
 .rodata.str1.4
                0x0017a518        0xd ../../fftw-3.3.4/.libs//libfftw3f.a(t1fv_16.o)
                                 0x10 (size before relaxing)
 *fill*         0x0017a525        0x3 
 .rodata        0x0017a528       0x50 ../../fftw-3.3.4/.libs//libfftw3f.a(t1fv_2.o)
 .rodata.str1.4
                0x0017a578        0xc ../../fftw-3.3.4/.libs//libfftw3f.a(t1fv_2.o)
 *fill*         0x0017a584        0x4 
 .rodata        0x0017a588       0xe0 ../../fftw-3.3.4/.libs//libfftw3f.a(t1fv_20.o)
 .rodata.str1.4
                0x0017a668        0xd ../../fftw-3.3.4/.libs//libfftw3f.a(t1fv_20.o)
                                 0x10 (size before relaxing)
 *fill*         0x0017a675        0x3 
 .rodata        0x0017a678      0x108 ../../fftw-3.3.4/.libs//libfftw3f.a(t1fv_25.o)
 .rodata.str1.4
                0x0017a780        0xd ../../fftw-3.3.4/.libs//libfftw3f.a(t1fv_25.o)
                                 0x10 (size before relaxing)
 *fill*         0x0017a78d        0x3 
 .rodata        0x0017a790       0x58 ../../fftw-3.3.4/.libs//libfftw3f.a(t1fv_3.o)
 .rodata.str1.4
                0x0017a7e8        0xc ../../fftw-3.3.4/.libs//libfftw3f.a(t1fv_3.o)
 *fill*         0x0017a7f4        0x4 
 .rodata        0x0017a7f8      0x140 ../../fftw-3.3.4/.libs//libfftw3f.a(t1fv_32.o)
 .rodata.str1.4
                0x0017a938        0xd ../../fftw-3.3.4/.libs//libfftw3f.a(t1fv_32.o)
                                 0x10 (size before relaxing)
 *fill*         0x0017a945        0x3 
 .rodata        0x0017a948       0x60 ../../fftw-3.3.4/.libs//libfftw3f.a(t1fv_4.o)
 .rodata.str1.4
                0x0017a9a8        0xc ../../fftw-3.3.4/.libs//libfftw3f.a(t1fv_4.o)
 *fill*         0x0017a9b4        0x4 
 .rodata        0x0017a9b8       0x68 ../../fftw-3.3.4/.libs//libfftw3f.a(t1fv_5.o)
 .rodata.str1.4
                0x0017aa20        0xc ../../fftw-3.3.4/.libs//libfftw3f.a(t1fv_5.o)
 *fill*         0x0017aa2c        0x4 
 .rodata        0x0017aa30       0x70 ../../fftw-3.3.4/.libs//libfftw3f.a(t1fv_6.o)
 .rodata.str1.4
                0x0017aaa0        0xc ../../fftw-3.3.4/.libs//libfftw3f.a(t1fv_6.o)
 *fill*         0x0017aaac        0x4 
 .rodata        0x0017aab0      0x240 ../../fftw-3.3.4/.libs//libfftw3f.a(t1fv_64.o)
 .rodata.str1.4
                0x0017acf0        0xd ../../fftw-3.3.4/.libs//libfftw3f.a(t1fv_64.o)
                                 0x10 (size before relaxing)
 *fill*         0x0017acfd        0x3 
 .rodata        0x0017ad00       0x78 ../../fftw-3.3.4/.libs//libfftw3f.a(t1fv_7.o)
 .rodata.str1.4
                0x0017ad78        0xc ../../fftw-3.3.4/.libs//libfftw3f.a(t1fv_7.o)
 *fill*         0x0017ad84        0x4 
 .rodata        0x0017ad88       0x80 ../../fftw-3.3.4/.libs//libfftw3f.a(t1fv_8.o)
 .rodata.str1.4
                0x0017ae08        0xc ../../fftw-3.3.4/.libs//libfftw3f.a(t1fv_8.o)
 *fill*         0x0017ae14        0x4 
 .rodata        0x0017ae18       0x88 ../../fftw-3.3.4/.libs//libfftw3f.a(t1fv_9.o)
 .rodata.str1.4
                0x0017aea0        0xc ../../fftw-3.3.4/.libs//libfftw3f.a(t1fv_9.o)
 *fill*         0x0017aeac        0x4 
 .rodata        0x0017aeb0      0x228 ../../fftw-3.3.4/.libs//libfftw3f.a(t1sv_16.o)
 .rodata.str1.4
                0x0017b0d8        0xd ../../fftw-3.3.4/.libs//libfftw3f.a(t1sv_16.o)
                                 0x10 (size before relaxing)
 *fill*         0x0017b0e5        0x3 
 .rodata        0x0017b0e8       0x68 ../../fftw-3.3.4/.libs//libfftw3f.a(t1sv_2.o)
 .rodata.str1.4
                0x0017b150        0xc ../../fftw-3.3.4/.libs//libfftw3f.a(t1sv_2.o)
 *fill*         0x0017b15c        0x4 
 .rodata        0x0017b160      0x428 ../../fftw-3.3.4/.libs//libfftw3f.a(t1sv_32.o)
 .rodata.str1.4
                0x0017b588        0xd ../../fftw-3.3.4/.libs//libfftw3f.a(t1sv_32.o)
                                 0x10 (size before relaxing)
 *fill*         0x0017b595        0x3 
 .rodata        0x0017b598       0xa8 ../../fftw-3.3.4/.libs//libfftw3f.a(t1sv_4.o)
 .rodata.str1.4
                0x0017b640        0xc ../../fftw-3.3.4/.libs//libfftw3f.a(t1sv_4.o)
 *fill*         0x0017b64c        0x4 
 .rodata        0x0017b650      0x128 ../../fftw-3.3.4/.libs//libfftw3f.a(t1sv_8.o)
 .rodata.str1.4
                0x0017b778        0xc ../../fftw-3.3.4/.libs//libfftw3f.a(t1sv_8.o)
 *fill*         0x0017b784        0x4 
 .rodata        0x0017b788      0x168 ../../fftw-3.3.4/.libs//libfftw3f.a(t2bv_10.o)
 .rodata.str1.4
                0x0017b8f0        0xd ../../fftw-3.3.4/.libs//libfftw3f.a(t2bv_10.o)
                                 0x10 (size before relaxing)
 *fill*         0x0017b8fd        0x3 
 .rodata        0x0017b900      0x228 ../../fftw-3.3.4/.libs//libfftw3f.a(t2bv_16.o)
 .rodata.str1.4
                0x0017bb28        0xd ../../fftw-3.3.4/.libs//libfftw3f.a(t2bv_16.o)
                                 0x10 (size before relaxing)
 *fill*         0x0017bb35        0x3 
 .rodata        0x0017bb38       0x68 ../../fftw-3.3.4/.libs//libfftw3f.a(t2bv_2.o)
 .rodata.str1.4
                0x0017bba0        0xc ../../fftw-3.3.4/.libs//libfftw3f.a(t2bv_2.o)
 *fill*         0x0017bbac        0x4 
 .rodata        0x0017bbb0      0x2a8 ../../fftw-3.3.4/.libs//libfftw3f.a(t2bv_20.o)
 .rodata.str1.4
                0x0017be58        0xd ../../fftw-3.3.4/.libs//libfftw3f.a(t2bv_20.o)
                                 0x10 (size before relaxing)
 *fill*         0x0017be65        0x3 
 .rodata        0x0017be68      0x348 ../../fftw-3.3.4/.libs//libfftw3f.a(t2bv_25.o)
 .rodata.str1.4
                0x0017c1b0        0xd ../../fftw-3.3.4/.libs//libfftw3f.a(t2bv_25.o)
                                 0x10 (size before relaxing)
 *fill*         0x0017c1bd        0x3 
 .rodata        0x0017c1c0      0x428 ../../fftw-3.3.4/.libs//libfftw3f.a(t2bv_32.o)
 .rodata.str1.4
                0x0017c5e8        0xd ../../fftw-3.3.4/.libs//libfftw3f.a(t2bv_32.o)
                                 0x10 (size before relaxing)
 *fill*         0x0017c5f5        0x3 
 .rodata        0x0017c5f8       0xa8 ../../fftw-3.3.4/.libs//libfftw3f.a(t2bv_4.o)
 .rodata.str1.4
                0x0017c6a0        0xc ../../fftw-3.3.4/.libs//libfftw3f.a(t2bv_4.o)
 *fill*         0x0017c6ac        0x4 
 .rodata        0x0017c6b0       0xc8 ../../fftw-3.3.4/.libs//libfftw3f.a(t2bv_5.o)
 .rodata.str1.4
                0x0017c778        0xc ../../fftw-3.3.4/.libs//libfftw3f.a(t2bv_5.o)
 *fill*         0x0017c784        0x4 
 .rodata        0x0017c788      0x828 ../../fftw-3.3.4/.libs//libfftw3f.a(t2bv_64.o)
 .rodata.str1.4
                0x0017cfb0        0xd ../../fftw-3.3.4/.libs//libfftw3f.a(t2bv_64.o)
                                 0x10 (size before relaxing)
 *fill*         0x0017cfbd        0x3 
 .rodata        0x0017cfc0      0x128 ../../fftw-3.3.4/.libs//libfftw3f.a(t2bv_8.o)
 .rodata.str1.4
                0x0017d0e8        0xc ../../fftw-3.3.4/.libs//libfftw3f.a(t2bv_8.o)
 *fill*         0x0017d0f4        0x4 
 .rodata        0x0017d0f8      0x168 ../../fftw-3.3.4/.libs//libfftw3f.a(t2fv_10.o)
 .rodata.str1.4
                0x0017d260        0xd ../../fftw-3.3.4/.libs//libfftw3f.a(t2fv_10.o)
                                 0x10 (size before relaxing)
 *fill*         0x0017d26d        0x3 
 .rodata        0x0017d270      0x228 ../../fftw-3.3.4/.libs//libfftw3f.a(t2fv_16.o)
 .rodata.str1.4
                0x0017d498        0xd ../../fftw-3.3.4/.libs//libfftw3f.a(t2fv_16.o)
                                 0x10 (size before relaxing)
 *fill*         0x0017d4a5        0x3 
 .rodata        0x0017d4a8       0x68 ../../fftw-3.3.4/.libs//libfftw3f.a(t2fv_2.o)
 .rodata.str1.4
                0x0017d510        0xc ../../fftw-3.3.4/.libs//libfftw3f.a(t2fv_2.o)
 *fill*         0x0017d51c        0x4 
 .rodata        0x0017d520      0x2a8 ../../fftw-3.3.4/.libs//libfftw3f.a(t2fv_20.o)
 .rodata.str1.4
                0x0017d7c8        0xd ../../fftw-3.3.4/.libs//libfftw3f.a(t2fv_20.o)
                                 0x10 (size before relaxing)
 *fill*         0x0017d7d5        0x3 
 .rodata        0x0017d7d8      0x348 ../../fftw-3.3.4/.libs//libfftw3f.a(t2fv_25.o)
 .rodata.str1.4
                0x0017db20        0xd ../../fftw-3.3.4/.libs//libfftw3f.a(t2fv_25.o)
                                 0x10 (size before relaxing)
 *fill*         0x0017db2d        0x3 
 .rodata        0x0017db30      0x428 ../../fftw-3.3.4/.libs//libfftw3f.a(t2fv_32.o)
 .rodata.str1.4
                0x0017df58        0xd ../../fftw-3.3.4/.libs//libfftw3f.a(t2fv_32.o)
                                 0x10 (size before relaxing)
 *fill*         0x0017df65        0x3 
 .rodata        0x0017df68       0xa8 ../../fftw-3.3.4/.libs//libfftw3f.a(t2fv_4.o)
 .rodata.str1.4
                0x0017e010        0xc ../../fftw-3.3.4/.libs//libfftw3f.a(t2fv_4.o)
 *fill*         0x0017e01c        0x4 
 .rodata        0x0017e020       0xc8 ../../fftw-3.3.4/.libs//libfftw3f.a(t2fv_5.o)
 .rodata.str1.4
                0x0017e0e8        0xc ../../fftw-3.3.4/.libs//libfftw3f.a(t2fv_5.o)
 *fill*         0x0017e0f4        0x4 
 .rodata        0x0017e0f8      0x828 ../../fftw-3.3.4/.libs//libfftw3f.a(t2fv_64.o)
 .rodata.str1.4
                0x0017e920        0xd ../../fftw-3.3.4/.libs//libfftw3f.a(t2fv_64.o)
                                 0x10 (size before relaxing)
 *fill*         0x0017e92d        0x3 
 .rodata        0x0017e930      0x128 ../../fftw-3.3.4/.libs//libfftw3f.a(t2fv_8.o)
 .rodata.str1.4
                0x0017ea58        0xc ../../fftw-3.3.4/.libs//libfftw3f.a(t2fv_8.o)
 *fill*         0x0017ea64        0x4 
 .rodata        0x0017ea68       0xc8 ../../fftw-3.3.4/.libs//libfftw3f.a(t2sv_16.o)
 .rodata.str1.4
                0x0017eb30        0xd ../../fftw-3.3.4/.libs//libfftw3f.a(t2sv_16.o)
                                 0x10 (size before relaxing)
 *fill*         0x0017eb3d        0x3 
 .rodata        0x0017eb40       0xc8 ../../fftw-3.3.4/.libs//libfftw3f.a(t2sv_32.o)
 .rodata.str1.4
                0x0017ec08        0xd ../../fftw-3.3.4/.libs//libfftw3f.a(t2sv_32.o)
                                 0x10 (size before relaxing)
 *fill*         0x0017ec15        0x3 
 .rodata        0x0017ec18       0x88 ../../fftw-3.3.4/.libs//libfftw3f.a(t2sv_4.o)
 .rodata.str1.4
                0x0017eca0        0xc ../../fftw-3.3.4/.libs//libfftw3f.a(t2sv_4.o)
 *fill*         0x0017ecac        0x4 
 .rodata        0x0017ecb0       0xa8 ../../fftw-3.3.4/.libs//libfftw3f.a(t2sv_8.o)
 .rodata.str1.4
                0x0017ed58        0xc ../../fftw-3.3.4/.libs//libfftw3f.a(t2sv_8.o)
 *fill*         0x0017ed64        0x4 
 .rodata        0x0017ed68       0x60 ../../fftw-3.3.4/.libs//libfftw3f.a(t3bv_10.o)
 .rodata.str1.4
                0x0017edc8        0xd ../../fftw-3.3.4/.libs//libfftw3f.a(t3bv_10.o)
                                 0x10 (size before relaxing)
 *fill*         0x0017edd5        0x3 
 .rodata        0x0017edd8       0x68 ../../fftw-3.3.4/.libs//libfftw3f.a(t3bv_16.o)
 .rodata.str1.4
                0x0017ee40        0xd ../../fftw-3.3.4/.libs//libfftw3f.a(t3bv_16.o)
                                 0x10 (size before relaxing)
 *fill*         0x0017ee4d        0x3 
 .rodata        0x0017ee50       0x68 ../../fftw-3.3.4/.libs//libfftw3f.a(t3bv_20.o)
 .rodata.str1.4
                0x0017eeb8        0xd ../../fftw-3.3.4/.libs//libfftw3f.a(t3bv_20.o)
                                 0x10 (size before relaxing)
 *fill*         0x0017eec5        0x3 
 .rodata        0x0017eec8       0x68 ../../fftw-3.3.4/.libs//libfftw3f.a(t3bv_25.o)
 .rodata.str1.4
                0x0017ef30        0xd ../../fftw-3.3.4/.libs//libfftw3f.a(t3bv_25.o)
                                 0x10 (size before relaxing)
 *fill*         0x0017ef3d        0x3 
 .rodata        0x0017ef40       0x68 ../../fftw-3.3.4/.libs//libfftw3f.a(t3bv_32.o)
 .rodata.str1.4
                0x0017efa8        0xd ../../fftw-3.3.4/.libs//libfftw3f.a(t3bv_32.o)
                                 0x10 (size before relaxing)
 *fill*         0x0017efb5        0x3 
 .rodata        0x0017efb8       0x58 ../../fftw-3.3.4/.libs//libfftw3f.a(t3bv_4.o)
 .rodata.str1.4
                0x0017f010        0xc ../../fftw-3.3.4/.libs//libfftw3f.a(t3bv_4.o)
 *fill*         0x0017f01c        0x4 
 .rodata        0x0017f020       0x58 ../../fftw-3.3.4/.libs//libfftw3f.a(t3bv_5.o)
 .rodata.str1.4
                0x0017f078        0xc ../../fftw-3.3.4/.libs//libfftw3f.a(t3bv_5.o)
 *fill*         0x0017f084        0x4 
 .rodata        0x0017f088       0x60 ../../fftw-3.3.4/.libs//libfftw3f.a(t3bv_8.o)
 .rodata.str1.4
                0x0017f0e8        0xc ../../fftw-3.3.4/.libs//libfftw3f.a(t3bv_8.o)
 *fill*         0x0017f0f4        0x4 
 .rodata        0x0017f0f8       0x60 ../../fftw-3.3.4/.libs//libfftw3f.a(t3fv_10.o)
 .rodata.str1.4
                0x0017f158        0xd ../../fftw-3.3.4/.libs//libfftw3f.a(t3fv_10.o)
                                 0x10 (size before relaxing)
 *fill*         0x0017f165        0x3 
 .rodata        0x0017f168       0x68 ../../fftw-3.3.4/.libs//libfftw3f.a(t3fv_16.o)
 .rodata.str1.4
                0x0017f1d0        0xd ../../fftw-3.3.4/.libs//libfftw3f.a(t3fv_16.o)
                                 0x10 (size before relaxing)
 *fill*         0x0017f1dd        0x3 
 .rodata        0x0017f1e0       0x68 ../../fftw-3.3.4/.libs//libfftw3f.a(t3fv_20.o)
 .rodata.str1.4
                0x0017f248        0xd ../../fftw-3.3.4/.libs//libfftw3f.a(t3fv_20.o)
                                 0x10 (size before relaxing)
 *fill*         0x0017f255        0x3 
 .rodata        0x0017f258       0x68 ../../fftw-3.3.4/.libs//libfftw3f.a(t3fv_25.o)
 .rodata.str1.4
                0x0017f2c0        0xd ../../fftw-3.3.4/.libs//libfftw3f.a(t3fv_25.o)
                                 0x10 (size before relaxing)
 *fill*         0x0017f2cd        0x3 
 .rodata        0x0017f2d0       0x68 ../../fftw-3.3.4/.libs//libfftw3f.a(t3fv_32.o)
 .rodata.str1.4
                0x0017f338        0xd ../../fftw-3.3.4/.libs//libfftw3f.a(t3fv_32.o)
                                 0x10 (size before relaxing)
 *fill*         0x0017f345        0x3 
 .rodata        0x0017f348       0x58 ../../fftw-3.3.4/.libs//libfftw3f.a(t3fv_4.o)
 .rodata.str1.4
                0x0017f3a0        0xc ../../fftw-3.3.4/.libs//libfftw3f.a(t3fv_4.o)
 *fill*         0x0017f3ac        0x4 
 .rodata        0x0017f3b0       0x58 ../../fftw-3.3.4/.libs//libfftw3f.a(t3fv_5.o)
 .rodata.str1.4
                0x0017f408        0xc ../../fftw-3.3.4/.libs//libfftw3f.a(t3fv_5.o)
 *fill*         0x0017f414        0x4 
 .rodata        0x0017f418       0x60 ../../fftw-3.3.4/.libs//libfftw3f.a(t3fv_8.o)
 .rodata.str1.4
                0x0017f478        0xc ../../fftw-3.3.4/.libs//libfftw3f.a(t3fv_8.o)
 .rodata        0x0017f484       0x98 ../../fftw-3.3.4/.libs//libfftw3f.a(lt21-codlist.o)
                0x0017f484                fftwf_solvtab_rdft_neon
 .rodata.str1.4
                0x0017f51c      0x240 ../../fftw-3.3.4/.libs//libfftw3f.a(lt21-codlist.o)
 *fill*         0x0017f75c        0x4 
 .rodata        0x0017f760       0x80 ../../fftw-3.3.4/.libs//libfftw3f.a(hc2cbdftv_10.o)
 .rodata.str1.4
                0x0017f7e0       0x12 ../../fftw-3.3.4/.libs//libfftw3f.a(hc2cbdftv_10.o)
                                 0x14 (size before relaxing)
 *fill*         0x0017f7f2        0x6 
 .rodata        0x0017f7f8       0x90 ../../fftw-3.3.4/.libs//libfftw3f.a(hc2cbdftv_12.o)
 .rodata.str1.4
                0x0017f888       0x12 ../../fftw-3.3.4/.libs//libfftw3f.a(hc2cbdftv_12.o)
                                 0x14 (size before relaxing)
 *fill*         0x0017f89a        0x6 
 .rodata        0x0017f8a0       0xb0 ../../fftw-3.3.4/.libs//libfftw3f.a(hc2cbdftv_16.o)
 .rodata.str1.4
                0x0017f950       0x12 ../../fftw-3.3.4/.libs//libfftw3f.a(hc2cbdftv_16.o)
                                 0x14 (size before relaxing)
 *fill*         0x0017f962        0x6 
 .rodata        0x0017f968       0x40 ../../fftw-3.3.4/.libs//libfftw3f.a(hc2cbdftv_2.o)
 .rodata.str1.4
                0x0017f9a8       0x11 ../../fftw-3.3.4/.libs//libfftw3f.a(hc2cbdftv_2.o)
                                 0x14 (size before relaxing)
 *fill*         0x0017f9b9        0x7 
 .rodata        0x0017f9c0       0xd0 ../../fftw-3.3.4/.libs//libfftw3f.a(hc2cbdftv_20.o)
 .rodata.str1.4
                0x0017fa90       0x12 ../../fftw-3.3.4/.libs//libfftw3f.a(hc2cbdftv_20.o)
                                 0x14 (size before relaxing)
 *fill*         0x0017faa2        0x6 
 .rodata        0x0017faa8      0x130 ../../fftw-3.3.4/.libs//libfftw3f.a(hc2cbdftv_32.o)
 .rodata.str1.4
                0x0017fbd8       0x12 ../../fftw-3.3.4/.libs//libfftw3f.a(hc2cbdftv_32.o)
                                 0x14 (size before relaxing)
 *fill*         0x0017fbea        0x6 
 .rodata        0x0017fbf0       0x50 ../../fftw-3.3.4/.libs//libfftw3f.a(hc2cbdftv_4.o)
 .rodata.str1.4
                0x0017fc40       0x11 ../../fftw-3.3.4/.libs//libfftw3f.a(hc2cbdftv_4.o)
                                 0x14 (size before relaxing)
 *fill*         0x0017fc51        0x7 
 .rodata        0x0017fc58       0x60 ../../fftw-3.3.4/.libs//libfftw3f.a(hc2cbdftv_6.o)
 .rodata.str1.4
                0x0017fcb8       0x11 ../../fftw-3.3.4/.libs//libfftw3f.a(hc2cbdftv_6.o)
                                 0x14 (size before relaxing)
 *fill*         0x0017fcc9        0x7 
 .rodata        0x0017fcd0       0x70 ../../fftw-3.3.4/.libs//libfftw3f.a(hc2cbdftv_8.o)
 .rodata.str1.4
                0x0017fd40       0x11 ../../fftw-3.3.4/.libs//libfftw3f.a(hc2cbdftv_8.o)
                                 0x14 (size before relaxing)
 *fill*         0x0017fd51        0x7 
 .rodata        0x0017fd58       0x80 ../../fftw-3.3.4/.libs//libfftw3f.a(hc2cfdftv_10.o)
 .rodata.str1.4
                0x0017fdd8       0x12 ../../fftw-3.3.4/.libs//libfftw3f.a(hc2cfdftv_10.o)
                                 0x14 (size before relaxing)
 *fill*         0x0017fdea        0x6 
 .rodata        0x0017fdf0       0x90 ../../fftw-3.3.4/.libs//libfftw3f.a(hc2cfdftv_12.o)
 .rodata.str1.4
                0x0017fe80       0x12 ../../fftw-3.3.4/.libs//libfftw3f.a(hc2cfdftv_12.o)
                                 0x14 (size before relaxing)
 *fill*         0x0017fe92        0x6 
 .rodata        0x0017fe98       0xb0 ../../fftw-3.3.4/.libs//libfftw3f.a(hc2cfdftv_16.o)
 .rodata.str1.4
                0x0017ff48       0x12 ../../fftw-3.3.4/.libs//libfftw3f.a(hc2cfdftv_16.o)
                                 0x14 (size before relaxing)
 *fill*         0x0017ff5a        0x6 
 .rodata        0x0017ff60       0x40 ../../fftw-3.3.4/.libs//libfftw3f.a(hc2cfdftv_2.o)
 .rodata.str1.4
                0x0017ffa0       0x11 ../../fftw-3.3.4/.libs//libfftw3f.a(hc2cfdftv_2.o)
                                 0x14 (size before relaxing)
 *fill*         0x0017ffb1        0x7 
 .rodata        0x0017ffb8       0xd0 ../../fftw-3.3.4/.libs//libfftw3f.a(hc2cfdftv_20.o)
 .rodata.str1.4
                0x00180088       0x12 ../../fftw-3.3.4/.libs//libfftw3f.a(hc2cfdftv_20.o)
                                 0x14 (size before relaxing)
 *fill*         0x0018009a        0x6 
 .rodata        0x001800a0      0x130 ../../fftw-3.3.4/.libs//libfftw3f.a(hc2cfdftv_32.o)
 .rodata.str1.4
                0x001801d0       0x12 ../../fftw-3.3.4/.libs//libfftw3f.a(hc2cfdftv_32.o)
                                 0x14 (size before relaxing)
 *fill*         0x001801e2        0x6 
 .rodata        0x001801e8       0x50 ../../fftw-3.3.4/.libs//libfftw3f.a(hc2cfdftv_4.o)
 .rodata.str1.4
                0x00180238       0x11 ../../fftw-3.3.4/.libs//libfftw3f.a(hc2cfdftv_4.o)
                                 0x14 (size before relaxing)
 *fill*         0x00180249        0x7 
 .rodata        0x00180250       0x60 ../../fftw-3.3.4/.libs//libfftw3f.a(hc2cfdftv_6.o)
 .rodata.str1.4
                0x001802b0       0x11 ../../fftw-3.3.4/.libs//libfftw3f.a(hc2cfdftv_6.o)
                                 0x14 (size before relaxing)
 *fill*         0x001802c1        0x7 
 .rodata        0x001802c8       0x70 ../../fftw-3.3.4/.libs//libfftw3f.a(hc2cfdftv_8.o)
 .rodata.str1.4
                0x00180338       0x11 ../../fftw-3.3.4/.libs//libfftw3f.a(hc2cfdftv_8.o)
                                 0x14 (size before relaxing)
 *fill*         0x00180349        0x3 
 .rodata        0x0018034c        0x4 ../../fftw-3.3.4/.libs//libfftw3f.a(stride.o)
                0x0018034c                fftwf_an_INT_guaranteed_to_be_zero
 .rodata        0x00180350       0x1c ../../fftw-3.3.4/.libs//libfftw3f.a(bluestein.o)
 .rodata.str1.4
                0x0018036c       0x1c ../../fftw-3.3.4/.libs//libfftw3f.a(bluestein.o)
 .rodata        0x00180388       0x28 ../../fftw-3.3.4/.libs//libfftw3f.a(lt1-buffered.o)
 .rodata.str1.4
                0x001803b0       0x2c ../../fftw-3.3.4/.libs//libfftw3f.a(lt1-buffered.o)
 .rodata        0x001803dc       0x1c ../../fftw-3.3.4/.libs//libfftw3f.a(lt2-ct.o)
 .rodata.str1.4
                0x001803f8       0x1b ../../fftw-3.3.4/.libs//libfftw3f.a(lt2-ct.o)
                                 0x24 (size before relaxing)
 *fill*         0x00180413        0x1 
 .rodata        0x00180414        0x8 ../../fftw-3.3.4/.libs//libfftw3f.a(n.o)
                0x00180414                fftwf_dft_n_genus
 .rodata        0x0018041c        0x8 ../../fftw-3.3.4/.libs//libfftw3f.a(t.o)
                0x0018041c                fftwf_dft_t_genus
 *fill*         0x00180424        0x4 
 .rodata        0x00180428       0x28 ../../fftw-3.3.4/.libs//libfftw3f.a(lt6-buffered.o)
 .rodata.str1.4
                0x00180450       0x2d ../../fftw-3.3.4/.libs//libfftw3f.a(lt6-buffered.o)
                                 0x30 (size before relaxing)
 *fill*         0x0018047d        0x3 
 .rodata        0x00180480       0x28 ../../fftw-3.3.4/.libs//libfftw3f.a(buffered2.o)
 .rodata.str1.4
                0x001804a8       0x2e ../../fftw-3.3.4/.libs//libfftw3f.a(buffered2.o)
                                 0x30 (size before relaxing)
 *fill*         0x001804d6        0x2 
 .rodata        0x001804d8       0x18 ../../fftw-3.3.4/.libs//libfftw3f.a(hc2c.o)
                0x001804d8                fftwf_rdft_hc2cb_genus
                0x001804e4                fftwf_rdft_hc2cf_genus
 .rodata        0x001804f0       0x10 ../../fftw-3.3.4/.libs//libfftw3f.a(hfb.o)
                0x001804f0                fftwf_rdft_hb_genus
                0x001804f8                fftwf_rdft_hf_genus
 .rodata        0x00180500       0x20 ../../fftw-3.3.4/.libs//libfftw3f.a(r2c.o)
                0x00180500                fftwf_rdft_r2cbIII_genus
                0x00180508                fftwf_rdft_r2cb_genus
                0x00180510                fftwf_rdft_r2cfII_genus
                0x00180518                fftwf_rdft_r2cf_genus
 .rodata        0x00180520        0x4 ../../fftw-3.3.4/.libs//libfftw3f.a(r2r.o)
                0x00180520                fftwf_rdft_r2r_genus
 .rodata        0x00180524       0x70 ../../fftw-3.3.4/.libs//libfftw3f.a(genus.o)
                0x00180524                fftwf_dft_tssimd_genus_neon
                0x0018052c                fftwf_dft_t2bsimd_genus_neon
                0x00180534                fftwf_dft_t2fsimd_genus_neon
                0x0018053c                fftwf_dft_t1busimd_genus_neon
                0x00180544                fftwf_dft_t1bsimd_genus_neon
                0x0018054c                fftwf_dft_t1fusimd_genus_neon
                0x00180554                fftwf_dft_t1fsimd_genus_neon
                0x0018055c                fftwf_dft_q1fsimd_genus_neon
                0x00180564                fftwf_dft_q1bsimd_genus_neon
                0x0018056c                fftwf_dft_n2ssimd_genus_neon
                0x00180574                fftwf_dft_n2fsimd_genus_neon
                0x0018057c                fftwf_dft_n2bsimd_genus_neon
                0x00180584                fftwf_dft_n1fsimd_genus_neon
                0x0018058c                fftwf_dft_n1bsimd_genus_neon
 .rodata        0x00180594       0x18 ../../fftw-3.3.4/.libs//libfftw3f.a(lt22-genus.o)
                0x00180594                fftwf_rdft_hc2cfv_genus_neon
                0x001805a0                fftwf_rdft_hc2cbv_genus_neon
 .rodata        0x001805ac       0x10 ../../fftw-3.3.4/.libs//libfftw3f.a(dftw-direct.o)
 .rodata.str1.4
                0x001805bc       0x3f ../../fftw-3.3.4/.libs//libfftw3f.a(dftw-direct.o)
                                 0x40 (size before relaxing)
 *fill*         0x001805fb        0x1 
 .rodata        0x001805fc       0x10 ../../fftw-3.3.4/.libs//libfftw3f.a(dftw-directsq.o)
 .rodata.str1.4
                0x0018060c       0x1d ../../fftw-3.3.4/.libs//libfftw3f.a(dftw-directsq.o)
                                 0x20 (size before relaxing)
 *fill*         0x00180629        0x3 
 .rodata        0x0018062c       0x1c ../../fftw-3.3.4/.libs//libfftw3f.a(direct.o)
 .rodata.str1.4
                0x00180648       0x37 ../../fftw-3.3.4/.libs//libfftw3f.a(direct.o)
                                 0x38 (size before relaxing)
 *fill*         0x0018067f        0x1 
 .rodata        0x00180680       0x10 ../../fftw-3.3.4/.libs//libfftw3f.a(ct-hc2c-direct.o)
 .rodata.str1.4
                0x00180690       0x5a ../../fftw-3.3.4/.libs//libfftw3f.a(ct-hc2c-direct.o)
                                 0x5c (size before relaxing)
 *fill*         0x001806ea        0x2 
 .rodata        0x001806ec       0x1c ../../fftw-3.3.4/.libs//libfftw3f.a(ct-hc2c.o)
 .rodata.str1.4
                0x00180708       0x1d ../../fftw-3.3.4/.libs//libfftw3f.a(ct-hc2c.o)
                                 0x28 (size before relaxing)
 *fill*         0x00180725        0x3 
 .rodata        0x00180728       0x1c ../../fftw-3.3.4/.libs//libfftw3f.a(direct-r2c.o)
 .rodata.str1.4
                0x00180744       0x47 ../../fftw-3.3.4/.libs//libfftw3f.a(direct-r2c.o)
                                 0x48 (size before relaxing)
 *fill*         0x0018078b        0x1 
 .rodata        0x0018078c       0x1c ../../fftw-3.3.4/.libs//libfftw3f.a(direct-r2r.o)
 .rodata.str1.4
                0x001807a8       0x1f ../../fftw-3.3.4/.libs//libfftw3f.a(direct-r2r.o)
                                 0x20 (size before relaxing)
 *fill*         0x001807c7        0x1 
 .rodata        0x001807c8       0x1c ../../fftw-3.3.4/.libs//libfftw3f.a(direct2.o)
 .rodata.str1.4
                0x001807e4       0x1c ../../fftw-3.3.4/.libs//libfftw3f.a(direct2.o)
 .rodata        0x00180800       0x10 ../../fftw-3.3.4/.libs//libfftw3f.a(hc2hc-direct.o)
 .rodata.str1.4
                0x00180810       0x58 ../../fftw-3.3.4/.libs//libfftw3f.a(hc2hc-direct.o)

.rodata1
 *(.rodata1)

.ARM.extab      0x00180868        0x0
 *(.ARM.extab* .gnu.linkonce.armextab.*)
 .ARM.extab     0x00180868        0x0 /opt/ti-sdk-am335x-evm-07.00.00.00/linux-devkit/sysroots/i686-arago-linux/usr/bin/../arm-linux-gnueabihf/libc/usr/lib/arm-linux-gnueabihf/4.7.3/crt1.o
                0x00180868                PROVIDE (__exidx_start, .)

.ARM.exidx      0x00180868        0x8
 *(.ARM.exidx* .gnu.linkonce.armexidx.*)
 .ARM.exidx     0x00180868        0x8 /opt/ti-sdk-am335x-evm-07.00.00.00/linux-devkit/sysroots/i686-arago-linux/usr/bin/../arm-linux-gnueabihf/libc/usr/lib/arm-linux-gnueabihf/4.7.3/crt1.o
                0x00180870                PROVIDE (__exidx_end, .)

.eh_frame_hdr   0x00180870        0x0
 *(.eh_frame_hdr)
 .eh_frame_hdr  0x00000000        0x0 /opt/ti-sdk-am335x-evm-07.00.00.00/linux-devkit/sysroots/i686-arago-linux/usr/bin/../arm-linux-gnueabihf/libc/usr/lib/arm-linux-gnueabihf/4.7.3/crtn.o

.eh_frame       0x00180870        0x4
 *(.eh_frame)
 .eh_frame      0x00180870        0x4 /opt/ti-sdk-am335x-evm-07.00.00.00/linux-devkit/sysroots/i686-arago-linux/usr/bin/../lib/gcc/arm-linux-gnueabihf/4.7.3/crtend.o

.gcc_except_table
 *(.gcc_except_table .gcc_except_table.*)

.exception_ranges
 *(.exception_ranges .exception_ranges*)
                0x00180874                . = (ALIGN (0x8000) - ((0x8000 - .) & 0x7fff))
                0x00188874                . = DATA_SEGMENT_ALIGN (0x8000, 0x1000)

.eh_frame
 *(.eh_frame)

.gcc_except_table
 *(.gcc_except_table .gcc_except_table.*)

.exception_ranges
 *(.exception_ranges .exception_ranges*)

.tdata
 *(.tdata .tdata.* .gnu.linkonce.td.*)

.tbss
 *(.tbss .tbss.* .gnu.linkonce.tb.*)
 *(.tcommon)

.preinit_array  0x00188874        0x0
                0x00188874                PROVIDE (__preinit_array_start, .)
 *(.preinit_array)
                0x00188874                PROVIDE (__preinit_array_end, .)

.init_array     0x00188874        0x4
                0x00188874                PROVIDE (__init_array_start, .)
 *(SORT(.init_array.*))
 *(.init_array)
 .init_array    0x00188874        0x4 /opt/ti-sdk-am335x-evm-07.00.00.00/linux-devkit/sysroots/i686-arago-linux/usr/bin/../lib/gcc/arm-linux-gnueabihf/4.7.3/crtbegin.o
                0x00188878                PROVIDE (__init_array_end, .)

.fini_array     0x00188878        0x4
                0x00188878                PROVIDE (__fini_array_start, .)
 *(SORT(.fini_array.*))
 *(.fini_array)
 .fini_array    0x00188878        0x4 /opt/ti-sdk-am335x-evm-07.00.00.00/linux-devkit/sysroots/i686-arago-linux/usr/bin/../lib/gcc/arm-linux-gnueabihf/4.7.3/crtbegin.o
                0x0018887c                PROVIDE (__fini_array_end, .)

.ctors
 *crtbegin.o(.ctors)
 *crtbegin?.o(.ctors)
 *(EXCLUDE_FILE(*crtend?.o *crtend.o) .ctors)
 *(SORT(.ctors.*))
 *(.ctors)

.dtors
 *crtbegin.o(.dtors)
 *crtbegin?.o(.dtors)
 *(EXCLUDE_FILE(*crtend?.o *crtend.o) .dtors)
 *(SORT(.dtors.*))
 *(.dtors)

.jcr            0x0018887c        0x4
 *(.jcr)
 .jcr           0x0018887c        0x0 /opt/ti-sdk-am335x-evm-07.00.00.00/linux-devkit/sysroots/i686-arago-linux/usr/bin/../lib/gcc/arm-linux-gnueabihf/4.7.3/crtbegin.o
 .jcr           0x0018887c        0x4 /opt/ti-sdk-am335x-evm-07.00.00.00/linux-devkit/sysroots/i686-arago-linux/usr/bin/../lib/gcc/arm-linux-gnueabihf/4.7.3/crtend.o

.data.rel.ro
 *(.data.rel.ro.local* .gnu.linkonce.d.rel.ro.local.*)
 *(.data.rel.ro .data.rel.ro.* .gnu.linkonce.d.rel.ro.*)

.dynamic        0x00188880       0xf8
 *(.dynamic)
 .dynamic       0x00188880       0xf8 /opt/ti-sdk-am335x-evm-07.00.00.00/linux-devkit/sysroots/i686-arago-linux/usr/bin/../arm-linux-gnueabihf/libc/usr/lib/arm-linux-gnueabihf/4.7.3/crt1.o
                0x00188880                _DYNAMIC
                0x00188978                . = DATA_SEGMENT_RELRO_END (., 0x0)

.got            0x00188978      0x1e4
 *(.got.plt)
 .got.plt       0x00188978      0x1e0 /opt/ti-sdk-am335x-evm-07.00.00.00/linux-devkit/sysroots/i686-arago-linux/usr/bin/../arm-linux-gnueabihf/libc/usr/lib/arm-linux-gnueabihf/4.7.3/crt1.o
                0x00188978                _GLOBAL_OFFSET_TABLE_
 *(.igot.plt)
 .igot.plt      0x00000000        0x0 /opt/ti-sdk-am335x-evm-07.00.00.00/linux-devkit/sysroots/i686-arago-linux/usr/bin/../arm-linux-gnueabihf/libc/usr/lib/arm-linux-gnueabihf/4.7.3/crt1.o
 *(.got)
 .got           0x00188b58        0x4 /opt/ti-sdk-am335x-evm-07.00.00.00/linux-devkit/sysroots/i686-arago-linux/usr/bin/../arm-linux-gnueabihf/libc/usr/lib/arm-linux-gnueabihf/4.7.3/crt1.o
 *(.igot)

.data           0x00188b60       0xa4
                0x00188b60                PROVIDE (__data_start, .)
 *(.data .data.* .gnu.linkonce.d.*)
 .data          0x00188b60        0x4 /opt/ti-sdk-am335x-evm-07.00.00.00/linux-devkit/sysroots/i686-arago-linux/usr/bin/../arm-linux-gnueabihf/libc/usr/lib/arm-linux-gnueabihf/4.7.3/crt1.o
                0x00188b60                data_start
                0x00188b60                __data_start
 .data          0x00188b64        0x0 /opt/ti-sdk-am335x-evm-07.00.00.00/linux-devkit/sysroots/i686-arago-linux/usr/bin/../arm-linux-gnueabihf/libc/usr/lib/arm-linux-gnueabihf/4.7.3/crti.o
 .data          0x00188b64        0x4 /opt/ti-sdk-am335x-evm-07.00.00.00/linux-devkit/sysroots/i686-arago-linux/usr/bin/../lib/gcc/arm-linux-gnueabihf/4.7.3/crtbegin.o
                0x00188b64                __dso_handle
 .data          0x00188b68        0x0 release/main.o
 .data          0x00188b68       0x98 release/mongoose.o
 .data          0x00188c00        0x0 release/dt78xx_aio.o
 .data          0x00188c00        0x0 release/dt78xx_misc.o
 .data          0x00188c00        0x0 ../../fftw-3.3.4/.libs//libfftw3f.a(apiplan.o)
 .data          0x00188c00        0x0 ../../fftw-3.3.4/.libs//libfftw3f.a(execute.o)
 .data          0x00188c00        0x0 ../../fftw-3.3.4/.libs//libfftw3f.a(malloc.o)
 .data          0x00188c00        0x0 ../../fftw-3.3.4/.libs//libfftw3f.a(mapflags.o)
 .data          0x00188c00        0x0 ../../fftw-3.3.4/.libs//libfftw3f.a(plan-dft-r2c-1d.o)
 .data          0x00188c00        0x0 ../../fftw-3.3.4/.libs//libfftw3f.a(plan-dft-r2c.o)
 .data          0x00188c00        0x0 ../../fftw-3.3.4/.libs//libfftw3f.a(plan-many-dft-r2c.o)
 .data          0x00188c00        0x0 ../../fftw-3.3.4/.libs//libfftw3f.a(rdft2-pad.o)
 .data          0x00188c00        0x0 ../../fftw-3.3.4/.libs//libfftw3f.a(the-planner.o)
 .data          0x00188c00        0x0 ../../fftw-3.3.4/.libs//libfftw3f.a(alloc.o)
 .data          0x00188c00        0x0 ../../fftw-3.3.4/.libs//libfftw3f.a(assert.o)
 .data          0x00188c00        0x0 ../../fftw-3.3.4/.libs//libfftw3f.a(extract-reim.o)
 .data          0x00188c00        0x0 ../../fftw-3.3.4/.libs//libfftw3f.a(kalloc.o)
 .data          0x00188c00        0x0 ../../fftw-3.3.4/.libs//libfftw3f.a(plan.o)
 .data          0x00188c00        0x0 ../../fftw-3.3.4/.libs//libfftw3f.a(planner.o)
 .data          0x00188c00        0x0 ../../fftw-3.3.4/.libs//libfftw3f.a(primes.o)
 .data          0x00188c00        0x4 ../../fftw-3.3.4/.libs//libfftw3f.a(problem.o)
 .data          0x00188c04        0x0 ../../fftw-3.3.4/.libs//libfftw3f.a(solver.o)
 .data          0x00188c04        0x0 ../../fftw-3.3.4/.libs//libfftw3f.a(tensor1.o)
 .data          0x00188c04        0x0 ../../fftw-3.3.4/.libs//libfftw3f.a(timer.o)
 .data          0x00188c04        0x0 ../../fftw-3.3.4/.libs//libfftw3f.a(problem2.o)
 .data          0x00188c04        0x0 ../../fftw-3.3.4/.libs//libfftw3f.a(configure.o)
 .data          0x00188c04        0x0 ../../fftw-3.3.4/.libs//libfftw3f.a(mktensor-rowmajor.o)
 .data          0x00188c04        0x0 ../../fftw-3.3.4/.libs//libfftw3f.a(align.o)
 .data          0x00188c04        0x0 ../../fftw-3.3.4/.libs//libfftw3f.a(hash.o)
 .data          0x00188c04        0x0 ../../fftw-3.3.4/.libs//libfftw3f.a(md5-1.o)
 .data          0x00188c04        0x0 ../../fftw-3.3.4/.libs//libfftw3f.a(md5.o)
 .data          0x00188c04        0x0 ../../fftw-3.3.4/.libs//libfftw3f.a(ops.o)
 .data          0x00188c04        0x0 ../../fftw-3.3.4/.libs//libfftw3f.a(tensor.o)
 .data          0x00188c04        0x0 ../../fftw-3.3.4/.libs//libfftw3f.a(tensor5.o)
 .data          0x00188c04        0x0 ../../fftw-3.3.4/.libs//libfftw3f.a(tensor7.o)
 .data          0x00188c04        0x0 ../../fftw-3.3.4/.libs//libfftw3f.a(tensor8.o)
 .data          0x00188c04        0x0 ../../fftw-3.3.4/.libs//libfftw3f.a(conf.o)
 .data          0x00188c04        0x0 ../../fftw-3.3.4/.libs//libfftw3f.a(dftw-generic.o)
 .data          0x00188c04        0x0 ../../fftw-3.3.4/.libs//libfftw3f.a(dftw-genericbuf.o)
 .data          0x00188c04        0x0 ../../fftw-3.3.4/.libs//libfftw3f.a(generic.o)
 .data          0x00188c04        0x0 ../../fftw-3.3.4/.libs//libfftw3f.a(indirect-transpose.o)
 .data          0x00188c04        0x0 ../../fftw-3.3.4/.libs//libfftw3f.a(indirect.o)
 .data          0x00188c04        0x0 ../../fftw-3.3.4/.libs//libfftw3f.a(nop.o)
 .data          0x00188c04        0x0 ../../fftw-3.3.4/.libs//libfftw3f.a(lt3-plan.o)
 .data          0x00188c04        0x0 ../../fftw-3.3.4/.libs//libfftw3f.a(lt4-problem.o)
 .data          0x00188c04        0x0 ../../fftw-3.3.4/.libs//libfftw3f.a(lt5-rader.o)
 .data          0x00188c04        0x0 ../../fftw-3.3.4/.libs//libfftw3f.a(rank-geq2.o)
 .data          0x00188c04        0x0 ../../fftw-3.3.4/.libs//libfftw3f.a(solve.o)
 .data          0x00188c04        0x0 ../../fftw-3.3.4/.libs//libfftw3f.a(vrank-geq1.o)
 .data          0x00188c04        0x0 ../../fftw-3.3.4/.libs//libfftw3f.a(zero.o)
 .data          0x00188c04        0x0 ../../fftw-3.3.4/.libs//libfftw3f.a(codlist.o)
 .data          0x00188c04        0x0 ../../fftw-3.3.4/.libs//libfftw3f.a(n1_10.o)
 .data          0x00188c04        0x0 ../../fftw-3.3.4/.libs//libfftw3f.a(n1_11.o)
 .data          0x00188c04        0x0 ../../fftw-3.3.4/.libs//libfftw3f.a(n1_12.o)
 .data          0x00188c04        0x0 ../../fftw-3.3.4/.libs//libfftw3f.a(n1_13.o)
 .data          0x00188c04        0x0 ../../fftw-3.3.4/.libs//libfftw3f.a(n1_14.o)
 .data          0x00188c04        0x0 ../../fftw-3.3.4/.libs//libfftw3f.a(n1_15.o)
 .data          0x00188c04        0x0 ../../fftw-3.3.4/.libs//libfftw3f.a(n1_16.o)
 .data          0x00188c04        0x0 ../../fftw-3.3.4/.libs//libfftw3f.a(n1_2.o)
 .data          0x00188c04        0x0 ../../fftw-3.3.4/.libs//libfftw3f.a(n1_20.o)
 .data          0x00188c04        0x0 ../../fftw-3.3.4/.libs//libfftw3f.a(n1_25.o)
 .data          0x00188c04        0x0 ../../fftw-3.3.4/.libs//libfftw3f.a(n1_3.o)
 .data          0x00188c04        0x0 ../../fftw-3.3.4/.libs//libfftw3f.a(n1_32.o)
 .data          0x00188c04        0x0 ../../fftw-3.3.4/.libs//libfftw3f.a(n1_4.o)
 .data          0x00188c04        0x0 ../../fftw-3.3.4/.libs//libfftw3f.a(n1_5.o)
 .data          0x00188c04        0x0 ../../fftw-3.3.4/.libs//libfftw3f.a(n1_6.o)
 .data          0x00188c04        0x0 ../../fftw-3.3.4/.libs//libfftw3f.a(n1_64.o)
 .data          0x00188c04        0x0 ../../fftw-3.3.4/.libs//libfftw3f.a(n1_7.o)
 .data          0x00188c04        0x0 ../../fftw-3.3.4/.libs//libfftw3f.a(n1_8.o)
 .data          0x00188c04        0x0 ../../fftw-3.3.4/.libs//libfftw3f.a(n1_9.o)
 .data          0x00188c04        0x0 ../../fftw-3.3.4/.libs//libfftw3f.a(q1_2.o)
 .data          0x00188c04        0x0 ../../fftw-3.3.4/.libs//libfftw3f.a(q1_3.o)
 .data          0x00188c04        0x0 ../../fftw-3.3.4/.libs//libfftw3f.a(q1_4.o)
 .data          0x00188c04        0x0 ../../fftw-3.3.4/.libs//libfftw3f.a(q1_5.o)
 .data          0x00188c04        0x0 ../../fftw-3.3.4/.libs//libfftw3f.a(q1_6.o)
 .data          0x00188c04        0x0 ../../fftw-3.3.4/.libs//libfftw3f.a(q1_8.o)
 .data          0x00188c04        0x0 ../../fftw-3.3.4/.libs//libfftw3f.a(t1_10.o)
 .data          0x00188c04        0x0 ../../fftw-3.3.4/.libs//libfftw3f.a(t1_12.o)
 .data          0x00188c04        0x0 ../../fftw-3.3.4/.libs//libfftw3f.a(t1_15.o)
 .data          0x00188c04        0x0 ../../fftw-3.3.4/.libs//libfftw3f.a(t1_16.o)
 .data          0x00188c04        0x0 ../../fftw-3.3.4/.libs//libfftw3f.a(t1_2.o)
 .data          0x00188c04        0x0 ../../fftw-3.3.4/.libs//libfftw3f.a(t1_20.o)
 .data          0x00188c04        0x0 ../../fftw-3.3.4/.libs//libfftw3f.a(t1_25.o)
 .data          0x00188c04        0x0 ../../fftw-3.3.4/.libs//libfftw3f.a(t1_3.o)
 .data          0x00188c04        0x0 ../../fftw-3.3.4/.libs//libfftw3f.a(t1_32.o)
 .data          0x00188c04        0x0 ../../fftw-3.3.4/.libs//libfftw3f.a(t1_4.o)
 .data          0x00188c04        0x0 ../../fftw-3.3.4/.libs//libfftw3f.a(t1_5.o)
 .data          0x00188c04        0x0 ../../fftw-3.3.4/.libs//libfftw3f.a(t1_6.o)
 .data          0x00188c04        0x0 ../../fftw-3.3.4/.libs//libfftw3f.a(t1_64.o)
 .data          0x00188c04        0x0 ../../fftw-3.3.4/.libs//libfftw3f.a(t1_7.o)
 .data          0x00188c04        0x0 ../../fftw-3.3.4/.libs//libfftw3f.a(t1_8.o)
 .data          0x00188c04        0x0 ../../fftw-3.3.4/.libs//libfftw3f.a(t1_9.o)
 .data          0x00188c04        0x0 ../../fftw-3.3.4/.libs//libfftw3f.a(t2_10.o)
 .data          0x00188c04        0x0 ../../fftw-3.3.4/.libs//libfftw3f.a(t2_16.o)
 .data          0x00188c04        0x0 ../../fftw-3.3.4/.libs//libfftw3f.a(t2_20.o)
 .data          0x00188c04        0x0 ../../fftw-3.3.4/.libs//libfftw3f.a(t2_25.o)
 .data          0x00188c04        0x0 ../../fftw-3.3.4/.libs//libfftw3f.a(t2_32.o)
 .data          0x00188c04        0x0 ../../fftw-3.3.4/.libs//libfftw3f.a(t2_4.o)
 .data          0x00188c04        0x0 ../../fftw-3.3.4/.libs//libfftw3f.a(t2_5.o)
 .data          0x00188c04        0x0 ../../fftw-3.3.4/.libs//libfftw3f.a(t2_64.o)
 .data          0x00188c04        0x0 ../../fftw-3.3.4/.libs//libfftw3f.a(t2_8.o)
 .data          0x00188c04        0x0 ../../fftw-3.3.4/.libs//libfftw3f.a(lt7-conf.o)
 .data          0x00188c04        0x0 ../../fftw-3.3.4/.libs//libfftw3f.a(dft-r2hc.o)
 .data          0x00188c04        0x0 ../../fftw-3.3.4/.libs//libfftw3f.a(dht-r2hc.o)
 .data          0x00188c04        0x0 ../../fftw-3.3.4/.libs//libfftw3f.a(dht-rader.o)
 .data          0x00188c04        0x0 ../../fftw-3.3.4/.libs//libfftw3f.a(lt8-generic.o)
 .data          0x00188c04        0x0 ../../fftw-3.3.4/.libs//libfftw3f.a(hc2hc-generic.o)
 .data          0x00188c04        0x0 ../../fftw-3.3.4/.libs//libfftw3f.a(hc2hc.o)
 .data          0x00188c04        0x0 ../../fftw-3.3.4/.libs//libfftw3f.a(lt9-indirect.o)
 .data          0x00188c04        0x0 ../../fftw-3.3.4/.libs//libfftw3f.a(lt10-nop.o)
 .data          0x00188c04        0x0 ../../fftw-3.3.4/.libs//libfftw3f.a(nop2.o)
 .data          0x00188c04        0x0 ../../fftw-3.3.4/.libs//libfftw3f.a(lt11-plan.o)
 .data          0x00188c04        0x0 ../../fftw-3.3.4/.libs//libfftw3f.a(plan2.o)
 .data          0x00188c04        0x0 ../../fftw-3.3.4/.libs//libfftw3f.a(lt12-problem.o)
 .data          0x00188c04        0x0 ../../fftw-3.3.4/.libs//libfftw3f.a(rank-geq2-rdft2.o)
 .data          0x00188c04        0x0 ../../fftw-3.3.4/.libs//libfftw3f.a(lt13-rank-geq2.o)
 .data          0x00188c04        0x0 ../../fftw-3.3.4/.libs//libfftw3f.a(rank0-rdft2.o)
 .data          0x00188c04        0x0 ../../fftw-3.3.4/.libs//libfftw3f.a(rank0.o)
 .data          0x00188c04        0x0 ../../fftw-3.3.4/.libs//libfftw3f.a(rdft-dht.o)
 .data          0x00188c04        0x0 ../../fftw-3.3.4/.libs//libfftw3f.a(rdft2-inplace-strides.o)
 .data          0x00188c04        0x0 ../../fftw-3.3.4/.libs//libfftw3f.a(rdft2-rdft.o)
 .data          0x00188c04        0x0 ../../fftw-3.3.4/.libs//libfftw3f.a(rdft2-strides.o)
 .data          0x00188c04        0x0 ../../fftw-3.3.4/.libs//libfftw3f.a(rdft2-tensor-max-index.o)
 .data          0x00188c04        0x0 ../../fftw-3.3.4/.libs//libfftw3f.a(lt14-solve.o)
 .data          0x00188c04        0x0 ../../fftw-3.3.4/.libs//libfftw3f.a(solve2.o)
 .data          0x00188c04        0x0 ../../fftw-3.3.4/.libs//libfftw3f.a(vrank-geq1-rdft2.o)
 .data          0x00188c04        0x0 ../../fftw-3.3.4/.libs//libfftw3f.a(lt15-vrank-geq1.o)
 .data          0x00188c04        0x0 ../../fftw-3.3.4/.libs//libfftw3f.a(vrank3-transpose.o)
 .data          0x00188c04        0x0 ../../fftw-3.3.4/.libs//libfftw3f.a(lt16-codlist.o)
 .data          0x00188c04        0x0 ../../fftw-3.3.4/.libs//libfftw3f.a(hc2cf2_16.o)
 .data          0x00188c04        0x0 ../../fftw-3.3.4/.libs//libfftw3f.a(hc2cf2_20.o)
 .data          0x00188c04        0x0 ../../fftw-3.3.4/.libs//libfftw3f.a(hc2cf2_32.o)
 .data          0x00188c04        0x0 ../../fftw-3.3.4/.libs//libfftw3f.a(hc2cf2_4.o)
 .data          0x00188c04        0x0 ../../fftw-3.3.4/.libs//libfftw3f.a(hc2cf2_8.o)
 .data          0x00188c04        0x0 ../../fftw-3.3.4/.libs//libfftw3f.a(hc2cf_10.o)
 .data          0x00188c04        0x0 ../../fftw-3.3.4/.libs//libfftw3f.a(hc2cf_12.o)
 .data          0x00188c04        0x0 ../../fftw-3.3.4/.libs//libfftw3f.a(hc2cf_16.o)
 .data          0x00188c04        0x0 ../../fftw-3.3.4/.libs//libfftw3f.a(hc2cf_2.o)
 .data          0x00188c04        0x0 ../../fftw-3.3.4/.libs//libfftw3f.a(hc2cf_20.o)
 .data          0x00188c04        0x0 ../../fftw-3.3.4/.libs//libfftw3f.a(hc2cf_32.o)
 .data          0x00188c04        0x0 ../../fftw-3.3.4/.libs//libfftw3f.a(hc2cf_4.o)
 .data          0x00188c04        0x0 ../../fftw-3.3.4/.libs//libfftw3f.a(hc2cf_6.o)
 .data          0x00188c04        0x0 ../../fftw-3.3.4/.libs//libfftw3f.a(hc2cf_8.o)
 .data          0x00188c04        0x0 ../../fftw-3.3.4/.libs//libfftw3f.a(hc2cfdft2_16.o)
 .data          0x00188c04        0x0 ../../fftw-3.3.4/.libs//libfftw3f.a(hc2cfdft2_20.o)
 .data          0x00188c04        0x0 ../../fftw-3.3.4/.libs//libfftw3f.a(hc2cfdft2_32.o)
 .data          0x00188c04        0x0 ../../fftw-3.3.4/.libs//libfftw3f.a(hc2cfdft2_4.o)
 .data          0x00188c04        0x0 ../../fftw-3.3.4/.libs//libfftw3f.a(hc2cfdft2_8.o)
 .data          0x00188c04        0x0 ../../fftw-3.3.4/.libs//libfftw3f.a(hc2cfdft_10.o)
 .data          0x00188c04        0x0 ../../fftw-3.3.4/.libs//libfftw3f.a(hc2cfdft_12.o)
 .data          0x00188c04        0x0 ../../fftw-3.3.4/.libs//libfftw3f.a(hc2cfdft_16.o)
 .data          0x00188c04        0x0 ../../fftw-3.3.4/.libs//libfftw3f.a(hc2cfdft_2.o)
 .data          0x00188c04        0x0 ../../fftw-3.3.4/.libs//libfftw3f.a(hc2cfdft_20.o)
 .data          0x00188c04        0x0 ../../fftw-3.3.4/.libs//libfftw3f.a(hc2cfdft_32.o)
 .data          0x00188c04        0x0 ../../fftw-3.3.4/.libs//libfftw3f.a(hc2cfdft_4.o)
 .data          0x00188c04        0x0 ../../fftw-3.3.4/.libs//libfftw3f.a(hc2cfdft_6.o)
 .data          0x00188c04        0x0 ../../fftw-3.3.4/.libs//libfftw3f.a(hc2cfdft_8.o)
 .data          0x00188c04        0x0 ../../fftw-3.3.4/.libs//libfftw3f.a(hf2_16.o)
 .data          0x00188c04        0x0 ../../fftw-3.3.4/.libs//libfftw3f.a(hf2_20.o)
 .data          0x00188c04        0x0 ../../fftw-3.3.4/.libs//libfftw3f.a(hf2_25.o)
 .data          0x00188c04        0x0 ../../fftw-3.3.4/.libs//libfftw3f.a(hf2_32.o)
 .data          0x00188c04        0x0 ../../fftw-3.3.4/.libs//libfftw3f.a(hf2_4.o)
 .data          0x00188c04        0x0 ../../fftw-3.3.4/.libs//libfftw3f.a(hf2_5.o)
 .data          0x00188c04        0x0 ../../fftw-3.3.4/.libs//libfftw3f.a(hf2_8.o)
 .data          0x00188c04        0x0 ../../fftw-3.3.4/.libs//libfftw3f.a(hf_10.o)
 .data          0x00188c04        0x0 ../../fftw-3.3.4/.libs//libfftw3f.a(hf_12.o)
 .data          0x00188c04        0x0 ../../fftw-3.3.4/.libs//libfftw3f.a(hf_15.o)
 .data          0x00188c04        0x0 ../../fftw-3.3.4/.libs//libfftw3f.a(hf_16.o)
 .data          0x00188c04        0x0 ../../fftw-3.3.4/.libs//libfftw3f.a(hf_2.o)
 .data          0x00188c04        0x0 ../../fftw-3.3.4/.libs//libfftw3f.a(hf_20.o)
 .data          0x00188c04        0x0 ../../fftw-3.3.4/.libs//libfftw3f.a(hf_25.o)
 .data          0x00188c04        0x0 ../../fftw-3.3.4/.libs//libfftw3f.a(hf_3.o)
 .data          0x00188c04        0x0 ../../fftw-3.3.4/.libs//libfftw3f.a(hf_32.o)
 .data          0x00188c04        0x0 ../../fftw-3.3.4/.libs//libfftw3f.a(hf_4.o)
 .data          0x00188c04        0x0 ../../fftw-3.3.4/.libs//libfftw3f.a(hf_5.o)
 .data          0x00188c04        0x0 ../../fftw-3.3.4/.libs//libfftw3f.a(hf_6.o)
 .data          0x00188c04        0x0 ../../fftw-3.3.4/.libs//libfftw3f.a(hf_64.o)
 .data          0x00188c04        0x0 ../../fftw-3.3.4/.libs//libfftw3f.a(hf_7.o)
 .data          0x00188c04        0x0 ../../fftw-3.3.4/.libs//libfftw3f.a(hf_8.o)
 .data          0x00188c04        0x0 ../../fftw-3.3.4/.libs//libfftw3f.a(hf_9.o)
 .data          0x00188c04        0x0 ../../fftw-3.3.4/.libs//libfftw3f.a(r2cfII_10.o)
 .data          0x00188c04        0x0 ../../fftw-3.3.4/.libs//libfftw3f.a(r2cfII_12.o)
 .data          0x00188c04        0x0 ../../fftw-3.3.4/.libs//libfftw3f.a(r2cfII_15.o)
 .data          0x00188c04        0x0 ../../fftw-3.3.4/.libs//libfftw3f.a(r2cfII_16.o)
 .data          0x00188c04        0x0 ../../fftw-3.3.4/.libs//libfftw3f.a(r2cfII_2.o)
 .data          0x00188c04        0x0 ../../fftw-3.3.4/.libs//libfftw3f.a(r2cfII_20.o)
 .data          0x00188c04        0x0 ../../fftw-3.3.4/.libs//libfftw3f.a(r2cfII_25.o)
 .data          0x00188c04        0x0 ../../fftw-3.3.4/.libs//libfftw3f.a(r2cfII_3.o)
 .data          0x00188c04        0x0 ../../fftw-3.3.4/.libs//libfftw3f.a(r2cfII_32.o)
 .data          0x00188c04        0x0 ../../fftw-3.3.4/.libs//libfftw3f.a(r2cfII_4.o)
 .data          0x00188c04        0x0 ../../fftw-3.3.4/.libs//libfftw3f.a(r2cfII_5.o)
 .data          0x00188c04        0x0 ../../fftw-3.3.4/.libs//libfftw3f.a(r2cfII_6.o)
 .data          0x00188c04        0x0 ../../fftw-3.3.4/.libs//libfftw3f.a(r2cfII_64.o)
 .data          0x00188c04        0x0 ../../fftw-3.3.4/.libs//libfftw3f.a(r2cfII_7.o)
 .data          0x00188c04        0x0 ../../fftw-3.3.4/.libs//libfftw3f.a(r2cfII_8.o)
 .data          0x00188c04        0x0 ../../fftw-3.3.4/.libs//libfftw3f.a(r2cfII_9.o)
 .data          0x00188c04        0x0 ../../fftw-3.3.4/.libs//libfftw3f.a(r2cf_10.o)
 .data          0x00188c04        0x0 ../../fftw-3.3.4/.libs//libfftw3f.a(r2cf_11.o)
 .data          0x00188c04        0x0 ../../fftw-3.3.4/.libs//libfftw3f.a(r2cf_12.o)
 .data          0x00188c04        0x0 ../../fftw-3.3.4/.libs//libfftw3f.a(r2cf_128.o)
 .data          0x00188c04        0x0 ../../fftw-3.3.4/.libs//libfftw3f.a(r2cf_13.o)
 .data          0x00188c04        0x0 ../../fftw-3.3.4/.libs//libfftw3f.a(r2cf_14.o)
 .data          0x00188c04        0x0 ../../fftw-3.3.4/.libs//libfftw3f.a(r2cf_15.o)
 .data          0x00188c04        0x0 ../../fftw-3.3.4/.libs//libfftw3f.a(r2cf_16.o)
 .data          0x00188c04        0x0 ../../fftw-3.3.4/.libs//libfftw3f.a(r2cf_2.o)
 .data          0x00188c04        0x0 ../../fftw-3.3.4/.libs//libfftw3f.a(r2cf_20.o)
 .data          0x00188c04        0x0 ../../fftw-3.3.4/.libs//libfftw3f.a(r2cf_25.o)
 .data          0x00188c04        0x0 ../../fftw-3.3.4/.libs//libfftw3f.a(r2cf_3.o)
 .data          0x00188c04        0x0 ../../fftw-3.3.4/.libs//libfftw3f.a(r2cf_32.o)
 .data          0x00188c04        0x0 ../../fftw-3.3.4/.libs//libfftw3f.a(r2cf_4.o)
 .data          0x00188c04        0x0 ../../fftw-3.3.4/.libs//libfftw3f.a(r2cf_5.o)
 .data          0x00188c04        0x0 ../../fftw-3.3.4/.libs//libfftw3f.a(r2cf_6.o)
 .data          0x00188c04        0x0 ../../fftw-3.3.4/.libs//libfftw3f.a(r2cf_64.o)
 .data          0x00188c04        0x0 ../../fftw-3.3.4/.libs//libfftw3f.a(r2cf_7.o)
 .data          0x00188c04        0x0 ../../fftw-3.3.4/.libs//libfftw3f.a(r2cf_8.o)
 .data          0x00188c04        0x0 ../../fftw-3.3.4/.libs//libfftw3f.a(r2cf_9.o)
 .data          0x00188c04        0x0 ../../fftw-3.3.4/.libs//libfftw3f.a(lt17-codlist.o)
 .data          0x00188c04        0x0 ../../fftw-3.3.4/.libs//libfftw3f.a(hb2_16.o)
 .data          0x00188c04        0x0 ../../fftw-3.3.4/.libs//libfftw3f.a(hb2_20.o)
 .data          0x00188c04        0x0 ../../fftw-3.3.4/.libs//libfftw3f.a(hb2_25.o)
 .data          0x00188c04        0x0 ../../fftw-3.3.4/.libs//libfftw3f.a(hb2_32.o)
 .data          0x00188c04        0x0 ../../fftw-3.3.4/.libs//libfftw3f.a(hb2_4.o)
 .data          0x00188c04        0x0 ../../fftw-3.3.4/.libs//libfftw3f.a(hb2_5.o)
 .data          0x00188c04        0x0 ../../fftw-3.3.4/.libs//libfftw3f.a(hb2_8.o)
 .data          0x00188c04        0x0 ../../fftw-3.3.4/.libs//libfftw3f.a(hb_10.o)
 .data          0x00188c04        0x0 ../../fftw-3.3.4/.libs//libfftw3f.a(hb_12.o)
 .data          0x00188c04        0x0 ../../fftw-3.3.4/.libs//libfftw3f.a(hb_15.o)
 .data          0x00188c04        0x0 ../../fftw-3.3.4/.libs//libfftw3f.a(hb_16.o)
 .data          0x00188c04        0x0 ../../fftw-3.3.4/.libs//libfftw3f.a(hb_2.o)
 .data          0x00188c04        0x0 ../../fftw-3.3.4/.libs//libfftw3f.a(hb_20.o)
 .data          0x00188c04        0x0 ../../fftw-3.3.4/.libs//libfftw3f.a(hb_25.o)
 .data          0x00188c04        0x0 ../../fftw-3.3.4/.libs//libfftw3f.a(hb_3.o)
 .data          0x00188c04        0x0 ../../fftw-3.3.4/.libs//libfftw3f.a(hb_32.o)
 .data          0x00188c04        0x0 ../../fftw-3.3.4/.libs//libfftw3f.a(hb_4.o)
 .data          0x00188c04        0x0 ../../fftw-3.3.4/.libs//libfftw3f.a(hb_5.o)
 .data          0x00188c04        0x0 ../../fftw-3.3.4/.libs//libfftw3f.a(hb_6.o)
 .data          0x00188c04        0x0 ../../fftw-3.3.4/.libs//libfftw3f.a(hb_64.o)
 .data          0x00188c04        0x0 ../../fftw-3.3.4/.libs//libfftw3f.a(hb_7.o)
 .data          0x00188c04        0x0 ../../fftw-3.3.4/.libs//libfftw3f.a(hb_8.o)
 .data          0x00188c04        0x0 ../../fftw-3.3.4/.libs//libfftw3f.a(hb_9.o)
 .data          0x00188c04        0x0 ../../fftw-3.3.4/.libs//libfftw3f.a(hc2cb2_16.o)
 .data          0x00188c04        0x0 ../../fftw-3.3.4/.libs//libfftw3f.a(hc2cb2_20.o)
 .data          0x00188c04        0x0 ../../fftw-3.3.4/.libs//libfftw3f.a(hc2cb2_32.o)
 .data          0x00188c04        0x0 ../../fftw-3.3.4/.libs//libfftw3f.a(hc2cb2_4.o)
 .data          0x00188c04        0x0 ../../fftw-3.3.4/.libs//libfftw3f.a(hc2cb2_8.o)
 .data          0x00188c04        0x0 ../../fftw-3.3.4/.libs//libfftw3f.a(hc2cb_10.o)
 .data          0x00188c04        0x0 ../../fftw-3.3.4/.libs//libfftw3f.a(hc2cb_12.o)
 .data          0x00188c04        0x0 ../../fftw-3.3.4/.libs//libfftw3f.a(hc2cb_16.o)
 .data          0x00188c04        0x0 ../../fftw-3.3.4/.libs//libfftw3f.a(hc2cb_2.o)
 .data          0x00188c04        0x0 ../../fftw-3.3.4/.libs//libfftw3f.a(hc2cb_20.o)
 .data          0x00188c04        0x0 ../../fftw-3.3.4/.libs//libfftw3f.a(hc2cb_32.o)
 .data          0x00188c04        0x0 ../../fftw-3.3.4/.libs//libfftw3f.a(hc2cb_4.o)
 .data          0x00188c04        0x0 ../../fftw-3.3.4/.libs//libfftw3f.a(hc2cb_6.o)
 .data          0x00188c04        0x0 ../../fftw-3.3.4/.libs//libfftw3f.a(hc2cb_8.o)
 .data          0x00188c04        0x0 ../../fftw-3.3.4/.libs//libfftw3f.a(hc2cbdft2_16.o)
 .data          0x00188c04        0x0 ../../fftw-3.3.4/.libs//libfftw3f.a(hc2cbdft2_20.o)
 .data          0x00188c04        0x0 ../../fftw-3.3.4/.libs//libfftw3f.a(hc2cbdft2_32.o)
 .data          0x00188c04        0x0 ../../fftw-3.3.4/.libs//libfftw3f.a(hc2cbdft2_4.o)
 .data          0x00188c04        0x0 ../../fftw-3.3.4/.libs//libfftw3f.a(hc2cbdft2_8.o)
 .data          0x00188c04        0x0 ../../fftw-3.3.4/.libs//libfftw3f.a(hc2cbdft_10.o)
 .data          0x00188c04        0x0 ../../fftw-3.3.4/.libs//libfftw3f.a(hc2cbdft_12.o)
 .data          0x00188c04        0x0 ../../fftw-3.3.4/.libs//libfftw3f.a(hc2cbdft_16.o)
 .data          0x00188c04        0x0 ../../fftw-3.3.4/.libs//libfftw3f.a(hc2cbdft_2.o)
 .data          0x00188c04        0x0 ../../fftw-3.3.4/.libs//libfftw3f.a(hc2cbdft_20.o)
 .data          0x00188c04        0x0 ../../fftw-3.3.4/.libs//libfftw3f.a(hc2cbdft_32.o)
 .data          0x00188c04        0x0 ../../fftw-3.3.4/.libs//libfftw3f.a(hc2cbdft_4.o)
 .data          0x00188c04        0x0 ../../fftw-3.3.4/.libs//libfftw3f.a(hc2cbdft_6.o)
 .data          0x00188c04        0x0 ../../fftw-3.3.4/.libs//libfftw3f.a(hc2cbdft_8.o)
 .data          0x00188c04        0x0 ../../fftw-3.3.4/.libs//libfftw3f.a(r2cbIII_10.o)
 .data          0x00188c04        0x0 ../../fftw-3.3.4/.libs//libfftw3f.a(r2cbIII_12.o)
 .data          0x00188c04        0x0 ../../fftw-3.3.4/.libs//libfftw3f.a(r2cbIII_15.o)
 .data          0x00188c04        0x0 ../../fftw-3.3.4/.libs//libfftw3f.a(r2cbIII_16.o)
 .data          0x00188c04        0x0 ../../fftw-3.3.4/.libs//libfftw3f.a(r2cbIII_2.o)
 .data          0x00188c04        0x0 ../../fftw-3.3.4/.libs//libfftw3f.a(r2cbIII_20.o)
 .data          0x00188c04        0x0 ../../fftw-3.3.4/.libs//libfftw3f.a(r2cbIII_25.o)
 .data          0x00188c04        0x0 ../../fftw-3.3.4/.libs//libfftw3f.a(r2cbIII_3.o)
 .data          0x00188c04        0x0 ../../fftw-3.3.4/.libs//libfftw3f.a(r2cbIII_32.o)
 .data          0x00188c04        0x0 ../../fftw-3.3.4/.libs//libfftw3f.a(r2cbIII_4.o)
 .data          0x00188c04        0x0 ../../fftw-3.3.4/.libs//libfftw3f.a(r2cbIII_5.o)
 .data          0x00188c04        0x0 ../../fftw-3.3.4/.libs//libfftw3f.a(r2cbIII_6.o)
 .data          0x00188c04        0x0 ../../fftw-3.3.4/.libs//libfftw3f.a(r2cbIII_64.o)
 .data          0x00188c04        0x0 ../../fftw-3.3.4/.libs//libfftw3f.a(r2cbIII_7.o)
 .data          0x00188c04        0x0 ../../fftw-3.3.4/.libs//libfftw3f.a(r2cbIII_8.o)
 .data          0x00188c04        0x0 ../../fftw-3.3.4/.libs//libfftw3f.a(r2cbIII_9.o)
 .data          0x00188c04        0x0 ../../fftw-3.3.4/.libs//libfftw3f.a(r2cb_10.o)
 .data          0x00188c04        0x0 ../../fftw-3.3.4/.libs//libfftw3f.a(r2cb_11.o)
 .data          0x00188c04        0x0 ../../fftw-3.3.4/.libs//libfftw3f.a(r2cb_12.o)
 .data          0x00188c04        0x0 ../../fftw-3.3.4/.libs//libfftw3f.a(r2cb_128.o)
 .data          0x00188c04        0x0 ../../fftw-3.3.4/.libs//libfftw3f.a(r2cb_13.o)
 .data          0x00188c04        0x0 ../../fftw-3.3.4/.libs//libfftw3f.a(r2cb_14.o)
 .data          0x00188c04        0x0 ../../fftw-3.3.4/.libs//libfftw3f.a(r2cb_15.o)
 .data          0x00188c04        0x0 ../../fftw-3.3.4/.libs//libfftw3f.a(r2cb_16.o)
 .data          0x00188c04        0x0 ../../fftw-3.3.4/.libs//libfftw3f.a(r2cb_2.o)
 .data          0x00188c04        0x0 ../../fftw-3.3.4/.libs//libfftw3f.a(r2cb_20.o)
 .data          0x00188c04        0x0 ../../fftw-3.3.4/.libs//libfftw3f.a(r2cb_25.o)
 .data          0x00188c04        0x0 ../../fftw-3.3.4/.libs//libfftw3f.a(r2cb_3.o)
 .data          0x00188c04        0x0 ../../fftw-3.3.4/.libs//libfftw3f.a(r2cb_32.o)
 .data          0x00188c04        0x0 ../../fftw-3.3.4/.libs//libfftw3f.a(r2cb_4.o)
 .data          0x00188c04        0x0 ../../fftw-3.3.4/.libs//libfftw3f.a(r2cb_5.o)
 .data          0x00188c04        0x0 ../../fftw-3.3.4/.libs//libfftw3f.a(r2cb_6.o)
 .data          0x00188c04        0x0 ../../fftw-3.3.4/.libs//libfftw3f.a(r2cb_64.o)
 .data          0x00188c04        0x0 ../../fftw-3.3.4/.libs//libfftw3f.a(r2cb_7.o)
 .data          0x00188c04        0x0 ../../fftw-3.3.4/.libs//libfftw3f.a(r2cb_8.o)
 .data          0x00188c04        0x0 ../../fftw-3.3.4/.libs//libfftw3f.a(r2cb_9.o)
 .data          0x00188c04        0x0 ../../fftw-3.3.4/.libs//libfftw3f.a(lt18-codlist.o)
 .data          0x00188c04        0x0 ../../fftw-3.3.4/.libs//libfftw3f.a(e01_8.o)
 .data          0x00188c04        0x0 ../../fftw-3.3.4/.libs//libfftw3f.a(e10_8.o)
 .data          0x00188c04        0x0 ../../fftw-3.3.4/.libs//libfftw3f.a(lt19-conf.o)
 .data          0x00188c04        0x0 ../../fftw-3.3.4/.libs//libfftw3f.a(redft00e-r2hc-pad.o)
 .data          0x00188c04        0x0 ../../fftw-3.3.4/.libs//libfftw3f.a(reodft00e-splitradix.o)
 .data          0x00188c04        0x0 ../../fftw-3.3.4/.libs//libfftw3f.a(reodft010e-r2hc.o)
 .data          0x00188c04        0x0 ../../fftw-3.3.4/.libs//libfftw3f.a(reodft11e-r2hc-odd.o)
 .data          0x00188c04        0x0 ../../fftw-3.3.4/.libs//libfftw3f.a(reodft11e-radix2.o)
 .data          0x00188c04        0x0 ../../fftw-3.3.4/.libs//libfftw3f.a(rodft00e-r2hc-pad.o)
 .data          0x00188c04        0x0 ../../fftw-3.3.4/.libs//libfftw3f.a(neon.o)
 .data          0x00188c04        0x0 ../../fftw-3.3.4/.libs//libfftw3f.a(lt20-codlist.o)
 .data          0x00188c04        0x0 ../../fftw-3.3.4/.libs//libfftw3f.a(n1bv_10.o)
 .data          0x00188c04        0x0 ../../fftw-3.3.4/.libs//libfftw3f.a(n1bv_11.o)
 .data          0x00188c04        0x0 ../../fftw-3.3.4/.libs//libfftw3f.a(n1bv_12.o)
 .data          0x00188c04        0x0 ../../fftw-3.3.4/.libs//libfftw3f.a(n1bv_128.o)
 .data          0x00188c04        0x0 ../../fftw-3.3.4/.libs//libfftw3f.a(n1bv_13.o)
 .data          0x00188c04        0x0 ../../fftw-3.3.4/.libs//libfftw3f.a(n1bv_14.o)
 .data          0x00188c04        0x0 ../../fftw-3.3.4/.libs//libfftw3f.a(n1bv_15.o)
 .data          0x00188c04        0x0 ../../fftw-3.3.4/.libs//libfftw3f.a(n1bv_16.o)
 .data          0x00188c04        0x0 ../../fftw-3.3.4/.libs//libfftw3f.a(n1bv_2.o)
 .data          0x00188c04        0x0 ../../fftw-3.3.4/.libs//libfftw3f.a(n1bv_20.o)
 .data          0x00188c04        0x0 ../../fftw-3.3.4/.libs//libfftw3f.a(n1bv_25.o)
 .data          0x00188c04        0x0 ../../fftw-3.3.4/.libs//libfftw3f.a(n1bv_3.o)
 .data          0x00188c04        0x0 ../../fftw-3.3.4/.libs//libfftw3f.a(n1bv_32.o)
 .data          0x00188c04        0x0 ../../fftw-3.3.4/.libs//libfftw3f.a(n1bv_4.o)
 .data          0x00188c04        0x0 ../../fftw-3.3.4/.libs//libfftw3f.a(n1bv_5.o)
 .data          0x00188c04        0x0 ../../fftw-3.3.4/.libs//libfftw3f.a(n1bv_6.o)
 .data          0x00188c04        0x0 ../../fftw-3.3.4/.libs//libfftw3f.a(n1bv_64.o)
 .data          0x00188c04        0x0 ../../fftw-3.3.4/.libs//libfftw3f.a(n1bv_7.o)
 .data          0x00188c04        0x0 ../../fftw-3.3.4/.libs//libfftw3f.a(n1bv_8.o)
 .data          0x00188c04        0x0 ../../fftw-3.3.4/.libs//libfftw3f.a(n1bv_9.o)
 .data          0x00188c04        0x0 ../../fftw-3.3.4/.libs//libfftw3f.a(n1fv_10.o)
 .data          0x00188c04        0x0 ../../fftw-3.3.4/.libs//libfftw3f.a(n1fv_11.o)
 .data          0x00188c04        0x0 ../../fftw-3.3.4/.libs//libfftw3f.a(n1fv_12.o)
 .data          0x00188c04        0x0 ../../fftw-3.3.4/.libs//libfftw3f.a(n1fv_128.o)
 .data          0x00188c04        0x0 ../../fftw-3.3.4/.libs//libfftw3f.a(n1fv_13.o)
 .data          0x00188c04        0x0 ../../fftw-3.3.4/.libs//libfftw3f.a(n1fv_14.o)
 .data          0x00188c04        0x0 ../../fftw-3.3.4/.libs//libfftw3f.a(n1fv_15.o)
 .data          0x00188c04        0x0 ../../fftw-3.3.4/.libs//libfftw3f.a(n1fv_16.o)
 .data          0x00188c04        0x0 ../../fftw-3.3.4/.libs//libfftw3f.a(n1fv_2.o)
 .data          0x00188c04        0x0 ../../fftw-3.3.4/.libs//libfftw3f.a(n1fv_20.o)
 .data          0x00188c04        0x0 ../../fftw-3.3.4/.libs//libfftw3f.a(n1fv_25.o)
 .data          0x00188c04        0x0 ../../fftw-3.3.4/.libs//libfftw3f.a(n1fv_3.o)
 .data          0x00188c04        0x0 ../../fftw-3.3.4/.libs//libfftw3f.a(n1fv_32.o)
 .data          0x00188c04        0x0 ../../fftw-3.3.4/.libs//libfftw3f.a(n1fv_4.o)
 .data          0x00188c04        0x0 ../../fftw-3.3.4/.libs//libfftw3f.a(n1fv_5.o)
 .data          0x00188c04        0x0 ../../fftw-3.3.4/.libs//libfftw3f.a(n1fv_6.o)
 .data          0x00188c04        0x0 ../../fftw-3.3.4/.libs//libfftw3f.a(n1fv_64.o)
 .data          0x00188c04        0x0 ../../fftw-3.3.4/.libs//libfftw3f.a(n1fv_7.o)
 .data          0x00188c04        0x0 ../../fftw-3.3.4/.libs//libfftw3f.a(n1fv_8.o)
 .data          0x00188c04        0x0 ../../fftw-3.3.4/.libs//libfftw3f.a(n1fv_9.o)
 .data          0x00188c04        0x0 ../../fftw-3.3.4/.libs//libfftw3f.a(n2bv_10.o)
 .data          0x00188c04        0x0 ../../fftw-3.3.4/.libs//libfftw3f.a(n2bv_12.o)
 .data          0x00188c04        0x0 ../../fftw-3.3.4/.libs//libfftw3f.a(n2bv_14.o)
 .data          0x00188c04        0x0 ../../fftw-3.3.4/.libs//libfftw3f.a(n2bv_16.o)
 .data          0x00188c04        0x0 ../../fftw-3.3.4/.libs//libfftw3f.a(n2bv_2.o)
 .data          0x00188c04        0x0 ../../fftw-3.3.4/.libs//libfftw3f.a(n2bv_20.o)
 .data          0x00188c04        0x0 ../../fftw-3.3.4/.libs//libfftw3f.a(n2bv_32.o)
 .data          0x00188c04        0x0 ../../fftw-3.3.4/.libs//libfftw3f.a(n2bv_4.o)
 .data          0x00188c04        0x0 ../../fftw-3.3.4/.libs//libfftw3f.a(n2bv_6.o)
 .data          0x00188c04        0x0 ../../fftw-3.3.4/.libs//libfftw3f.a(n2bv_64.o)
 .data          0x00188c04        0x0 ../../fftw-3.3.4/.libs//libfftw3f.a(n2bv_8.o)
 .data          0x00188c04        0x0 ../../fftw-3.3.4/.libs//libfftw3f.a(n2fv_10.o)
 .data          0x00188c04        0x0 ../../fftw-3.3.4/.libs//libfftw3f.a(n2fv_12.o)
 .data          0x00188c04        0x0 ../../fftw-3.3.4/.libs//libfftw3f.a(n2fv_14.o)
 .data          0x00188c04        0x0 ../../fftw-3.3.4/.libs//libfftw3f.a(n2fv_16.o)
 .data          0x00188c04        0x0 ../../fftw-3.3.4/.libs//libfftw3f.a(n2fv_2.o)
 .data          0x00188c04        0x0 ../../fftw-3.3.4/.libs//libfftw3f.a(n2fv_20.o)
 .data          0x00188c04        0x0 ../../fftw-3.3.4/.libs//libfftw3f.a(n2fv_32.o)
 .data          0x00188c04        0x0 ../../fftw-3.3.4/.libs//libfftw3f.a(n2fv_4.o)
 .data          0x00188c04        0x0 ../../fftw-3.3.4/.libs//libfftw3f.a(n2fv_6.o)
 .data          0x00188c04        0x0 ../../fftw-3.3.4/.libs//libfftw3f.a(n2fv_64.o)
 .data          0x00188c04        0x0 ../../fftw-3.3.4/.libs//libfftw3f.a(n2fv_8.o)
 .data          0x00188c04        0x0 ../../fftw-3.3.4/.libs//libfftw3f.a(n2sv_16.o)
 .data          0x00188c04        0x0 ../../fftw-3.3.4/.libs//libfftw3f.a(n2sv_32.o)
 .data          0x00188c04        0x0 ../../fftw-3.3.4/.libs//libfftw3f.a(n2sv_4.o)
 .data          0x00188c04        0x0 ../../fftw-3.3.4/.libs//libfftw3f.a(n2sv_64.o)
 .data          0x00188c04        0x0 ../../fftw-3.3.4/.libs//libfftw3f.a(n2sv_8.o)
 .data          0x00188c04        0x0 ../../fftw-3.3.4/.libs//libfftw3f.a(q1bv_2.o)
 .data          0x00188c04        0x0 ../../fftw-3.3.4/.libs//libfftw3f.a(q1bv_4.o)
 .data          0x00188c04        0x0 ../../fftw-3.3.4/.libs//libfftw3f.a(q1bv_5.o)
 .data          0x00188c04        0x0 ../../fftw-3.3.4/.libs//libfftw3f.a(q1bv_8.o)
 .data          0x00188c04        0x0 ../../fftw-3.3.4/.libs//libfftw3f.a(q1fv_2.o)
 .data          0x00188c04        0x0 ../../fftw-3.3.4/.libs//libfftw3f.a(q1fv_4.o)
 .data          0x00188c04        0x0 ../../fftw-3.3.4/.libs//libfftw3f.a(q1fv_5.o)
 .data          0x00188c04        0x0 ../../fftw-3.3.4/.libs//libfftw3f.a(q1fv_8.o)
 .data          0x00188c04        0x0 ../../fftw-3.3.4/.libs//libfftw3f.a(t1buv_10.o)
 .data          0x00188c04        0x0 ../../fftw-3.3.4/.libs//libfftw3f.a(t1buv_2.o)
 .data          0x00188c04        0x0 ../../fftw-3.3.4/.libs//libfftw3f.a(t1buv_3.o)
 .data          0x00188c04        0x0 ../../fftw-3.3.4/.libs//libfftw3f.a(t1buv_4.o)
 .data          0x00188c04        0x0 ../../fftw-3.3.4/.libs//libfftw3f.a(t1buv_5.o)
 .data          0x00188c04        0x0 ../../fftw-3.3.4/.libs//libfftw3f.a(t1buv_6.o)
 .data          0x00188c04        0x0 ../../fftw-3.3.4/.libs//libfftw3f.a(t1buv_7.o)
 .data          0x00188c04        0x0 ../../fftw-3.3.4/.libs//libfftw3f.a(t1buv_8.o)
 .data          0x00188c04        0x0 ../../fftw-3.3.4/.libs//libfftw3f.a(t1buv_9.o)
 .data          0x00188c04        0x0 ../../fftw-3.3.4/.libs//libfftw3f.a(t1bv_10.o)
 .data          0x00188c04        0x0 ../../fftw-3.3.4/.libs//libfftw3f.a(t1bv_12.o)
 .data          0x00188c04        0x0 ../../fftw-3.3.4/.libs//libfftw3f.a(t1bv_15.o)
 .data          0x00188c04        0x0 ../../fftw-3.3.4/.libs//libfftw3f.a(t1bv_16.o)
 .data          0x00188c04        0x0 ../../fftw-3.3.4/.libs//libfftw3f.a(t1bv_2.o)
 .data          0x00188c04        0x0 ../../fftw-3.3.4/.libs//libfftw3f.a(t1bv_20.o)
 .data          0x00188c04        0x0 ../../fftw-3.3.4/.libs//libfftw3f.a(t1bv_25.o)
 .data          0x00188c04        0x0 ../../fftw-3.3.4/.libs//libfftw3f.a(t1bv_3.o)
 .data          0x00188c04        0x0 ../../fftw-3.3.4/.libs//libfftw3f.a(t1bv_32.o)
 .data          0x00188c04        0x0 ../../fftw-3.3.4/.libs//libfftw3f.a(t1bv_4.o)
 .data          0x00188c04        0x0 ../../fftw-3.3.4/.libs//libfftw3f.a(t1bv_5.o)
 .data          0x00188c04        0x0 ../../fftw-3.3.4/.libs//libfftw3f.a(t1bv_6.o)
 .data          0x00188c04        0x0 ../../fftw-3.3.4/.libs//libfftw3f.a(t1bv_64.o)
 .data          0x00188c04        0x0 ../../fftw-3.3.4/.libs//libfftw3f.a(t1bv_7.o)
 .data          0x00188c04        0x0 ../../fftw-3.3.4/.libs//libfftw3f.a(t1bv_8.o)
 .data          0x00188c04        0x0 ../../fftw-3.3.4/.libs//libfftw3f.a(t1bv_9.o)
 .data          0x00188c04        0x0 ../../fftw-3.3.4/.libs//libfftw3f.a(t1fuv_10.o)
 .data          0x00188c04        0x0 ../../fftw-3.3.4/.libs//libfftw3f.a(t1fuv_2.o)
 .data          0x00188c04        0x0 ../../fftw-3.3.4/.libs//libfftw3f.a(t1fuv_3.o)
 .data          0x00188c04        0x0 ../../fftw-3.3.4/.libs//libfftw3f.a(t1fuv_4.o)
 .data          0x00188c04        0x0 ../../fftw-3.3.4/.libs//libfftw3f.a(t1fuv_5.o)
 .data          0x00188c04        0x0 ../../fftw-3.3.4/.libs//libfftw3f.a(t1fuv_6.o)
 .data          0x00188c04        0x0 ../../fftw-3.3.4/.libs//libfftw3f.a(t1fuv_7.o)
 .data          0x00188c04        0x0 ../../fftw-3.3.4/.libs//libfftw3f.a(t1fuv_8.o)
 .data          0x00188c04        0x0 ../../fftw-3.3.4/.libs//libfftw3f.a(t1fuv_9.o)
 .data          0x00188c04        0x0 ../../fftw-3.3.4/.libs//libfftw3f.a(t1fv_10.o)
 .data          0x00188c04        0x0 ../../fftw-3.3.4/.libs//libfftw3f.a(t1fv_12.o)
 .data          0x00188c04        0x0 ../../fftw-3.3.4/.libs//libfftw3f.a(t1fv_15.o)
 .data          0x00188c04        0x0 ../../fftw-3.3.4/.libs//libfftw3f.a(t1fv_16.o)
 .data          0x00188c04        0x0 ../../fftw-3.3.4/.libs//libfftw3f.a(t1fv_2.o)
 .data          0x00188c04        0x0 ../../fftw-3.3.4/.libs//libfftw3f.a(t1fv_20.o)
 .data          0x00188c04        0x0 ../../fftw-3.3.4/.libs//libfftw3f.a(t1fv_25.o)
 .data          0x00188c04        0x0 ../../fftw-3.3.4/.libs//libfftw3f.a(t1fv_3.o)
 .data          0x00188c04        0x0 ../../fftw-3.3.4/.libs//libfftw3f.a(t1fv_32.o)
 .data          0x00188c04        0x0 ../../fftw-3.3.4/.libs//libfftw3f.a(t1fv_4.o)
 .data          0x00188c04        0x0 ../../fftw-3.3.4/.libs//libfftw3f.a(t1fv_5.o)
 .data          0x00188c04        0x0 ../../fftw-3.3.4/.libs//libfftw3f.a(t1fv_6.o)
 .data          0x00188c04        0x0 ../../fftw-3.3.4/.libs//libfftw3f.a(t1fv_64.o)
 .data          0x00188c04        0x0 ../../fftw-3.3.4/.libs//libfftw3f.a(t1fv_7.o)
 .data          0x00188c04        0x0 ../../fftw-3.3.4/.libs//libfftw3f.a(t1fv_8.o)
 .data          0x00188c04        0x0 ../../fftw-3.3.4/.libs//libfftw3f.a(t1fv_9.o)
 .data          0x00188c04        0x0 ../../fftw-3.3.4/.libs//libfftw3f.a(t1sv_16.o)
 .data          0x00188c04        0x0 ../../fftw-3.3.4/.libs//libfftw3f.a(t1sv_2.o)
 .data          0x00188c04        0x0 ../../fftw-3.3.4/.libs//libfftw3f.a(t1sv_32.o)
 .data          0x00188c04        0x0 ../../fftw-3.3.4/.libs//libfftw3f.a(t1sv_4.o)
 .data          0x00188c04        0x0 ../../fftw-3.3.4/.libs//libfftw3f.a(t1sv_8.o)
 .data          0x00188c04        0x0 ../../fftw-3.3.4/.libs//libfftw3f.a(t2bv_10.o)
 .data          0x00188c04        0x0 ../../fftw-3.3.4/.libs//libfftw3f.a(t2bv_16.o)
 .data          0x00188c04        0x0 ../../fftw-3.3.4/.libs//libfftw3f.a(t2bv_2.o)
 .data          0x00188c04        0x0 ../../fftw-3.3.4/.libs//libfftw3f.a(t2bv_20.o)
 .data          0x00188c04        0x0 ../../fftw-3.3.4/.libs//libfftw3f.a(t2bv_25.o)
 .data          0x00188c04        0x0 ../../fftw-3.3.4/.libs//libfftw3f.a(t2bv_32.o)
 .data          0x00188c04        0x0 ../../fftw-3.3.4/.libs//libfftw3f.a(t2bv_4.o)
 .data          0x00188c04        0x0 ../../fftw-3.3.4/.libs//libfftw3f.a(t2bv_5.o)
 .data          0x00188c04        0x0 ../../fftw-3.3.4/.libs//libfftw3f.a(t2bv_64.o)
 .data          0x00188c04        0x0 ../../fftw-3.3.4/.libs//libfftw3f.a(t2bv_8.o)
 .data          0x00188c04        0x0 ../../fftw-3.3.4/.libs//libfftw3f.a(t2fv_10.o)
 .data          0x00188c04        0x0 ../../fftw-3.3.4/.libs//libfftw3f.a(t2fv_16.o)
 .data          0x00188c04        0x0 ../../fftw-3.3.4/.libs//libfftw3f.a(t2fv_2.o)
 .data          0x00188c04        0x0 ../../fftw-3.3.4/.libs//libfftw3f.a(t2fv_20.o)
 .data          0x00188c04        0x0 ../../fftw-3.3.4/.libs//libfftw3f.a(t2fv_25.o)
 .data          0x00188c04        0x0 ../../fftw-3.3.4/.libs//libfftw3f.a(t2fv_32.o)
 .data          0x00188c04        0x0 ../../fftw-3.3.4/.libs//libfftw3f.a(t2fv_4.o)
 .data          0x00188c04        0x0 ../../fftw-3.3.4/.libs//libfftw3f.a(t2fv_5.o)
 .data          0x00188c04        0x0 ../../fftw-3.3.4/.libs//libfftw3f.a(t2fv_64.o)
 .data          0x00188c04        0x0 ../../fftw-3.3.4/.libs//libfftw3f.a(t2fv_8.o)
 .data          0x00188c04        0x0 ../../fftw-3.3.4/.libs//libfftw3f.a(t2sv_16.o)
 .data          0x00188c04        0x0 ../../fftw-3.3.4/.libs//libfftw3f.a(t2sv_32.o)
 .data          0x00188c04        0x0 ../../fftw-3.3.4/.libs//libfftw3f.a(t2sv_4.o)
 .data          0x00188c04        0x0 ../../fftw-3.3.4/.libs//libfftw3f.a(t2sv_8.o)
 .data          0x00188c04        0x0 ../../fftw-3.3.4/.libs//libfftw3f.a(t3bv_10.o)
 .data          0x00188c04        0x0 ../../fftw-3.3.4/.libs//libfftw3f.a(t3bv_16.o)
 .data          0x00188c04        0x0 ../../fftw-3.3.4/.libs//libfftw3f.a(t3bv_20.o)
 .data          0x00188c04        0x0 ../../fftw-3.3.4/.libs//libfftw3f.a(t3bv_25.o)
 .data          0x00188c04        0x0 ../../fftw-3.3.4/.libs//libfftw3f.a(t3bv_32.o)
 .data          0x00188c04        0x0 ../../fftw-3.3.4/.libs//libfftw3f.a(t3bv_4.o)
 .data          0x00188c04        0x0 ../../fftw-3.3.4/.libs//libfftw3f.a(t3bv_5.o)
 .data          0x00188c04        0x0 ../../fftw-3.3.4/.libs//libfftw3f.a(t3bv_8.o)
 .data          0x00188c04        0x0 ../../fftw-3.3.4/.libs//libfftw3f.a(t3fv_10.o)
 .data          0x00188c04        0x0 ../../fftw-3.3.4/.libs//libfftw3f.a(t3fv_16.o)
 .data          0x00188c04        0x0 ../../fftw-3.3.4/.libs//libfftw3f.a(t3fv_20.o)
 .data          0x00188c04        0x0 ../../fftw-3.3.4/.libs//libfftw3f.a(t3fv_25.o)
 .data          0x00188c04        0x0 ../../fftw-3.3.4/.libs//libfftw3f.a(t3fv_32.o)
 .data          0x00188c04        0x0 ../../fftw-3.3.4/.libs//libfftw3f.a(t3fv_4.o)
 .data          0x00188c04        0x0 ../../fftw-3.3.4/.libs//libfftw3f.a(t3fv_5.o)
 .data          0x00188c04        0x0 ../../fftw-3.3.4/.libs//libfftw3f.a(t3fv_8.o)
 .data          0x00188c04        0x0 ../../fftw-3.3.4/.libs//libfftw3f.a(lt21-codlist.o)
 .data          0x00188c04        0x0 ../../fftw-3.3.4/.libs//libfftw3f.a(hc2cbdftv_10.o)
 .data          0x00188c04        0x0 ../../fftw-3.3.4/.libs//libfftw3f.a(hc2cbdftv_12.o)
 .data          0x00188c04        0x0 ../../fftw-3.3.4/.libs//libfftw3f.a(hc2cbdftv_16.o)
 .data          0x00188c04        0x0 ../../fftw-3.3.4/.libs//libfftw3f.a(hc2cbdftv_2.o)
 .data          0x00188c04        0x0 ../../fftw-3.3.4/.libs//libfftw3f.a(hc2cbdftv_20.o)
 .data          0x00188c04        0x0 ../../fftw-3.3.4/.libs//libfftw3f.a(hc2cbdftv_32.o)
 .data          0x00188c04        0x0 ../../fftw-3.3.4/.libs//libfftw3f.a(hc2cbdftv_4.o)
 .data          0x00188c04        0x0 ../../fftw-3.3.4/.libs//libfftw3f.a(hc2cbdftv_6.o)
 .data          0x00188c04        0x0 ../../fftw-3.3.4/.libs//libfftw3f.a(hc2cbdftv_8.o)
 .data          0x00188c04        0x0 ../../fftw-3.3.4/.libs//libfftw3f.a(hc2cfdftv_10.o)
 .data          0x00188c04        0x0 ../../fftw-3.3.4/.libs//libfftw3f.a(hc2cfdftv_12.o)
 .data          0x00188c04        0x0 ../../fftw-3.3.4/.libs//libfftw3f.a(hc2cfdftv_16.o)
 .data          0x00188c04        0x0 ../../fftw-3.3.4/.libs//libfftw3f.a(hc2cfdftv_2.o)
 .data          0x00188c04        0x0 ../../fftw-3.3.4/.libs//libfftw3f.a(hc2cfdftv_20.o)
 .data          0x00188c04        0x0 ../../fftw-3.3.4/.libs//libfftw3f.a(hc2cfdftv_32.o)
 .data          0x00188c04        0x0 ../../fftw-3.3.4/.libs//libfftw3f.a(hc2cfdftv_4.o)
 .data          0x00188c04        0x0 ../../fftw-3.3.4/.libs//libfftw3f.a(hc2cfdftv_6.o)
 .data          0x00188c04        0x0 ../../fftw-3.3.4/.libs//libfftw3f.a(hc2cfdftv_8.o)
 .data          0x00188c04        0x0 ../../fftw-3.3.4/.libs//libfftw3f.a(awake.o)
 .data          0x00188c04        0x0 ../../fftw-3.3.4/.libs//libfftw3f.a(buffered.o)
 .data          0x00188c04        0x0 ../../fftw-3.3.4/.libs//libfftw3f.a(cpy1d.o)
 .data          0x00188c04        0x0 ../../fftw-3.3.4/.libs//libfftw3f.a(cpy2d-pair.o)
 .data          0x00188c04        0x0 ../../fftw-3.3.4/.libs//libfftw3f.a(cpy2d.o)
 .data          0x00188c04        0x0 ../../fftw-3.3.4/.libs//libfftw3f.a(iabs.o)
 .data          0x00188c04        0x0 ../../fftw-3.3.4/.libs//libfftw3f.a(minmax.o)
 .data          0x00188c04        0x0 ../../fftw-3.3.4/.libs//libfftw3f.a(pickdim.o)
 .data          0x00188c04        0x0 ../../fftw-3.3.4/.libs//libfftw3f.a(rader.o)
 .data          0x00188c04        0x0 ../../fftw-3.3.4/.libs//libfftw3f.a(solvtab.o)
 .data          0x00188c04        0x0 ../../fftw-3.3.4/.libs//libfftw3f.a(stride.o)
 .data          0x00188c04        0x0 ../../fftw-3.3.4/.libs//libfftw3f.a(tensor2.o)
 .data          0x00188c04        0x0 ../../fftw-3.3.4/.libs//libfftw3f.a(tensor4.o)
 .data          0x00188c04        0x0 ../../fftw-3.3.4/.libs//libfftw3f.a(tile2d.o)
 .data          0x00188c04        0x0 ../../fftw-3.3.4/.libs//libfftw3f.a(transpose.o)
 .data          0x00188c04        0x0 ../../fftw-3.3.4/.libs//libfftw3f.a(trig.o)
 .data          0x00188c04        0x0 ../../fftw-3.3.4/.libs//libfftw3f.a(twiddle.o)
 .data          0x00188c04        0x0 ../../fftw-3.3.4/.libs//libfftw3f.a(bluestein.o)
 .data          0x00188c04        0x0 ../../fftw-3.3.4/.libs//libfftw3f.a(lt1-buffered.o)
 .data          0x00188c04        0x0 ../../fftw-3.3.4/.libs//libfftw3f.a(lt2-ct.o)
 .data          0x00188c04        0x0 ../../fftw-3.3.4/.libs//libfftw3f.a(kdft-difsq.o)
 .data          0x00188c04        0x0 ../../fftw-3.3.4/.libs//libfftw3f.a(kdft-dit.o)
 .data          0x00188c04        0x0 ../../fftw-3.3.4/.libs//libfftw3f.a(kdft.o)
 .data          0x00188c04        0x0 ../../fftw-3.3.4/.libs//libfftw3f.a(n.o)
 .data          0x00188c04        0x0 ../../fftw-3.3.4/.libs//libfftw3f.a(t.o)
 .data          0x00188c04        0x0 ../../fftw-3.3.4/.libs//libfftw3f.a(lt6-buffered.o)
 .data          0x00188c04        0x0 ../../fftw-3.3.4/.libs//libfftw3f.a(buffered2.o)
 .data          0x00188c04        0x0 ../../fftw-3.3.4/.libs//libfftw3f.a(khc2c.o)
 .data          0x00188c04        0x0 ../../fftw-3.3.4/.libs//libfftw3f.a(khc2hc.o)
 .data          0x00188c04        0x0 ../../fftw-3.3.4/.libs//libfftw3f.a(kr2c.o)
 .data          0x00188c04        0x0 ../../fftw-3.3.4/.libs//libfftw3f.a(kr2r.o)
 .data          0x00188c04        0x0 ../../fftw-3.3.4/.libs//libfftw3f.a(hc2c.o)
 .data          0x00188c04        0x0 ../../fftw-3.3.4/.libs//libfftw3f.a(hfb.o)
 .data          0x00188c04        0x0 ../../fftw-3.3.4/.libs//libfftw3f.a(r2c.o)
 .data          0x00188c04        0x0 ../../fftw-3.3.4/.libs//libfftw3f.a(r2r.o)
 .data          0x00188c04        0x0 ../../fftw-3.3.4/.libs//libfftw3f.a(genus.o)
 .data          0x00188c04        0x0 ../../fftw-3.3.4/.libs//libfftw3f.a(lt22-genus.o)
 .data          0x00188c04        0x0 ../../fftw-3.3.4/.libs//libfftw3f.a(dftw-direct.o)
 .data          0x00188c04        0x0 ../../fftw-3.3.4/.libs//libfftw3f.a(dftw-directsq.o)
 .data          0x00188c04        0x0 ../../fftw-3.3.4/.libs//libfftw3f.a(direct.o)
 .data          0x00188c04        0x0 ../../fftw-3.3.4/.libs//libfftw3f.a(ct-hc2c-direct.o)
 .data          0x00188c04        0x0 ../../fftw-3.3.4/.libs//libfftw3f.a(ct-hc2c.o)
 .data          0x00188c04        0x0 ../../fftw-3.3.4/.libs//libfftw3f.a(direct-r2c.o)
 .data          0x00188c04        0x0 ../../fftw-3.3.4/.libs//libfftw3f.a(direct-r2r.o)
 .data          0x00188c04        0x0 ../../fftw-3.3.4/.libs//libfftw3f.a(direct2.o)
 .data          0x00188c04        0x0 ../../fftw-3.3.4/.libs//libfftw3f.a(hc2hc-direct.o)
 .data          0x00188c04        0x0 ../../fftw-3.3.4/.libs//libfftw3f.a(ct.o)
 .data          0x00188c04        0x0 /opt/ti-sdk-am335x-evm-07.00.00.00/linux-devkit/sysroots/i686-arago-linux/usr/bin/../lib/gcc/arm-linux-gnueabihf/4.7.3/libgcc.a(_udivsi3.o)
 .data          0x00188c04        0x0 /opt/ti-sdk-am335x-evm-07.00.00.00/linux-devkit/sysroots/i686-arago-linux/usr/bin/../lib/gcc/arm-linux-gnueabihf/4.7.3/libgcc.a(_divsi3.o)
 .data          0x00188c04        0x0 /opt/ti-sdk-am335x-evm-07.00.00.00/linux-devkit/sysroots/i686-arago-linux/usr/bin/../lib/gcc/arm-linux-gnueabihf/4.7.3/libgcc.a(_arm_addsubdf3.o)
 .data          0x00188c04        0x0 /opt/ti-sdk-am335x-evm-07.00.00.00/linux-devkit/sysroots/i686-arago-linux/usr/bin/../lib/gcc/arm-linux-gnueabihf/4.7.3/libgcc.a(_dvmd_lnx.o)
 .data          0x00188c04        0x0 /opt/ti-sdk-am335x-evm-07.00.00.00/linux-devkit/sysroots/i686-arago-linux/usr/bin/../arm-linux-gnueabihf/libc/usr/lib/arm-linux-gnueabihf/4.7.3/./libc_nonshared.a(elf-init.oS)
 .data          0x00188c04        0x0 /opt/ti-sdk-am335x-evm-07.00.00.00/linux-devkit/sysroots/i686-arago-linux/usr/bin/../lib/gcc/arm-linux-gnueabihf/4.7.3/crtend.o
 .data          0x00188c04        0x0 /opt/ti-sdk-am335x-evm-07.00.00.00/linux-devkit/sysroots/i686-arago-linux/usr/bin/../arm-linux-gnueabihf/libc/usr/lib/arm-linux-gnueabihf/4.7.3/crtn.o

.tm_clone_table
                0x00188c04        0x0
 .tm_clone_table
                0x00188c04        0x0 /opt/ti-sdk-am335x-evm-07.00.00.00/linux-devkit/sysroots/i686-arago-linux/usr/bin/../lib/gcc/arm-linux-gnueabihf/4.7.3/crtbegin.o
 .tm_clone_table
                0x00188c04        0x0 /opt/ti-sdk-am335x-evm-07.00.00.00/linux-devkit/sysroots/i686-arago-linux/usr/bin/../lib/gcc/arm-linux-gnueabihf/4.7.3/crtend.o

.data1
 *(.data1)
                0x00188c04                _edata = .
                0x00188c04                PROVIDE (edata, .)
                0x00188c04                . = .
                0x00188c04                __bss_start = .
                0x00188c04                __bss_start__ = .

.bss            0x00188c08      0x3c4
 *(.dynbss)
 .dynbss        0x00188c08       0x1c /opt/ti-sdk-am335x-evm-07.00.00.00/linux-devkit/sysroots/i686-arago-linux/usr/bin/../arm-linux-gnueabihf/libc/usr/lib/arm-linux-gnueabihf/4.7.3/crt1.o
                0x00188c08                stderr@@GLIBC_2.4
                0x00188c10                stdin@@GLIBC_2.4
                0x00188c14                stdout@@GLIBC_2.4
                0x00188c18                opterr@@GLIBC_2.4
                0x00188c20                optarg@@GLIBC_2.4
 *(.bss .bss.* .gnu.linkonce.b.*)
 .bss           0x00188c24        0x0 /opt/ti-sdk-am335x-evm-07.00.00.00/linux-devkit/sysroots/i686-arago-linux/usr/bin/../arm-linux-gnueabihf/libc/usr/lib/arm-linux-gnueabihf/4.7.3/crt1.o
 .bss           0x00188c24        0x0 /opt/ti-sdk-am335x-evm-07.00.00.00/linux-devkit/sysroots/i686-arago-linux/usr/bin/../arm-linux-gnueabihf/libc/usr/lib/arm-linux-gnueabihf/4.7.3/crti.o
 .bss           0x00188c24        0x1 /opt/ti-sdk-am335x-evm-07.00.00.00/linux-devkit/sysroots/i686-arago-linux/usr/bin/../lib/gcc/arm-linux-gnueabihf/4.7.3/crtbegin.o
 *fill*         0x00188c25        0x3 
 .bss           0x00188c28        0x4 release/main.o
 .bss           0x00188c2c        0x0 release/mongoose.o
 .bss           0x00188c2c        0x0 release/dt78xx_aio.o
 .bss           0x00188c2c       0x40 release/dt78xx_misc.o
 .bss           0x00188c6c        0x0 ../../fftw-3.3.4/.libs//libfftw3f.a(apiplan.o)
 .bss           0x00188c6c        0x0 ../../fftw-3.3.4/.libs//libfftw3f.a(execute.o)
 .bss           0x00188c6c        0x0 ../../fftw-3.3.4/.libs//libfftw3f.a(malloc.o)
 .bss           0x00188c6c        0x0 ../../fftw-3.3.4/.libs//libfftw3f.a(mapflags.o)
 .bss           0x00188c6c        0x0 ../../fftw-3.3.4/.libs//libfftw3f.a(plan-dft-r2c-1d.o)
 .bss           0x00188c6c        0x0 ../../fftw-3.3.4/.libs//libfftw3f.a(plan-dft-r2c.o)
 .bss           0x00188c6c        0x0 ../../fftw-3.3.4/.libs//libfftw3f.a(plan-many-dft-r2c.o)
 .bss           0x00188c6c        0x0 ../../fftw-3.3.4/.libs//libfftw3f.a(rdft2-pad.o)
 .bss           0x00188c6c        0x4 ../../fftw-3.3.4/.libs//libfftw3f.a(the-planner.o)
 .bss           0x00188c70        0x0 ../../fftw-3.3.4/.libs//libfftw3f.a(alloc.o)
 .bss           0x00188c70        0x0 ../../fftw-3.3.4/.libs//libfftw3f.a(assert.o)
 .bss           0x00188c70        0x0 ../../fftw-3.3.4/.libs//libfftw3f.a(extract-reim.o)
 .bss           0x00188c70        0x0 ../../fftw-3.3.4/.libs//libfftw3f.a(kalloc.o)
 .bss           0x00188c70        0x0 ../../fftw-3.3.4/.libs//libfftw3f.a(plan.o)
 .bss           0x00188c70        0x0 ../../fftw-3.3.4/.libs//libfftw3f.a(planner.o)
 .bss           0x00188c70        0x0 ../../fftw-3.3.4/.libs//libfftw3f.a(primes.o)
 .bss           0x00188c70        0x0 ../../fftw-3.3.4/.libs//libfftw3f.a(problem.o)
 .bss           0x00188c70        0x0 ../../fftw-3.3.4/.libs//libfftw3f.a(solver.o)
 .bss           0x00188c70        0x0 ../../fftw-3.3.4/.libs//libfftw3f.a(tensor1.o)
 .bss           0x00188c70        0x0 ../../fftw-3.3.4/.libs//libfftw3f.a(timer.o)
 .bss           0x00188c70        0x0 ../../fftw-3.3.4/.libs//libfftw3f.a(problem2.o)
 .bss           0x00188c70        0x0 ../../fftw-3.3.4/.libs//libfftw3f.a(configure.o)
 .bss           0x00188c70        0x0 ../../fftw-3.3.4/.libs//libfftw3f.a(mktensor-rowmajor.o)
 .bss           0x00188c70        0x0 ../../fftw-3.3.4/.libs//libfftw3f.a(align.o)
 .bss           0x00188c70        0x0 ../../fftw-3.3.4/.libs//libfftw3f.a(hash.o)
 .bss           0x00188c70        0x0 ../../fftw-3.3.4/.libs//libfftw3f.a(md5-1.o)
 .bss           0x00188c70        0x0 ../../fftw-3.3.4/.libs//libfftw3f.a(md5.o)
 .bss           0x00188c70        0x0 ../../fftw-3.3.4/.libs//libfftw3f.a(ops.o)
 .bss           0x00188c70        0x0 ../../fftw-3.3.4/.libs//libfftw3f.a(tensor.o)
 .bss           0x00188c70        0x0 ../../fftw-3.3.4/.libs//libfftw3f.a(tensor5.o)
 .bss           0x00188c70        0x0 ../../fftw-3.3.4/.libs//libfftw3f.a(tensor7.o)
 .bss           0x00188c70        0x0 ../../fftw-3.3.4/.libs//libfftw3f.a(tensor8.o)
 .bss           0x00188c70        0x0 ../../fftw-3.3.4/.libs//libfftw3f.a(conf.o)
 .bss           0x00188c70        0x0 ../../fftw-3.3.4/.libs//libfftw3f.a(dftw-generic.o)
 .bss           0x00188c70        0x0 ../../fftw-3.3.4/.libs//libfftw3f.a(dftw-genericbuf.o)
 .bss           0x00188c70        0x0 ../../fftw-3.3.4/.libs//libfftw3f.a(generic.o)
 .bss           0x00188c70        0x0 ../../fftw-3.3.4/.libs//libfftw3f.a(indirect-transpose.o)
 .bss           0x00188c70        0x0 ../../fftw-3.3.4/.libs//libfftw3f.a(indirect.o)
 .bss           0x00188c70        0x0 ../../fftw-3.3.4/.libs//libfftw3f.a(nop.o)
 .bss           0x00188c70        0x0 ../../fftw-3.3.4/.libs//libfftw3f.a(lt3-plan.o)
 .bss           0x00188c70        0x0 ../../fftw-3.3.4/.libs//libfftw3f.a(lt4-problem.o)
 .bss           0x00188c70        0x4 ../../fftw-3.3.4/.libs//libfftw3f.a(lt5-rader.o)
 .bss           0x00188c74        0x0 ../../fftw-3.3.4/.libs//libfftw3f.a(rank-geq2.o)
 .bss           0x00188c74        0x0 ../../fftw-3.3.4/.libs//libfftw3f.a(solve.o)
 .bss           0x00188c74        0x0 ../../fftw-3.3.4/.libs//libfftw3f.a(vrank-geq1.o)
 .bss           0x00188c74        0x0 ../../fftw-3.3.4/.libs//libfftw3f.a(zero.o)
 .bss           0x00188c74        0x0 ../../fftw-3.3.4/.libs//libfftw3f.a(codlist.o)
 .bss           0x00188c74        0x0 ../../fftw-3.3.4/.libs//libfftw3f.a(n1_10.o)
 .bss           0x00188c74        0x0 ../../fftw-3.3.4/.libs//libfftw3f.a(n1_11.o)
 .bss           0x00188c74        0x0 ../../fftw-3.3.4/.libs//libfftw3f.a(n1_12.o)
 .bss           0x00188c74        0x0 ../../fftw-3.3.4/.libs//libfftw3f.a(n1_13.o)
 .bss           0x00188c74        0x0 ../../fftw-3.3.4/.libs//libfftw3f.a(n1_14.o)
 .bss           0x00188c74        0x0 ../../fftw-3.3.4/.libs//libfftw3f.a(n1_15.o)
 .bss           0x00188c74        0x0 ../../fftw-3.3.4/.libs//libfftw3f.a(n1_16.o)
 .bss           0x00188c74        0x0 ../../fftw-3.3.4/.libs//libfftw3f.a(n1_2.o)
 .bss           0x00188c74        0x0 ../../fftw-3.3.4/.libs//libfftw3f.a(n1_20.o)
 .bss           0x00188c74        0x0 ../../fftw-3.3.4/.libs//libfftw3f.a(n1_25.o)
 .bss           0x00188c74        0x0 ../../fftw-3.3.4/.libs//libfftw3f.a(n1_3.o)
 .bss           0x00188c74        0x0 ../../fftw-3.3.4/.libs//libfftw3f.a(n1_32.o)
 .bss           0x00188c74        0x0 ../../fftw-3.3.4/.libs//libfftw3f.a(n1_4.o)
 .bss           0x00188c74        0x0 ../../fftw-3.3.4/.libs//libfftw3f.a(n1_5.o)
 .bss           0x00188c74        0x0 ../../fftw-3.3.4/.libs//libfftw3f.a(n1_6.o)
 .bss           0x00188c74        0x0 ../../fftw-3.3.4/.libs//libfftw3f.a(n1_64.o)
 .bss           0x00188c74        0x0 ../../fftw-3.3.4/.libs//libfftw3f.a(n1_7.o)
 .bss           0x00188c74        0x0 ../../fftw-3.3.4/.libs//libfftw3f.a(n1_8.o)
 .bss           0x00188c74        0x0 ../../fftw-3.3.4/.libs//libfftw3f.a(n1_9.o)
 .bss           0x00188c74        0x0 ../../fftw-3.3.4/.libs//libfftw3f.a(q1_2.o)
 .bss           0x00188c74        0x0 ../../fftw-3.3.4/.libs//libfftw3f.a(q1_3.o)
 .bss           0x00188c74        0x0 ../../fftw-3.3.4/.libs//libfftw3f.a(q1_4.o)
 .bss           0x00188c74        0x0 ../../fftw-3.3.4/.libs//libfftw3f.a(q1_5.o)
 .bss           0x00188c74        0x0 ../../fftw-3.3.4/.libs//libfftw3f.a(q1_6.o)
 .bss           0x00188c74        0x0 ../../fftw-3.3.4/.libs//libfftw3f.a(q1_8.o)
 .bss           0x00188c74        0x0 ../../fftw-3.3.4/.libs//libfftw3f.a(t1_10.o)
 .bss           0x00188c74        0x0 ../../fftw-3.3.4/.libs//libfftw3f.a(t1_12.o)
 .bss           0x00188c74        0x0 ../../fftw-3.3.4/.libs//libfftw3f.a(t1_15.o)
 .bss           0x00188c74        0x0 ../../fftw-3.3.4/.libs//libfftw3f.a(t1_16.o)
 .bss           0x00188c74        0x0 ../../fftw-3.3.4/.libs//libfftw3f.a(t1_2.o)
 .bss           0x00188c74        0x0 ../../fftw-3.3.4/.libs//libfftw3f.a(t1_20.o)
 .bss           0x00188c74        0x0 ../../fftw-3.3.4/.libs//libfftw3f.a(t1_25.o)
 .bss           0x00188c74        0x0 ../../fftw-3.3.4/.libs//libfftw3f.a(t1_3.o)
 .bss           0x00188c74        0x0 ../../fftw-3.3.4/.libs//libfftw3f.a(t1_32.o)
 .bss           0x00188c74        0x0 ../../fftw-3.3.4/.libs//libfftw3f.a(t1_4.o)
 .bss           0x00188c74        0x0 ../../fftw-3.3.4/.libs//libfftw3f.a(t1_5.o)
 .bss           0x00188c74        0x0 ../../fftw-3.3.4/.libs//libfftw3f.a(t1_6.o)
 .bss           0x00188c74        0x0 ../../fftw-3.3.4/.libs//libfftw3f.a(t1_64.o)
 .bss           0x00188c74        0x0 ../../fftw-3.3.4/.libs//libfftw3f.a(t1_7.o)
 .bss           0x00188c74        0x0 ../../fftw-3.3.4/.libs//libfftw3f.a(t1_8.o)
 .bss           0x00188c74        0x0 ../../fftw-3.3.4/.libs//libfftw3f.a(t1_9.o)
 .bss           0x00188c74        0x0 ../../fftw-3.3.4/.libs//libfftw3f.a(t2_10.o)
 .bss           0x00188c74        0x0 ../../fftw-3.3.4/.libs//libfftw3f.a(t2_16.o)
 .bss           0x00188c74        0x0 ../../fftw-3.3.4/.libs//libfftw3f.a(t2_20.o)
 .bss           0x00188c74        0x0 ../../fftw-3.3.4/.libs//libfftw3f.a(t2_25.o)
 .bss           0x00188c74        0x0 ../../fftw-3.3.4/.libs//libfftw3f.a(t2_32.o)
 .bss           0x00188c74        0x0 ../../fftw-3.3.4/.libs//libfftw3f.a(t2_4.o)
 .bss           0x00188c74        0x0 ../../fftw-3.3.4/.libs//libfftw3f.a(t2_5.o)
 .bss           0x00188c74        0x0 ../../fftw-3.3.4/.libs//libfftw3f.a(t2_64.o)
 .bss           0x00188c74        0x0 ../../fftw-3.3.4/.libs//libfftw3f.a(t2_8.o)
 .bss           0x00188c74        0x0 ../../fftw-3.3.4/.libs//libfftw3f.a(lt7-conf.o)
 .bss           0x00188c74        0x0 ../../fftw-3.3.4/.libs//libfftw3f.a(dft-r2hc.o)
 .bss           0x00188c74        0x0 ../../fftw-3.3.4/.libs//libfftw3f.a(dht-r2hc.o)
 .bss           0x00188c74        0x4 ../../fftw-3.3.4/.libs//libfftw3f.a(dht-rader.o)
 .bss           0x00188c78        0x0 ../../fftw-3.3.4/.libs//libfftw3f.a(lt8-generic.o)
 .bss           0x00188c78        0x0 ../../fftw-3.3.4/.libs//libfftw3f.a(hc2hc-generic.o)
 .bss           0x00188c78        0x4 ../../fftw-3.3.4/.libs//libfftw3f.a(hc2hc.o)
                0x00188c78                fftwf_mksolver_hc2hc_hook
 .bss           0x00188c7c        0x0 ../../fftw-3.3.4/.libs//libfftw3f.a(lt9-indirect.o)
 .bss           0x00188c7c        0x0 ../../fftw-3.3.4/.libs//libfftw3f.a(lt10-nop.o)
 .bss           0x00188c7c        0x0 ../../fftw-3.3.4/.libs//libfftw3f.a(nop2.o)
 .bss           0x00188c7c        0x0 ../../fftw-3.3.4/.libs//libfftw3f.a(lt11-plan.o)
 .bss           0x00188c7c        0x0 ../../fftw-3.3.4/.libs//libfftw3f.a(plan2.o)
 .bss           0x00188c7c        0x0 ../../fftw-3.3.4/.libs//libfftw3f.a(lt12-problem.o)
 .bss           0x00188c7c        0x0 ../../fftw-3.3.4/.libs//libfftw3f.a(rank-geq2-rdft2.o)
 .bss           0x00188c7c        0x0 ../../fftw-3.3.4/.libs//libfftw3f.a(lt13-rank-geq2.o)
 .bss           0x00188c7c        0x0 ../../fftw-3.3.4/.libs//libfftw3f.a(rank0-rdft2.o)
 .bss           0x00188c7c        0x0 ../../fftw-3.3.4/.libs//libfftw3f.a(rank0.o)
 .bss           0x00188c7c        0x0 ../../fftw-3.3.4/.libs//libfftw3f.a(rdft-dht.o)
 .bss           0x00188c7c        0x0 ../../fftw-3.3.4/.libs//libfftw3f.a(rdft2-inplace-strides.o)
 .bss           0x00188c7c        0x0 ../../fftw-3.3.4/.libs//libfftw3f.a(rdft2-rdft.o)
 .bss           0x00188c7c        0x0 ../../fftw-3.3.4/.libs//libfftw3f.a(rdft2-strides.o)
 .bss           0x00188c7c        0x0 ../../fftw-3.3.4/.libs//libfftw3f.a(rdft2-tensor-max-index.o)
 .bss           0x00188c7c        0x0 ../../fftw-3.3.4/.libs//libfftw3f.a(lt14-solve.o)
 .bss           0x00188c7c        0x0 ../../fftw-3.3.4/.libs//libfftw3f.a(solve2.o)
 .bss           0x00188c7c        0x0 ../../fftw-3.3.4/.libs//libfftw3f.a(vrank-geq1-rdft2.o)
 .bss           0x00188c7c        0x0 ../../fftw-3.3.4/.libs//libfftw3f.a(lt15-vrank-geq1.o)
 .bss           0x00188c7c        0x0 ../../fftw-3.3.4/.libs//libfftw3f.a(vrank3-transpose.o)
 .bss           0x00188c7c        0x0 ../../fftw-3.3.4/.libs//libfftw3f.a(lt16-codlist.o)
 .bss           0x00188c7c        0x0 ../../fftw-3.3.4/.libs//libfftw3f.a(hc2cf2_16.o)
 .bss           0x00188c7c        0x0 ../../fftw-3.3.4/.libs//libfftw3f.a(hc2cf2_20.o)
 .bss           0x00188c7c        0x0 ../../fftw-3.3.4/.libs//libfftw3f.a(hc2cf2_32.o)
 .bss           0x00188c7c        0x0 ../../fftw-3.3.4/.libs//libfftw3f.a(hc2cf2_4.o)
 .bss           0x00188c7c        0x0 ../../fftw-3.3.4/.libs//libfftw3f.a(hc2cf2_8.o)
 .bss           0x00188c7c        0x0 ../../fftw-3.3.4/.libs//libfftw3f.a(hc2cf_10.o)
 .bss           0x00188c7c        0x0 ../../fftw-3.3.4/.libs//libfftw3f.a(hc2cf_12.o)
 .bss           0x00188c7c        0x0 ../../fftw-3.3.4/.libs//libfftw3f.a(hc2cf_16.o)
 .bss           0x00188c7c        0x0 ../../fftw-3.3.4/.libs//libfftw3f.a(hc2cf_2.o)
 .bss           0x00188c7c        0x0 ../../fftw-3.3.4/.libs//libfftw3f.a(hc2cf_20.o)
 .bss           0x00188c7c        0x0 ../../fftw-3.3.4/.libs//libfftw3f.a(hc2cf_32.o)
 .bss           0x00188c7c        0x0 ../../fftw-3.3.4/.libs//libfftw3f.a(hc2cf_4.o)
 .bss           0x00188c7c        0x0 ../../fftw-3.3.4/.libs//libfftw3f.a(hc2cf_6.o)
 .bss           0x00188c7c        0x0 ../../fftw-3.3.4/.libs//libfftw3f.a(hc2cf_8.o)
 .bss           0x00188c7c        0x0 ../../fftw-3.3.4/.libs//libfftw3f.a(hc2cfdft2_16.o)
 .bss           0x00188c7c        0x0 ../../fftw-3.3.4/.libs//libfftw3f.a(hc2cfdft2_20.o)
 .bss           0x00188c7c        0x0 ../../fftw-3.3.4/.libs//libfftw3f.a(hc2cfdft2_32.o)
 .bss           0x00188c7c        0x0 ../../fftw-3.3.4/.libs//libfftw3f.a(hc2cfdft2_4.o)
 .bss           0x00188c7c        0x0 ../../fftw-3.3.4/.libs//libfftw3f.a(hc2cfdft2_8.o)
 .bss           0x00188c7c        0x0 ../../fftw-3.3.4/.libs//libfftw3f.a(hc2cfdft_10.o)
 .bss           0x00188c7c        0x0 ../../fftw-3.3.4/.libs//libfftw3f.a(hc2cfdft_12.o)
 .bss           0x00188c7c        0x0 ../../fftw-3.3.4/.libs//libfftw3f.a(hc2cfdft_16.o)
 .bss           0x00188c7c        0x0 ../../fftw-3.3.4/.libs//libfftw3f.a(hc2cfdft_2.o)
 .bss           0x00188c7c        0x0 ../../fftw-3.3.4/.libs//libfftw3f.a(hc2cfdft_20.o)
 .bss           0x00188c7c        0x0 ../../fftw-3.3.4/.libs//libfftw3f.a(hc2cfdft_32.o)
 .bss           0x00188c7c        0x0 ../../fftw-3.3.4/.libs//libfftw3f.a(hc2cfdft_4.o)
 .bss           0x00188c7c        0x0 ../../fftw-3.3.4/.libs//libfftw3f.a(hc2cfdft_6.o)
 .bss           0x00188c7c        0x0 ../../fftw-3.3.4/.libs//libfftw3f.a(hc2cfdft_8.o)
 .bss           0x00188c7c        0x0 ../../fftw-3.3.4/.libs//libfftw3f.a(hf2_16.o)
 .bss           0x00188c7c        0x0 ../../fftw-3.3.4/.libs//libfftw3f.a(hf2_20.o)
 .bss           0x00188c7c        0x0 ../../fftw-3.3.4/.libs//libfftw3f.a(hf2_25.o)
 .bss           0x00188c7c        0x0 ../../fftw-3.3.4/.libs//libfftw3f.a(hf2_32.o)
 .bss           0x00188c7c        0x0 ../../fftw-3.3.4/.libs//libfftw3f.a(hf2_4.o)
 .bss           0x00188c7c        0x0 ../../fftw-3.3.4/.libs//libfftw3f.a(hf2_5.o)
 .bss           0x00188c7c        0x0 ../../fftw-3.3.4/.libs//libfftw3f.a(hf2_8.o)
 .bss           0x00188c7c        0x0 ../../fftw-3.3.4/.libs//libfftw3f.a(hf_10.o)
 .bss           0x00188c7c        0x0 ../../fftw-3.3.4/.libs//libfftw3f.a(hf_12.o)
 .bss           0x00188c7c        0x0 ../../fftw-3.3.4/.libs//libfftw3f.a(hf_15.o)
 .bss           0x00188c7c        0x0 ../../fftw-3.3.4/.libs//libfftw3f.a(hf_16.o)
 .bss           0x00188c7c        0x0 ../../fftw-3.3.4/.libs//libfftw3f.a(hf_2.o)
 .bss           0x00188c7c        0x0 ../../fftw-3.3.4/.libs//libfftw3f.a(hf_20.o)
 .bss           0x00188c7c        0x0 ../../fftw-3.3.4/.libs//libfftw3f.a(hf_25.o)
 .bss           0x00188c7c        0x0 ../../fftw-3.3.4/.libs//libfftw3f.a(hf_3.o)
 .bss           0x00188c7c        0x0 ../../fftw-3.3.4/.libs//libfftw3f.a(hf_32.o)
 .bss           0x00188c7c        0x0 ../../fftw-3.3.4/.libs//libfftw3f.a(hf_4.o)
 .bss           0x00188c7c        0x0 ../../fftw-3.3.4/.libs//libfftw3f.a(hf_5.o)
 .bss           0x00188c7c        0x0 ../../fftw-3.3.4/.libs//libfftw3f.a(hf_6.o)
 .bss           0x00188c7c        0x0 ../../fftw-3.3.4/.libs//libfftw3f.a(hf_64.o)
 .bss           0x00188c7c        0x0 ../../fftw-3.3.4/.libs//libfftw3f.a(hf_7.o)
 .bss           0x00188c7c        0x0 ../../fftw-3.3.4/.libs//libfftw3f.a(hf_8.o)
 .bss           0x00188c7c        0x0 ../../fftw-3.3.4/.libs//libfftw3f.a(hf_9.o)
 .bss           0x00188c7c        0x0 ../../fftw-3.3.4/.libs//libfftw3f.a(r2cfII_10.o)
 .bss           0x00188c7c        0x0 ../../fftw-3.3.4/.libs//libfftw3f.a(r2cfII_12.o)
 .bss           0x00188c7c        0x0 ../../fftw-3.3.4/.libs//libfftw3f.a(r2cfII_15.o)
 .bss           0x00188c7c        0x0 ../../fftw-3.3.4/.libs//libfftw3f.a(r2cfII_16.o)
 .bss           0x00188c7c        0x0 ../../fftw-3.3.4/.libs//libfftw3f.a(r2cfII_2.o)
 .bss           0x00188c7c        0x0 ../../fftw-3.3.4/.libs//libfftw3f.a(r2cfII_20.o)
 .bss           0x00188c7c        0x0 ../../fftw-3.3.4/.libs//libfftw3f.a(r2cfII_25.o)
 .bss           0x00188c7c        0x0 ../../fftw-3.3.4/.libs//libfftw3f.a(r2cfII_3.o)
 .bss           0x00188c7c        0x0 ../../fftw-3.3.4/.libs//libfftw3f.a(r2cfII_32.o)
 .bss           0x00188c7c        0x0 ../../fftw-3.3.4/.libs//libfftw3f.a(r2cfII_4.o)
 .bss           0x00188c7c        0x0 ../../fftw-3.3.4/.libs//libfftw3f.a(r2cfII_5.o)
 .bss           0x00188c7c        0x0 ../../fftw-3.3.4/.libs//libfftw3f.a(r2cfII_6.o)
 .bss           0x00188c7c        0x0 ../../fftw-3.3.4/.libs//libfftw3f.a(r2cfII_64.o)
 .bss           0x00188c7c        0x0 ../../fftw-3.3.4/.libs//libfftw3f.a(r2cfII_7.o)
 .bss           0x00188c7c        0x0 ../../fftw-3.3.4/.libs//libfftw3f.a(r2cfII_8.o)
 .bss           0x00188c7c        0x0 ../../fftw-3.3.4/.libs//libfftw3f.a(r2cfII_9.o)
 .bss           0x00188c7c        0x0 ../../fftw-3.3.4/.libs//libfftw3f.a(r2cf_10.o)
 .bss           0x00188c7c        0x0 ../../fftw-3.3.4/.libs//libfftw3f.a(r2cf_11.o)
 .bss           0x00188c7c        0x0 ../../fftw-3.3.4/.libs//libfftw3f.a(r2cf_12.o)
 .bss           0x00188c7c        0x0 ../../fftw-3.3.4/.libs//libfftw3f.a(r2cf_128.o)
 .bss           0x00188c7c        0x0 ../../fftw-3.3.4/.libs//libfftw3f.a(r2cf_13.o)
 .bss           0x00188c7c        0x0 ../../fftw-3.3.4/.libs//libfftw3f.a(r2cf_14.o)
 .bss           0x00188c7c        0x0 ../../fftw-3.3.4/.libs//libfftw3f.a(r2cf_15.o)
 .bss           0x00188c7c        0x0 ../../fftw-3.3.4/.libs//libfftw3f.a(r2cf_16.o)
 .bss           0x00188c7c        0x0 ../../fftw-3.3.4/.libs//libfftw3f.a(r2cf_2.o)
 .bss           0x00188c7c        0x0 ../../fftw-3.3.4/.libs//libfftw3f.a(r2cf_20.o)
 .bss           0x00188c7c        0x0 ../../fftw-3.3.4/.libs//libfftw3f.a(r2cf_25.o)
 .bss           0x00188c7c        0x0 ../../fftw-3.3.4/.libs//libfftw3f.a(r2cf_3.o)
 .bss           0x00188c7c        0x0 ../../fftw-3.3.4/.libs//libfftw3f.a(r2cf_32.o)
 .bss           0x00188c7c        0x0 ../../fftw-3.3.4/.libs//libfftw3f.a(r2cf_4.o)
 .bss           0x00188c7c        0x0 ../../fftw-3.3.4/.libs//libfftw3f.a(r2cf_5.o)
 .bss           0x00188c7c        0x0 ../../fftw-3.3.4/.libs//libfftw3f.a(r2cf_6.o)
 .bss           0x00188c7c        0x0 ../../fftw-3.3.4/.libs//libfftw3f.a(r2cf_64.o)
 .bss           0x00188c7c        0x0 ../../fftw-3.3.4/.libs//libfftw3f.a(r2cf_7.o)
 .bss           0x00188c7c        0x0 ../../fftw-3.3.4/.libs//libfftw3f.a(r2cf_8.o)
 .bss           0x00188c7c        0x0 ../../fftw-3.3.4/.libs//libfftw3f.a(r2cf_9.o)
 .bss           0x00188c7c        0x0 ../../fftw-3.3.4/.libs//libfftw3f.a(lt17-codlist.o)
 .bss           0x00188c7c        0x0 ../../fftw-3.3.4/.libs//libfftw3f.a(hb2_16.o)
 .bss           0x00188c7c        0x0 ../../fftw-3.3.4/.libs//libfftw3f.a(hb2_20.o)
 .bss           0x00188c7c        0x0 ../../fftw-3.3.4/.libs//libfftw3f.a(hb2_25.o)
 .bss           0x00188c7c        0x0 ../../fftw-3.3.4/.libs//libfftw3f.a(hb2_32.o)
 .bss           0x00188c7c        0x0 ../../fftw-3.3.4/.libs//libfftw3f.a(hb2_4.o)
 .bss           0x00188c7c        0x0 ../../fftw-3.3.4/.libs//libfftw3f.a(hb2_5.o)
 .bss           0x00188c7c        0x0 ../../fftw-3.3.4/.libs//libfftw3f.a(hb2_8.o)
 .bss           0x00188c7c        0x0 ../../fftw-3.3.4/.libs//libfftw3f.a(hb_10.o)
 .bss           0x00188c7c        0x0 ../../fftw-3.3.4/.libs//libfftw3f.a(hb_12.o)
 .bss           0x00188c7c        0x0 ../../fftw-3.3.4/.libs//libfftw3f.a(hb_15.o)
 .bss           0x00188c7c        0x0 ../../fftw-3.3.4/.libs//libfftw3f.a(hb_16.o)
 .bss           0x00188c7c        0x0 ../../fftw-3.3.4/.libs//libfftw3f.a(hb_2.o)
 .bss           0x00188c7c        0x0 ../../fftw-3.3.4/.libs//libfftw3f.a(hb_20.o)
 .bss           0x00188c7c        0x0 ../../fftw-3.3.4/.libs//libfftw3f.a(hb_25.o)
 .bss           0x00188c7c        0x0 ../../fftw-3.3.4/.libs//libfftw3f.a(hb_3.o)
 .bss           0x00188c7c        0x0 ../../fftw-3.3.4/.libs//libfftw3f.a(hb_32.o)
 .bss           0x00188c7c        0x0 ../../fftw-3.3.4/.libs//libfftw3f.a(hb_4.o)
 .bss           0x00188c7c        0x0 ../../fftw-3.3.4/.libs//libfftw3f.a(hb_5.o)
 .bss           0x00188c7c        0x0 ../../fftw-3.3.4/.libs//libfftw3f.a(hb_6.o)
 .bss           0x00188c7c        0x0 ../../fftw-3.3.4/.libs//libfftw3f.a(hb_64.o)
 .bss           0x00188c7c        0x0 ../../fftw-3.3.4/.libs//libfftw3f.a(hb_7.o)
 .bss           0x00188c7c        0x0 ../../fftw-3.3.4/.libs//libfftw3f.a(hb_8.o)
 .bss           0x00188c7c        0x0 ../../fftw-3.3.4/.libs//libfftw3f.a(hb_9.o)
 .bss           0x00188c7c        0x0 ../../fftw-3.3.4/.libs//libfftw3f.a(hc2cb2_16.o)
 .bss           0x00188c7c        0x0 ../../fftw-3.3.4/.libs//libfftw3f.a(hc2cb2_20.o)
 .bss           0x00188c7c        0x0 ../../fftw-3.3.4/.libs//libfftw3f.a(hc2cb2_32.o)
 .bss           0x00188c7c        0x0 ../../fftw-3.3.4/.libs//libfftw3f.a(hc2cb2_4.o)
 .bss           0x00188c7c        0x0 ../../fftw-3.3.4/.libs//libfftw3f.a(hc2cb2_8.o)
 .bss           0x00188c7c        0x0 ../../fftw-3.3.4/.libs//libfftw3f.a(hc2cb_10.o)
 .bss           0x00188c7c        0x0 ../../fftw-3.3.4/.libs//libfftw3f.a(hc2cb_12.o)
 .bss           0x00188c7c        0x0 ../../fftw-3.3.4/.libs//libfftw3f.a(hc2cb_16.o)
 .bss           0x00188c7c        0x0 ../../fftw-3.3.4/.libs//libfftw3f.a(hc2cb_2.o)
 .bss           0x00188c7c        0x0 ../../fftw-3.3.4/.libs//libfftw3f.a(hc2cb_20.o)
 .bss           0x00188c7c        0x0 ../../fftw-3.3.4/.libs//libfftw3f.a(hc2cb_32.o)
 .bss           0x00188c7c        0x0 ../../fftw-3.3.4/.libs//libfftw3f.a(hc2cb_4.o)
 .bss           0x00188c7c        0x0 ../../fftw-3.3.4/.libs//libfftw3f.a(hc2cb_6.o)
 .bss           0x00188c7c        0x0 ../../fftw-3.3.4/.libs//libfftw3f.a(hc2cb_8.o)
 .bss           0x00188c7c        0x0 ../../fftw-3.3.4/.libs//libfftw3f.a(hc2cbdft2_16.o)
 .bss           0x00188c7c        0x0 ../../fftw-3.3.4/.libs//libfftw3f.a(hc2cbdft2_20.o)
 .bss           0x00188c7c        0x0 ../../fftw-3.3.4/.libs//libfftw3f.a(hc2cbdft2_32.o)
 .bss           0x00188c7c        0x0 ../../fftw-3.3.4/.libs//libfftw3f.a(hc2cbdft2_4.o)
 .bss           0x00188c7c        0x0 ../../fftw-3.3.4/.libs//libfftw3f.a(hc2cbdft2_8.o)
 .bss           0x00188c7c        0x0 ../../fftw-3.3.4/.libs//libfftw3f.a(hc2cbdft_10.o)
 .bss           0x00188c7c        0x0 ../../fftw-3.3.4/.libs//libfftw3f.a(hc2cbdft_12.o)
 .bss           0x00188c7c        0x0 ../../fftw-3.3.4/.libs//libfftw3f.a(hc2cbdft_16.o)
 .bss           0x00188c7c        0x0 ../../fftw-3.3.4/.libs//libfftw3f.a(hc2cbdft_2.o)
 .bss           0x00188c7c        0x0 ../../fftw-3.3.4/.libs//libfftw3f.a(hc2cbdft_20.o)
 .bss           0x00188c7c        0x0 ../../fftw-3.3.4/.libs//libfftw3f.a(hc2cbdft_32.o)
 .bss           0x00188c7c        0x0 ../../fftw-3.3.4/.libs//libfftw3f.a(hc2cbdft_4.o)
 .bss           0x00188c7c        0x0 ../../fftw-3.3.4/.libs//libfftw3f.a(hc2cbdft_6.o)
 .bss           0x00188c7c        0x0 ../../fftw-3.3.4/.libs//libfftw3f.a(hc2cbdft_8.o)
 .bss           0x00188c7c        0x0 ../../fftw-3.3.4/.libs//libfftw3f.a(r2cbIII_10.o)
 .bss           0x00188c7c        0x0 ../../fftw-3.3.4/.libs//libfftw3f.a(r2cbIII_12.o)
 .bss           0x00188c7c        0x0 ../../fftw-3.3.4/.libs//libfftw3f.a(r2cbIII_15.o)
 .bss           0x00188c7c        0x0 ../../fftw-3.3.4/.libs//libfftw3f.a(r2cbIII_16.o)
 .bss           0x00188c7c        0x0 ../../fftw-3.3.4/.libs//libfftw3f.a(r2cbIII_2.o)
 .bss           0x00188c7c        0x0 ../../fftw-3.3.4/.libs//libfftw3f.a(r2cbIII_20.o)
 .bss           0x00188c7c        0x0 ../../fftw-3.3.4/.libs//libfftw3f.a(r2cbIII_25.o)
 .bss           0x00188c7c        0x0 ../../fftw-3.3.4/.libs//libfftw3f.a(r2cbIII_3.o)
 .bss           0x00188c7c        0x0 ../../fftw-3.3.4/.libs//libfftw3f.a(r2cbIII_32.o)
 .bss           0x00188c7c        0x0 ../../fftw-3.3.4/.libs//libfftw3f.a(r2cbIII_4.o)
 .bss           0x00188c7c        0x0 ../../fftw-3.3.4/.libs//libfftw3f.a(r2cbIII_5.o)
 .bss           0x00188c7c        0x0 ../../fftw-3.3.4/.libs//libfftw3f.a(r2cbIII_6.o)
 .bss           0x00188c7c        0x0 ../../fftw-3.3.4/.libs//libfftw3f.a(r2cbIII_64.o)
 .bss           0x00188c7c        0x0 ../../fftw-3.3.4/.libs//libfftw3f.a(r2cbIII_7.o)
 .bss           0x00188c7c        0x0 ../../fftw-3.3.4/.libs//libfftw3f.a(r2cbIII_8.o)
 .bss           0x00188c7c        0x0 ../../fftw-3.3.4/.libs//libfftw3f.a(r2cbIII_9.o)
 .bss           0x00188c7c        0x0 ../../fftw-3.3.4/.libs//libfftw3f.a(r2cb_10.o)
 .bss           0x00188c7c        0x0 ../../fftw-3.3.4/.libs//libfftw3f.a(r2cb_11.o)
 .bss           0x00188c7c        0x0 ../../fftw-3.3.4/.libs//libfftw3f.a(r2cb_12.o)
 .bss           0x00188c7c        0x0 ../../fftw-3.3.4/.libs//libfftw3f.a(r2cb_128.o)
 .bss           0x00188c7c        0x0 ../../fftw-3.3.4/.libs//libfftw3f.a(r2cb_13.o)
 .bss           0x00188c7c        0x0 ../../fftw-3.3.4/.libs//libfftw3f.a(r2cb_14.o)
 .bss           0x00188c7c        0x0 ../../fftw-3.3.4/.libs//libfftw3f.a(r2cb_15.o)
 .bss           0x00188c7c        0x0 ../../fftw-3.3.4/.libs//libfftw3f.a(r2cb_16.o)
 .bss           0x00188c7c        0x0 ../../fftw-3.3.4/.libs//libfftw3f.a(r2cb_2.o)
 .bss           0x00188c7c        0x0 ../../fftw-3.3.4/.libs//libfftw3f.a(r2cb_20.o)
 .bss           0x00188c7c        0x0 ../../fftw-3.3.4/.libs//libfftw3f.a(r2cb_25.o)
 .bss           0x00188c7c        0x0 ../../fftw-3.3.4/.libs//libfftw3f.a(r2cb_3.o)
 .bss           0x00188c7c        0x0 ../../fftw-3.3.4/.libs//libfftw3f.a(r2cb_32.o)
 .bss           0x00188c7c        0x0 ../../fftw-3.3.4/.libs//libfftw3f.a(r2cb_4.o)
 .bss           0x00188c7c        0x0 ../../fftw-3.3.4/.libs//libfftw3f.a(r2cb_5.o)
 .bss           0x00188c7c        0x0 ../../fftw-3.3.4/.libs//libfftw3f.a(r2cb_6.o)
 .bss           0x00188c7c        0x0 ../../fftw-3.3.4/.libs//libfftw3f.a(r2cb_64.o)
 .bss           0x00188c7c        0x0 ../../fftw-3.3.4/.libs//libfftw3f.a(r2cb_7.o)
 .bss           0x00188c7c        0x0 ../../fftw-3.3.4/.libs//libfftw3f.a(r2cb_8.o)
 .bss           0x00188c7c        0x0 ../../fftw-3.3.4/.libs//libfftw3f.a(r2cb_9.o)
 .bss           0x00188c7c        0x0 ../../fftw-3.3.4/.libs//libfftw3f.a(lt18-codlist.o)
 .bss           0x00188c7c        0x0 ../../fftw-3.3.4/.libs//libfftw3f.a(e01_8.o)
 .bss           0x00188c7c        0x0 ../../fftw-3.3.4/.libs//libfftw3f.a(e10_8.o)
 .bss           0x00188c7c        0x0 ../../fftw-3.3.4/.libs//libfftw3f.a(lt19-conf.o)
 .bss           0x00188c7c        0x0 ../../fftw-3.3.4/.libs//libfftw3f.a(redft00e-r2hc-pad.o)
 .bss           0x00188c7c        0x0 ../../fftw-3.3.4/.libs//libfftw3f.a(reodft00e-splitradix.o)
 .bss           0x00188c7c        0x0 ../../fftw-3.3.4/.libs//libfftw3f.a(reodft010e-r2hc.o)
 .bss           0x00188c7c        0x0 ../../fftw-3.3.4/.libs//libfftw3f.a(reodft11e-r2hc-odd.o)
 .bss           0x00188c7c        0x0 ../../fftw-3.3.4/.libs//libfftw3f.a(reodft11e-radix2.o)
 .bss           0x00188c7c        0x0 ../../fftw-3.3.4/.libs//libfftw3f.a(rodft00e-r2hc-pad.o)
 *fill*         0x00188c7c        0x4 
 .bss           0x00188c80      0x190 ../../fftw-3.3.4/.libs//libfftw3f.a(neon.o)
 .bss           0x00188e10        0x0 ../../fftw-3.3.4/.libs//libfftw3f.a(lt20-codlist.o)
 .bss           0x00188e10        0x0 ../../fftw-3.3.4/.libs//libfftw3f.a(n1bv_10.o)
 .bss           0x00188e10        0x0 ../../fftw-3.3.4/.libs//libfftw3f.a(n1bv_11.o)
 .bss           0x00188e10        0x0 ../../fftw-3.3.4/.libs//libfftw3f.a(n1bv_12.o)
 .bss           0x00188e10        0x0 ../../fftw-3.3.4/.libs//libfftw3f.a(n1bv_128.o)
 .bss           0x00188e10        0x0 ../../fftw-3.3.4/.libs//libfftw3f.a(n1bv_13.o)
 .bss           0x00188e10        0x0 ../../fftw-3.3.4/.libs//libfftw3f.a(n1bv_14.o)
 .bss           0x00188e10        0x0 ../../fftw-3.3.4/.libs//libfftw3f.a(n1bv_15.o)
 .bss           0x00188e10        0x0 ../../fftw-3.3.4/.libs//libfftw3f.a(n1bv_16.o)
 .bss           0x00188e10        0x0 ../../fftw-3.3.4/.libs//libfftw3f.a(n1bv_2.o)
 .bss           0x00188e10        0x0 ../../fftw-3.3.4/.libs//libfftw3f.a(n1bv_20.o)
 .bss           0x00188e10        0x0 ../../fftw-3.3.4/.libs//libfftw3f.a(n1bv_25.o)
 .bss           0x00188e10        0x0 ../../fftw-3.3.4/.libs//libfftw3f.a(n1bv_3.o)
 .bss           0x00188e10        0x0 ../../fftw-3.3.4/.libs//libfftw3f.a(n1bv_32.o)
 .bss           0x00188e10        0x0 ../../fftw-3.3.4/.libs//libfftw3f.a(n1bv_4.o)
 .bss           0x00188e10        0x0 ../../fftw-3.3.4/.libs//libfftw3f.a(n1bv_5.o)
 .bss           0x00188e10        0x0 ../../fftw-3.3.4/.libs//libfftw3f.a(n1bv_6.o)
 .bss           0x00188e10        0x0 ../../fftw-3.3.4/.libs//libfftw3f.a(n1bv_64.o)
 .bss           0x00188e10        0x0 ../../fftw-3.3.4/.libs//libfftw3f.a(n1bv_7.o)
 .bss           0x00188e10        0x0 ../../fftw-3.3.4/.libs//libfftw3f.a(n1bv_8.o)
 .bss           0x00188e10        0x0 ../../fftw-3.3.4/.libs//libfftw3f.a(n1bv_9.o)
 .bss           0x00188e10        0x0 ../../fftw-3.3.4/.libs//libfftw3f.a(n1fv_10.o)
 .bss           0x00188e10        0x0 ../../fftw-3.3.4/.libs//libfftw3f.a(n1fv_11.o)
 .bss           0x00188e10        0x0 ../../fftw-3.3.4/.libs//libfftw3f.a(n1fv_12.o)
 .bss           0x00188e10        0x0 ../../fftw-3.3.4/.libs//libfftw3f.a(n1fv_128.o)
 .bss           0x00188e10        0x0 ../../fftw-3.3.4/.libs//libfftw3f.a(n1fv_13.o)
 .bss           0x00188e10        0x0 ../../fftw-3.3.4/.libs//libfftw3f.a(n1fv_14.o)
 .bss           0x00188e10        0x0 ../../fftw-3.3.4/.libs//libfftw3f.a(n1fv_15.o)
 .bss           0x00188e10        0x0 ../../fftw-3.3.4/.libs//libfftw3f.a(n1fv_16.o)
 .bss           0x00188e10        0x0 ../../fftw-3.3.4/.libs//libfftw3f.a(n1fv_2.o)
 .bss           0x00188e10        0x0 ../../fftw-3.3.4/.libs//libfftw3f.a(n1fv_20.o)
 .bss           0x00188e10        0x0 ../../fftw-3.3.4/.libs//libfftw3f.a(n1fv_25.o)
 .bss           0x00188e10        0x0 ../../fftw-3.3.4/.libs//libfftw3f.a(n1fv_3.o)
 .bss           0x00188e10        0x0 ../../fftw-3.3.4/.libs//libfftw3f.a(n1fv_32.o)
 .bss           0x00188e10        0x0 ../../fftw-3.3.4/.libs//libfftw3f.a(n1fv_4.o)
 .bss           0x00188e10        0x0 ../../fftw-3.3.4/.libs//libfftw3f.a(n1fv_5.o)
 .bss           0x00188e10        0x0 ../../fftw-3.3.4/.libs//libfftw3f.a(n1fv_6.o)
 .bss           0x00188e10        0x0 ../../fftw-3.3.4/.libs//libfftw3f.a(n1fv_64.o)
 .bss           0x00188e10        0x0 ../../fftw-3.3.4/.libs//libfftw3f.a(n1fv_7.o)
 .bss           0x00188e10        0x0 ../../fftw-3.3.4/.libs//libfftw3f.a(n1fv_8.o)
 .bss           0x00188e10        0x0 ../../fftw-3.3.4/.libs//libfftw3f.a(n1fv_9.o)
 .bss           0x00188e10        0x0 ../../fftw-3.3.4/.libs//libfftw3f.a(n2bv_10.o)
 .bss           0x00188e10        0x0 ../../fftw-3.3.4/.libs//libfftw3f.a(n2bv_12.o)
 .bss           0x00188e10        0x0 ../../fftw-3.3.4/.libs//libfftw3f.a(n2bv_14.o)
 .bss           0x00188e10        0x0 ../../fftw-3.3.4/.libs//libfftw3f.a(n2bv_16.o)
 .bss           0x00188e10        0x0 ../../fftw-3.3.4/.libs//libfftw3f.a(n2bv_2.o)
 .bss           0x00188e10        0x0 ../../fftw-3.3.4/.libs//libfftw3f.a(n2bv_20.o)
 .bss           0x00188e10        0x0 ../../fftw-3.3.4/.libs//libfftw3f.a(n2bv_32.o)
 .bss           0x00188e10        0x0 ../../fftw-3.3.4/.libs//libfftw3f.a(n2bv_4.o)
 .bss           0x00188e10        0x0 ../../fftw-3.3.4/.libs//libfftw3f.a(n2bv_6.o)
 .bss           0x00188e10        0x0 ../../fftw-3.3.4/.libs//libfftw3f.a(n2bv_64.o)
 .bss           0x00188e10        0x0 ../../fftw-3.3.4/.libs//libfftw3f.a(n2bv_8.o)
 .bss           0x00188e10        0x0 ../../fftw-3.3.4/.libs//libfftw3f.a(n2fv_10.o)
 .bss           0x00188e10        0x0 ../../fftw-3.3.4/.libs//libfftw3f.a(n2fv_12.o)
 .bss           0x00188e10        0x0 ../../fftw-3.3.4/.libs//libfftw3f.a(n2fv_14.o)
 .bss           0x00188e10        0x0 ../../fftw-3.3.4/.libs//libfftw3f.a(n2fv_16.o)
 .bss           0x00188e10        0x0 ../../fftw-3.3.4/.libs//libfftw3f.a(n2fv_2.o)
 .bss           0x00188e10        0x0 ../../fftw-3.3.4/.libs//libfftw3f.a(n2fv_20.o)
 .bss           0x00188e10        0x0 ../../fftw-3.3.4/.libs//libfftw3f.a(n2fv_32.o)
 .bss           0x00188e10        0x0 ../../fftw-3.3.4/.libs//libfftw3f.a(n2fv_4.o)
 .bss           0x00188e10        0x0 ../../fftw-3.3.4/.libs//libfftw3f.a(n2fv_6.o)
 .bss           0x00188e10        0x0 ../../fftw-3.3.4/.libs//libfftw3f.a(n2fv_64.o)
 .bss           0x00188e10        0x0 ../../fftw-3.3.4/.libs//libfftw3f.a(n2fv_8.o)
 .bss           0x00188e10        0x0 ../../fftw-3.3.4/.libs//libfftw3f.a(n2sv_16.o)
 .bss           0x00188e10        0x0 ../../fftw-3.3.4/.libs//libfftw3f.a(n2sv_32.o)
 .bss           0x00188e10        0x0 ../../fftw-3.3.4/.libs//libfftw3f.a(n2sv_4.o)
 .bss           0x00188e10        0x0 ../../fftw-3.3.4/.libs//libfftw3f.a(n2sv_64.o)
 .bss           0x00188e10        0x0 ../../fftw-3.3.4/.libs//libfftw3f.a(n2sv_8.o)
 .bss           0x00188e10        0x0 ../../fftw-3.3.4/.libs//libfftw3f.a(q1bv_2.o)
 .bss           0x00188e10        0x0 ../../fftw-3.3.4/.libs//libfftw3f.a(q1bv_4.o)
 .bss           0x00188e10        0x0 ../../fftw-3.3.4/.libs//libfftw3f.a(q1bv_5.o)
 .bss           0x00188e10        0x0 ../../fftw-3.3.4/.libs//libfftw3f.a(q1bv_8.o)
 .bss           0x00188e10        0x0 ../../fftw-3.3.4/.libs//libfftw3f.a(q1fv_2.o)
 .bss           0x00188e10        0x0 ../../fftw-3.3.4/.libs//libfftw3f.a(q1fv_4.o)
 .bss           0x00188e10        0x0 ../../fftw-3.3.4/.libs//libfftw3f.a(q1fv_5.o)
 .bss           0x00188e10        0x0 ../../fftw-3.3.4/.libs//libfftw3f.a(q1fv_8.o)
 .bss           0x00188e10        0x0 ../../fftw-3.3.4/.libs//libfftw3f.a(t1buv_10.o)
 .bss           0x00188e10        0x0 ../../fftw-3.3.4/.libs//libfftw3f.a(t1buv_2.o)
 .bss           0x00188e10        0x0 ../../fftw-3.3.4/.libs//libfftw3f.a(t1buv_3.o)
 .bss           0x00188e10        0x0 ../../fftw-3.3.4/.libs//libfftw3f.a(t1buv_4.o)
 .bss           0x00188e10        0x0 ../../fftw-3.3.4/.libs//libfftw3f.a(t1buv_5.o)
 .bss           0x00188e10        0x0 ../../fftw-3.3.4/.libs//libfftw3f.a(t1buv_6.o)
 .bss           0x00188e10        0x0 ../../fftw-3.3.4/.libs//libfftw3f.a(t1buv_7.o)
 .bss           0x00188e10        0x0 ../../fftw-3.3.4/.libs//libfftw3f.a(t1buv_8.o)
 .bss           0x00188e10        0x0 ../../fftw-3.3.4/.libs//libfftw3f.a(t1buv_9.o)
 .bss           0x00188e10        0x0 ../../fftw-3.3.4/.libs//libfftw3f.a(t1bv_10.o)
 .bss           0x00188e10        0x0 ../../fftw-3.3.4/.libs//libfftw3f.a(t1bv_12.o)
 .bss           0x00188e10        0x0 ../../fftw-3.3.4/.libs//libfftw3f.a(t1bv_15.o)
 .bss           0x00188e10        0x0 ../../fftw-3.3.4/.libs//libfftw3f.a(t1bv_16.o)
 .bss           0x00188e10        0x0 ../../fftw-3.3.4/.libs//libfftw3f.a(t1bv_2.o)
 .bss           0x00188e10        0x0 ../../fftw-3.3.4/.libs//libfftw3f.a(t1bv_20.o)
 .bss           0x00188e10        0x0 ../../fftw-3.3.4/.libs//libfftw3f.a(t1bv_25.o)
 .bss           0x00188e10        0x0 ../../fftw-3.3.4/.libs//libfftw3f.a(t1bv_3.o)
 .bss           0x00188e10        0x0 ../../fftw-3.3.4/.libs//libfftw3f.a(t1bv_32.o)
 .bss           0x00188e10        0x0 ../../fftw-3.3.4/.libs//libfftw3f.a(t1bv_4.o)
 .bss           0x00188e10        0x0 ../../fftw-3.3.4/.libs//libfftw3f.a(t1bv_5.o)
 .bss           0x00188e10        0x0 ../../fftw-3.3.4/.libs//libfftw3f.a(t1bv_6.o)
 .bss           0x00188e10        0x0 ../../fftw-3.3.4/.libs//libfftw3f.a(t1bv_64.o)
 .bss           0x00188e10        0x0 ../../fftw-3.3.4/.libs//libfftw3f.a(t1bv_7.o)
 .bss           0x00188e10        0x0 ../../fftw-3.3.4/.libs//libfftw3f.a(t1bv_8.o)
 .bss           0x00188e10        0x0 ../../fftw-3.3.4/.libs//libfftw3f.a(t1bv_9.o)
 .bss           0x00188e10        0x0 ../../fftw-3.3.4/.libs//libfftw3f.a(t1fuv_10.o)
 .bss           0x00188e10        0x0 ../../fftw-3.3.4/.libs//libfftw3f.a(t1fuv_2.o)
 .bss           0x00188e10        0x0 ../../fftw-3.3.4/.libs//libfftw3f.a(t1fuv_3.o)
 .bss           0x00188e10        0x0 ../../fftw-3.3.4/.libs//libfftw3f.a(t1fuv_4.o)
 .bss           0x00188e10        0x0 ../../fftw-3.3.4/.libs//libfftw3f.a(t1fuv_5.o)
 .bss           0x00188e10        0x0 ../../fftw-3.3.4/.libs//libfftw3f.a(t1fuv_6.o)
 .bss           0x00188e10        0x0 ../../fftw-3.3.4/.libs//libfftw3f.a(t1fuv_7.o)
 .bss           0x00188e10        0x0 ../../fftw-3.3.4/.libs//libfftw3f.a(t1fuv_8.o)
 .bss           0x00188e10        0x0 ../../fftw-3.3.4/.libs//libfftw3f.a(t1fuv_9.o)
 .bss           0x00188e10        0x0 ../../fftw-3.3.4/.libs//libfftw3f.a(t1fv_10.o)
 .bss           0x00188e10        0x0 ../../fftw-3.3.4/.libs//libfftw3f.a(t1fv_12.o)
 .bss           0x00188e10        0x0 ../../fftw-3.3.4/.libs//libfftw3f.a(t1fv_15.o)
 .bss           0x00188e10        0x0 ../../fftw-3.3.4/.libs//libfftw3f.a(t1fv_16.o)
 .bss           0x00188e10        0x0 ../../fftw-3.3.4/.libs//libfftw3f.a(t1fv_2.o)
 .bss           0x00188e10        0x0 ../../fftw-3.3.4/.libs//libfftw3f.a(t1fv_20.o)
 .bss           0x00188e10        0x0 ../../fftw-3.3.4/.libs//libfftw3f.a(t1fv_25.o)
 .bss           0x00188e10        0x0 ../../fftw-3.3.4/.libs//libfftw3f.a(t1fv_3.o)
 .bss           0x00188e10        0x0 ../../fftw-3.3.4/.libs//libfftw3f.a(t1fv_32.o)
 .bss           0x00188e10        0x0 ../../fftw-3.3.4/.libs//libfftw3f.a(t1fv_4.o)
 .bss           0x00188e10        0x0 ../../fftw-3.3.4/.libs//libfftw3f.a(t1fv_5.o)
 .bss           0x00188e10        0x0 ../../fftw-3.3.4/.libs//libfftw3f.a(t1fv_6.o)
 .bss           0x00188e10        0x0 ../../fftw-3.3.4/.libs//libfftw3f.a(t1fv_64.o)
 .bss           0x00188e10        0x0 ../../fftw-3.3.4/.libs//libfftw3f.a(t1fv_7.o)
 .bss           0x00188e10        0x0 ../../fftw-3.3.4/.libs//libfftw3f.a(t1fv_8.o)
 .bss           0x00188e10        0x0 ../../fftw-3.3.4/.libs//libfftw3f.a(t1fv_9.o)
 .bss           0x00188e10        0x0 ../../fftw-3.3.4/.libs//libfftw3f.a(t1sv_16.o)
 .bss           0x00188e10        0x0 ../../fftw-3.3.4/.libs//libfftw3f.a(t1sv_2.o)
 .bss           0x00188e10        0x0 ../../fftw-3.3.4/.libs//libfftw3f.a(t1sv_32.o)
 .bss           0x00188e10        0x0 ../../fftw-3.3.4/.libs//libfftw3f.a(t1sv_4.o)
 .bss           0x00188e10        0x0 ../../fftw-3.3.4/.libs//libfftw3f.a(t1sv_8.o)
 .bss           0x00188e10        0x0 ../../fftw-3.3.4/.libs//libfftw3f.a(t2bv_10.o)
 .bss           0x00188e10        0x0 ../../fftw-3.3.4/.libs//libfftw3f.a(t2bv_16.o)
 .bss           0x00188e10        0x0 ../../fftw-3.3.4/.libs//libfftw3f.a(t2bv_2.o)
 .bss           0x00188e10        0x0 ../../fftw-3.3.4/.libs//libfftw3f.a(t2bv_20.o)
 .bss           0x00188e10        0x0 ../../fftw-3.3.4/.libs//libfftw3f.a(t2bv_25.o)
 .bss           0x00188e10        0x0 ../../fftw-3.3.4/.libs//libfftw3f.a(t2bv_32.o)
 .bss           0x00188e10        0x0 ../../fftw-3.3.4/.libs//libfftw3f.a(t2bv_4.o)
 .bss           0x00188e10        0x0 ../../fftw-3.3.4/.libs//libfftw3f.a(t2bv_5.o)
 .bss           0x00188e10        0x0 ../../fftw-3.3.4/.libs//libfftw3f.a(t2bv_64.o)
 .bss           0x00188e10        0x0 ../../fftw-3.3.4/.libs//libfftw3f.a(t2bv_8.o)
 .bss           0x00188e10        0x0 ../../fftw-3.3.4/.libs//libfftw3f.a(t2fv_10.o)
 .bss           0x00188e10        0x0 ../../fftw-3.3.4/.libs//libfftw3f.a(t2fv_16.o)
 .bss           0x00188e10        0x0 ../../fftw-3.3.4/.libs//libfftw3f.a(t2fv_2.o)
 .bss           0x00188e10        0x0 ../../fftw-3.3.4/.libs//libfftw3f.a(t2fv_20.o)
 .bss           0x00188e10        0x0 ../../fftw-3.3.4/.libs//libfftw3f.a(t2fv_25.o)
 .bss           0x00188e10        0x0 ../../fftw-3.3.4/.libs//libfftw3f.a(t2fv_32.o)
 .bss           0x00188e10        0x0 ../../fftw-3.3.4/.libs//libfftw3f.a(t2fv_4.o)
 .bss           0x00188e10        0x0 ../../fftw-3.3.4/.libs//libfftw3f.a(t2fv_5.o)
 .bss           0x00188e10        0x0 ../../fftw-3.3.4/.libs//libfftw3f.a(t2fv_64.o)
 .bss           0x00188e10        0x0 ../../fftw-3.3.4/.libs//libfftw3f.a(t2fv_8.o)
 .bss           0x00188e10        0x0 ../../fftw-3.3.4/.libs//libfftw3f.a(t2sv_16.o)
 .bss           0x00188e10        0x0 ../../fftw-3.3.4/.libs//libfftw3f.a(t2sv_32.o)
 .bss           0x00188e10        0x0 ../../fftw-3.3.4/.libs//libfftw3f.a(t2sv_4.o)
 .bss           0x00188e10        0x0 ../../fftw-3.3.4/.libs//libfftw3f.a(t2sv_8.o)
 .bss           0x00188e10        0x0 ../../fftw-3.3.4/.libs//libfftw3f.a(t3bv_10.o)
 .bss           0x00188e10        0x0 ../../fftw-3.3.4/.libs//libfftw3f.a(t3bv_16.o)
 .bss           0x00188e10        0x0 ../../fftw-3.3.4/.libs//libfftw3f.a(t3bv_20.o)
 .bss           0x00188e10        0x0 ../../fftw-3.3.4/.libs//libfftw3f.a(t3bv_25.o)
 .bss           0x00188e10        0x0 ../../fftw-3.3.4/.libs//libfftw3f.a(t3bv_32.o)
 .bss           0x00188e10        0x0 ../../fftw-3.3.4/.libs//libfftw3f.a(t3bv_4.o)
 .bss           0x00188e10        0x0 ../../fftw-3.3.4/.libs//libfftw3f.a(t3bv_5.o)
 .bss           0x00188e10        0x0 ../../fftw-3.3.4/.libs//libfftw3f.a(t3bv_8.o)
 .bss           0x00188e10        0x0 ../../fftw-3.3.4/.libs//libfftw3f.a(t3fv_10.o)
 .bss           0x00188e10        0x0 ../../fftw-3.3.4/.libs//libfftw3f.a(t3fv_16.o)
 .bss           0x00188e10        0x0 ../../fftw-3.3.4/.libs//libfftw3f.a(t3fv_20.o)
 .bss           0x00188e10        0x0 ../../fftw-3.3.4/.libs//libfftw3f.a(t3fv_25.o)
 .bss           0x00188e10        0x0 ../../fftw-3.3.4/.libs//libfftw3f.a(t3fv_32.o)
 .bss           0x00188e10        0x0 ../../fftw-3.3.4/.libs//libfftw3f.a(t3fv_4.o)
 .bss           0x00188e10        0x0 ../../fftw-3.3.4/.libs//libfftw3f.a(t3fv_5.o)
 .bss           0x00188e10        0x0 ../../fftw-3.3.4/.libs//libfftw3f.a(t3fv_8.o)
 .bss           0x00188e10        0x0 ../../fftw-3.3.4/.libs//libfftw3f.a(lt21-codlist.o)
 .bss           0x00188e10        0x0 ../../fftw-3.3.4/.libs//libfftw3f.a(hc2cbdftv_10.o)
 .bss           0x00188e10        0x0 ../../fftw-3.3.4/.libs//libfftw3f.a(hc2cbdftv_12.o)
 .bss           0x00188e10        0x0 ../../fftw-3.3.4/.libs//libfftw3f.a(hc2cbdftv_16.o)
 .bss           0x00188e10        0x0 ../../fftw-3.3.4/.libs//libfftw3f.a(hc2cbdftv_2.o)
 .bss           0x00188e10        0x0 ../../fftw-3.3.4/.libs//libfftw3f.a(hc2cbdftv_20.o)
 .bss           0x00188e10        0x0 ../../fftw-3.3.4/.libs//libfftw3f.a(hc2cbdftv_32.o)
 .bss           0x00188e10        0x0 ../../fftw-3.3.4/.libs//libfftw3f.a(hc2cbdftv_4.o)
 .bss           0x00188e10        0x0 ../../fftw-3.3.4/.libs//libfftw3f.a(hc2cbdftv_6.o)
 .bss           0x00188e10        0x0 ../../fftw-3.3.4/.libs//libfftw3f.a(hc2cbdftv_8.o)
 .bss           0x00188e10        0x0 ../../fftw-3.3.4/.libs//libfftw3f.a(hc2cfdftv_10.o)
 .bss           0x00188e10        0x0 ../../fftw-3.3.4/.libs//libfftw3f.a(hc2cfdftv_12.o)
 .bss           0x00188e10        0x0 ../../fftw-3.3.4/.libs//libfftw3f.a(hc2cfdftv_16.o)
 .bss           0x00188e10        0x0 ../../fftw-3.3.4/.libs//libfftw3f.a(hc2cfdftv_2.o)
 .bss           0x00188e10        0x0 ../../fftw-3.3.4/.libs//libfftw3f.a(hc2cfdftv_20.o)
 .bss           0x00188e10        0x0 ../../fftw-3.3.4/.libs//libfftw3f.a(hc2cfdftv_32.o)
 .bss           0x00188e10        0x0 ../../fftw-3.3.4/.libs//libfftw3f.a(hc2cfdftv_4.o)
 .bss           0x00188e10        0x0 ../../fftw-3.3.4/.libs//libfftw3f.a(hc2cfdftv_6.o)
 .bss           0x00188e10        0x0 ../../fftw-3.3.4/.libs//libfftw3f.a(hc2cfdftv_8.o)
 .bss           0x00188e10        0x0 ../../fftw-3.3.4/.libs//libfftw3f.a(awake.o)
 .bss           0x00188e10        0x0 ../../fftw-3.3.4/.libs//libfftw3f.a(buffered.o)
 .bss           0x00188e10        0x0 ../../fftw-3.3.4/.libs//libfftw3f.a(cpy1d.o)
 .bss           0x00188e10        0x0 ../../fftw-3.3.4/.libs//libfftw3f.a(cpy2d-pair.o)
 .bss           0x00188e10        0x0 ../../fftw-3.3.4/.libs//libfftw3f.a(cpy2d.o)
 .bss           0x00188e10        0x0 ../../fftw-3.3.4/.libs//libfftw3f.a(iabs.o)
 .bss           0x00188e10        0x0 ../../fftw-3.3.4/.libs//libfftw3f.a(minmax.o)
 .bss           0x00188e10        0x0 ../../fftw-3.3.4/.libs//libfftw3f.a(pickdim.o)
 .bss           0x00188e10        0x0 ../../fftw-3.3.4/.libs//libfftw3f.a(rader.o)
 .bss           0x00188e10        0x0 ../../fftw-3.3.4/.libs//libfftw3f.a(solvtab.o)
 .bss           0x00188e10        0x0 ../../fftw-3.3.4/.libs//libfftw3f.a(stride.o)
 .bss           0x00188e10        0x0 ../../fftw-3.3.4/.libs//libfftw3f.a(tensor2.o)
 .bss           0x00188e10        0x0 ../../fftw-3.3.4/.libs//libfftw3f.a(tensor4.o)
 .bss           0x00188e10        0x0 ../../fftw-3.3.4/.libs//libfftw3f.a(tile2d.o)
 .bss           0x00188e10        0x0 ../../fftw-3.3.4/.libs//libfftw3f.a(transpose.o)
 .bss           0x00188e10        0x0 ../../fftw-3.3.4/.libs//libfftw3f.a(trig.o)
 .bss           0x00188e10      0x1b8 ../../fftw-3.3.4/.libs//libfftw3f.a(twiddle.o)
 .bss           0x00188fc8        0x0 ../../fftw-3.3.4/.libs//libfftw3f.a(bluestein.o)
 .bss           0x00188fc8        0x0 ../../fftw-3.3.4/.libs//libfftw3f.a(lt1-buffered.o)
 .bss           0x00188fc8        0x4 ../../fftw-3.3.4/.libs//libfftw3f.a(lt2-ct.o)
                0x00188fc8                fftwf_mksolver_ct_hook
 .bss           0x00188fcc        0x0 ../../fftw-3.3.4/.libs//libfftw3f.a(kdft-difsq.o)
 .bss           0x00188fcc        0x0 ../../fftw-3.3.4/.libs//libfftw3f.a(kdft-dit.o)
 .bss           0x00188fcc        0x0 ../../fftw-3.3.4/.libs//libfftw3f.a(kdft.o)
 .bss           0x00188fcc        0x0 ../../fftw-3.3.4/.libs//libfftw3f.a(n.o)
 .bss           0x00188fcc        0x0 ../../fftw-3.3.4/.libs//libfftw3f.a(t.o)
 .bss           0x00188fcc        0x0 ../../fftw-3.3.4/.libs//libfftw3f.a(lt6-buffered.o)
 .bss           0x00188fcc        0x0 ../../fftw-3.3.4/.libs//libfftw3f.a(buffered2.o)
 .bss           0x00188fcc        0x0 ../../fftw-3.3.4/.libs//libfftw3f.a(khc2c.o)
 .bss           0x00188fcc        0x0 ../../fftw-3.3.4/.libs//libfftw3f.a(khc2hc.o)
 .bss           0x00188fcc        0x0 ../../fftw-3.3.4/.libs//libfftw3f.a(kr2c.o)
 .bss           0x00188fcc        0x0 ../../fftw-3.3.4/.libs//libfftw3f.a(kr2r.o)
 .bss           0x00188fcc        0x0 ../../fftw-3.3.4/.libs//libfftw3f.a(hc2c.o)
 .bss           0x00188fcc        0x0 ../../fftw-3.3.4/.libs//libfftw3f.a(hfb.o)
 .bss           0x00188fcc        0x0 ../../fftw-3.3.4/.libs//libfftw3f.a(r2c.o)
 .bss           0x00188fcc        0x0 ../../fftw-3.3.4/.libs//libfftw3f.a(r2r.o)
 .bss           0x00188fcc        0x0 ../../fftw-3.3.4/.libs//libfftw3f.a(genus.o)
 .bss           0x00188fcc        0x0 ../../fftw-3.3.4/.libs//libfftw3f.a(lt22-genus.o)
 .bss           0x00188fcc        0x0 ../../fftw-3.3.4/.libs//libfftw3f.a(dftw-direct.o)
 .bss           0x00188fcc        0x0 ../../fftw-3.3.4/.libs//libfftw3f.a(dftw-directsq.o)
 .bss           0x00188fcc        0x0 ../../fftw-3.3.4/.libs//libfftw3f.a(direct.o)
 .bss           0x00188fcc        0x0 ../../fftw-3.3.4/.libs//libfftw3f.a(ct-hc2c-direct.o)
 .bss           0x00188fcc        0x0 ../../fftw-3.3.4/.libs//libfftw3f.a(ct-hc2c.o)
 .bss           0x00188fcc        0x0 ../../fftw-3.3.4/.libs//libfftw3f.a(direct-r2c.o)
 .bss           0x00188fcc        0x0 ../../fftw-3.3.4/.libs//libfftw3f.a(direct-r2r.o)
 .bss           0x00188fcc        0x0 ../../fftw-3.3.4/.libs//libfftw3f.a(direct2.o)
 .bss           0x00188fcc        0x0 ../../fftw-3.3.4/.libs//libfftw3f.a(hc2hc-direct.o)
 .bss           0x00188fcc        0x0 ../../fftw-3.3.4/.libs//libfftw3f.a(ct.o)
 .bss           0x00188fcc        0x0 /opt/ti-sdk-am335x-evm-07.00.00.00/linux-devkit/sysroots/i686-arago-linux/usr/bin/../lib/gcc/arm-linux-gnueabihf/4.7.3/libgcc.a(_udivsi3.o)
 .bss           0x00188fcc        0x0 /opt/ti-sdk-am335x-evm-07.00.00.00/linux-devkit/sysroots/i686-arago-linux/usr/bin/../lib/gcc/arm-linux-gnueabihf/4.7.3/libgcc.a(_divsi3.o)
 .bss           0x00188fcc        0x0 /opt/ti-sdk-am335x-evm-07.00.00.00/linux-devkit/sysroots/i686-arago-linux/usr/bin/../lib/gcc/arm-linux-gnueabihf/4.7.3/libgcc.a(_arm_addsubdf3.o)
 .bss           0x00188fcc        0x0 /opt/ti-sdk-am335x-evm-07.00.00.00/linux-devkit/sysroots/i686-arago-linux/usr/bin/../lib/gcc/arm-linux-gnueabihf/4.7.3/libgcc.a(_dvmd_lnx.o)
 .bss           0x00188fcc        0x0 /opt/ti-sdk-am335x-evm-07.00.00.00/linux-devkit/sysroots/i686-arago-linux/usr/bin/../arm-linux-gnueabihf/libc/usr/lib/arm-linux-gnueabihf/4.7.3/./libc_nonshared.a(elf-init.oS)
 .bss           0x00188fcc        0x0 /opt/ti-sdk-am335x-evm-07.00.00.00/linux-devkit/sysroots/i686-arago-linux/usr/bin/../lib/gcc/arm-linux-gnueabihf/4.7.3/crtend.o
 .bss           0x00188fcc        0x0 /opt/ti-sdk-am335x-evm-07.00.00.00/linux-devkit/sysroots/i686-arago-linux/usr/bin/../arm-linux-gnueabihf/libc/usr/lib/arm-linux-gnueabihf/4.7.3/crtn.o
 *(COMMON)
                0x00188fcc                . = ALIGN ((. != 0x0)?0x4:0x1)
                0x00188fcc                _bss_end__ = .
                0x00188fcc                __bss_end__ = .
                0x00188fcc                . = ALIGN (0x4)
                0x00188fcc                . = ALIGN (0x4)
                0x00188fcc                __end__ = .
                0x00188fcc                _end = .
                0x00188fcc                PROVIDE (end, .)
                0x00188fcc                . = DATA_SEGMENT_END (.)

.stab
 *(.stab)

.stabstr
 *(.stabstr)

.stab.excl
 *(.stab.excl)

.stab.exclstr
 *(.stab.exclstr)

.stab.index
 *(.stab.index)

.stab.indexstr
 *(.stab.indexstr)

.comment        0x00000000       0x68
 *(.comment)
 .comment       0x00000000       0x68 release/main.o
                                 0x69 (size before relaxing)
 .comment       0x00000000       0x69 release/mongoose.o
 .comment       0x00000000       0x69 release/dt78xx_aio.o
 .comment       0x00000000       0x69 release/dt78xx_misc.o
 .comment       0x00000000       0x69 ../../fftw-3.3.4/.libs//libfftw3f.a(apiplan.o)
 .comment       0x00000000       0x69 ../../fftw-3.3.4/.libs//libfftw3f.a(execute.o)
 .comment       0x00000000       0x69 ../../fftw-3.3.4/.libs//libfftw3f.a(malloc.o)
 .comment       0x00000000       0x69 ../../fftw-3.3.4/.libs//libfftw3f.a(mapflags.o)
 .comment       0x00000000       0x69 ../../fftw-3.3.4/.libs//libfftw3f.a(plan-dft-r2c-1d.o)
 .comment       0x00000000       0x69 ../../fftw-3.3.4/.libs//libfftw3f.a(plan-dft-r2c.o)
 .comment       0x00000000       0x69 ../../fftw-3.3.4/.libs//libfftw3f.a(plan-many-dft-r2c.o)
 .comment       0x00000000       0x69 ../../fftw-3.3.4/.libs//libfftw3f.a(rdft2-pad.o)
 .comment       0x00000000       0x69 ../../fftw-3.3.4/.libs//libfftw3f.a(the-planner.o)
 .comment       0x00000000       0x69 ../../fftw-3.3.4/.libs//libfftw3f.a(alloc.o)
 .comment       0x00000000       0x69 ../../fftw-3.3.4/.libs//libfftw3f.a(assert.o)
 .comment       0x00000000       0x69 ../../fftw-3.3.4/.libs//libfftw3f.a(extract-reim.o)
 .comment       0x00000000       0x69 ../../fftw-3.3.4/.libs//libfftw3f.a(kalloc.o)
 .comment       0x00000000       0x69 ../../fftw-3.3.4/.libs//libfftw3f.a(plan.o)
 .comment       0x00000000       0x69 ../../fftw-3.3.4/.libs//libfftw3f.a(planner.o)
 .comment       0x00000000       0x69 ../../fftw-3.3.4/.libs//libfftw3f.a(primes.o)
 .comment       0x00000000       0x69 ../../fftw-3.3.4/.libs//libfftw3f.a(problem.o)
 .comment       0x00000000       0x69 ../../fftw-3.3.4/.libs//libfftw3f.a(solver.o)
 .comment       0x00000000       0x69 ../../fftw-3.3.4/.libs//libfftw3f.a(tensor1.o)
 .comment       0x00000000       0x69 ../../fftw-3.3.4/.libs//libfftw3f.a(timer.o)
 .comment       0x00000000       0x69 ../../fftw-3.3.4/.libs//libfftw3f.a(problem2.o)
 .comment       0x00000000       0x69 ../../fftw-3.3.4/.libs//libfftw3f.a(configure.o)
 .comment       0x00000000       0x69 ../../fftw-3.3.4/.libs//libfftw3f.a(mktensor-rowmajor.o)
 .comment       0x00000000       0x69 ../../fftw-3.3.4/.libs//libfftw3f.a(align.o)
 .comment       0x00000000       0x69 ../../fftw-3.3.4/.libs//libfftw3f.a(hash.o)
 .comment       0x00000000       0x69 ../../fftw-3.3.4/.libs//libfftw3f.a(md5-1.o)
 .comment       0x00000000       0x69 ../../fftw-3.3.4/.libs//libfftw3f.a(md5.o)
 .comment       0x00000000       0x69 ../../fftw-3.3.4/.libs//libfftw3f.a(ops.o)
 .comment       0x00000000       0x69 ../../fftw-3.3.4/.libs//libfftw3f.a(tensor.o)
 .comment       0x00000000       0x69 ../../fftw-3.3.4/.libs//libfftw3f.a(tensor5.o)
 .comment       0x00000000       0x69 ../../fftw-3.3.4/.libs//libfftw3f.a(tensor7.o)
 .comment       0x00000000       0x69 ../../fftw-3.3.4/.libs//libfftw3f.a(tensor8.o)
 .comment       0x00000000       0x69 ../../fftw-3.3.4/.libs//libfftw3f.a(conf.o)
 .comment       0x00000000       0x69 ../../fftw-3.3.4/.libs//libfftw3f.a(dftw-generic.o)
 .comment       0x00000000       0x69 ../../fftw-3.3.4/.libs//libfftw3f.a(dftw-genericbuf.o)
 .comment       0x00000000       0x69 ../../fftw-3.3.4/.libs//libfftw3f.a(generic.o)
 .comment       0x00000000       0x69 ../../fftw-3.3.4/.libs//libfftw3f.a(indirect-transpose.o)
 .comment       0x00000000       0x69 ../../fftw-3.3.4/.libs//libfftw3f.a(indirect.o)
 .comment       0x00000000       0x69 ../../fftw-3.3.4/.libs//libfftw3f.a(nop.o)
 .comment       0x00000000       0x69 ../../fftw-3.3.4/.libs//libfftw3f.a(lt3-plan.o)
 .comment       0x00000000       0x69 ../../fftw-3.3.4/.libs//libfftw3f.a(lt4-problem.o)
 .comment       0x00000000       0x69 ../../fftw-3.3.4/.libs//libfftw3f.a(lt5-rader.o)
 .comment       0x00000000       0x69 ../../fftw-3.3.4/.libs//libfftw3f.a(rank-geq2.o)
 .comment       0x00000000       0x69 ../../fftw-3.3.4/.libs//libfftw3f.a(solve.o)
 .comment       0x00000000       0x69 ../../fftw-3.3.4/.libs//libfftw3f.a(vrank-geq1.o)
 .comment       0x00000000       0x69 ../../fftw-3.3.4/.libs//libfftw3f.a(zero.o)
 .comment       0x00000000       0x69 ../../fftw-3.3.4/.libs//libfftw3f.a(codlist.o)
 .comment       0x00000000       0x69 ../../fftw-3.3.4/.libs//libfftw3f.a(n1_10.o)
 .comment       0x00000000       0x69 ../../fftw-3.3.4/.libs//libfftw3f.a(n1_11.o)
 .comment       0x00000000       0x69 ../../fftw-3.3.4/.libs//libfftw3f.a(n1_12.o)
 .comment       0x00000000       0x69 ../../fftw-3.3.4/.libs//libfftw3f.a(n1_13.o)
 .comment       0x00000000       0x69 ../../fftw-3.3.4/.libs//libfftw3f.a(n1_14.o)
 .comment       0x00000000       0x69 ../../fftw-3.3.4/.libs//libfftw3f.a(n1_15.o)
 .comment       0x00000000       0x69 ../../fftw-3.3.4/.libs//libfftw3f.a(n1_16.o)
 .comment       0x00000000       0x69 ../../fftw-3.3.4/.libs//libfftw3f.a(n1_2.o)
 .comment       0x00000000       0x69 ../../fftw-3.3.4/.libs//libfftw3f.a(n1_20.o)
 .comment       0x00000000       0x69 ../../fftw-3.3.4/.libs//libfftw3f.a(n1_25.o)
 .comment       0x00000000       0x69 ../../fftw-3.3.4/.libs//libfftw3f.a(n1_3.o)
 .comment       0x00000000       0x69 ../../fftw-3.3.4/.libs//libfftw3f.a(n1_32.o)
 .comment       0x00000000       0x69 ../../fftw-3.3.4/.libs//libfftw3f.a(n1_4.o)
 .comment       0x00000000       0x69 ../../fftw-3.3.4/.libs//libfftw3f.a(n1_5.o)
 .comment       0x00000000       0x69 ../../fftw-3.3.4/.libs//libfftw3f.a(n1_6.o)
 .comment       0x00000000       0x69 ../../fftw-3.3.4/.libs//libfftw3f.a(n1_64.o)
 .comment       0x00000000       0x69 ../../fftw-3.3.4/.libs//libfftw3f.a(n1_7.o)
 .comment       0x00000000       0x69 ../../fftw-3.3.4/.libs//libfftw3f.a(n1_8.o)
 .comment       0x00000000       0x69 ../../fftw-3.3.4/.libs//libfftw3f.a(n1_9.o)
 .comment       0x00000000       0x69 ../../fftw-3.3.4/.libs//libfftw3f.a(q1_2.o)
 .comment       0x00000000       0x69 ../../fftw-3.3.4/.libs//libfftw3f.a(q1_3.o)
 .comment       0x00000000       0x69 ../../fftw-3.3.4/.libs//libfftw3f.a(q1_4.o)
 .comment       0x00000000       0x69 ../../fftw-3.3.4/.libs//libfftw3f.a(q1_5.o)
 .comment       0x00000000       0x69 ../../fftw-3.3.4/.libs//libfftw3f.a(q1_6.o)
 .comment       0x00000000       0x69 ../../fftw-3.3.4/.libs//libfftw3f.a(q1_8.o)
 .comment       0x00000000       0x69 ../../fftw-3.3.4/.libs//libfftw3f.a(t1_10.o)
 .comment       0x00000000       0x69 ../../fftw-3.3.4/.libs//libfftw3f.a(t1_12.o)
 .comment       0x00000000       0x69 ../../fftw-3.3.4/.libs//libfftw3f.a(t1_15.o)
 .comment       0x00000000       0x69 ../../fftw-3.3.4/.libs//libfftw3f.a(t1_16.o)
 .comment       0x00000000       0x69 ../../fftw-3.3.4/.libs//libfftw3f.a(t1_2.o)
 .comment       0x00000000       0x69 ../../fftw-3.3.4/.libs//libfftw3f.a(t1_20.o)
 .comment       0x00000000       0x69 ../../fftw-3.3.4/.libs//libfftw3f.a(t1_25.o)
 .comment       0x00000000       0x69 ../../fftw-3.3.4/.libs//libfftw3f.a(t1_3.o)
 .comment       0x00000000       0x69 ../../fftw-3.3.4/.libs//libfftw3f.a(t1_32.o)
 .comment       0x00000000       0x69 ../../fftw-3.3.4/.libs//libfftw3f.a(t1_4.o)
 .comment       0x00000000       0x69 ../../fftw-3.3.4/.libs//libfftw3f.a(t1_5.o)
 .comment       0x00000000       0x69 ../../fftw-3.3.4/.libs//libfftw3f.a(t1_6.o)
 .comment       0x00000000       0x69 ../../fftw-3.3.4/.libs//libfftw3f.a(t1_64.o)
 .comment       0x00000000       0x69 ../../fftw-3.3.4/.libs//libfftw3f.a(t1_7.o)
 .comment       0x00000000       0x69 ../../fftw-3.3.4/.libs//libfftw3f.a(t1_8.o)
 .comment       0x00000000       0x69 ../../fftw-3.3.4/.libs//libfftw3f.a(t1_9.o)
 .comment       0x00000000       0x69 ../../fftw-3.3.4/.libs//libfftw3f.a(t2_10.o)
 .comment       0x00000000       0x69 ../../fftw-3.3.4/.libs//libfftw3f.a(t2_16.o)
 .comment       0x00000000       0x69 ../../fftw-3.3.4/.libs//libfftw3f.a(t2_20.o)
 .comment       0x00000000       0x69 ../../fftw-3.3.4/.libs//libfftw3f.a(t2_25.o)
 .comment       0x00000000       0x69 ../../fftw-3.3.4/.libs//libfftw3f.a(t2_32.o)
 .comment       0x00000000       0x69 ../../fftw-3.3.4/.libs//libfftw3f.a(t2_4.o)
 .comment       0x00000000       0x69 ../../fftw-3.3.4/.libs//libfftw3f.a(t2_5.o)
 .comment       0x00000000       0x69 ../../fftw-3.3.4/.libs//libfftw3f.a(t2_64.o)
 .comment       0x00000000       0x69 ../../fftw-3.3.4/.libs//libfftw3f.a(t2_8.o)
 .comment       0x00000000       0x69 ../../fftw-3.3.4/.libs//libfftw3f.a(lt7-conf.o)
 .comment       0x00000000       0x69 ../../fftw-3.3.4/.libs//libfftw3f.a(dft-r2hc.o)
 .comment       0x00000000       0x69 ../../fftw-3.3.4/.libs//libfftw3f.a(dht-r2hc.o)
 .comment       0x00000000       0x69 ../../fftw-3.3.4/.libs//libfftw3f.a(dht-rader.o)
 .comment       0x00000000       0x69 ../../fftw-3.3.4/.libs//libfftw3f.a(lt8-generic.o)
 .comment       0x00000000       0x69 ../../fftw-3.3.4/.libs//libfftw3f.a(hc2hc-generic.o)
 .comment       0x00000000       0x69 ../../fftw-3.3.4/.libs//libfftw3f.a(hc2hc.o)
 .comment       0x00000000       0x69 ../../fftw-3.3.4/.libs//libfftw3f.a(lt9-indirect.o)
 .comment       0x00000000       0x69 ../../fftw-3.3.4/.libs//libfftw3f.a(lt10-nop.o)
 .comment       0x00000000       0x69 ../../fftw-3.3.4/.libs//libfftw3f.a(nop2.o)
 .comment       0x00000000       0x69 ../../fftw-3.3.4/.libs//libfftw3f.a(lt11-plan.o)
 .comment       0x00000000       0x69 ../../fftw-3.3.4/.libs//libfftw3f.a(plan2.o)
 .comment       0x00000000       0x69 ../../fftw-3.3.4/.libs//libfftw3f.a(lt12-problem.o)
 .comment       0x00000000       0x69 ../../fftw-3.3.4/.libs//libfftw3f.a(rank-geq2-rdft2.o)
 .comment       0x00000000       0x69 ../../fftw-3.3.4/.libs//libfftw3f.a(lt13-rank-geq2.o)
 .comment       0x00000000       0x69 ../../fftw-3.3.4/.libs//libfftw3f.a(rank0-rdft2.o)
 .comment       0x00000000       0x69 ../../fftw-3.3.4/.libs//libfftw3f.a(rank0.o)
 .comment       0x00000000       0x69 ../../fftw-3.3.4/.libs//libfftw3f.a(rdft-dht.o)
 .comment       0x00000000       0x69 ../../fftw-3.3.4/.libs//libfftw3f.a(rdft2-inplace-strides.o)
 .comment       0x00000000       0x69 ../../fftw-3.3.4/.libs//libfftw3f.a(rdft2-rdft.o)
 .comment       0x00000000       0x69 ../../fftw-3.3.4/.libs//libfftw3f.a(rdft2-strides.o)
 .comment       0x00000000       0x69 ../../fftw-3.3.4/.libs//libfftw3f.a(rdft2-tensor-max-index.o)
 .comment       0x00000000       0x69 ../../fftw-3.3.4/.libs//libfftw3f.a(lt14-solve.o)
 .comment       0x00000000       0x69 ../../fftw-3.3.4/.libs//libfftw3f.a(solve2.o)
 .comment       0x00000000       0x69 ../../fftw-3.3.4/.libs//libfftw3f.a(vrank-geq1-rdft2.o)
 .comment       0x00000000       0x69 ../../fftw-3.3.4/.libs//libfftw3f.a(lt15-vrank-geq1.o)
 .comment       0x00000000       0x69 ../../fftw-3.3.4/.libs//libfftw3f.a(vrank3-transpose.o)
 .comment       0x00000000       0x69 ../../fftw-3.3.4/.libs//libfftw3f.a(lt16-codlist.o)
 .comment       0x00000000       0x69 ../../fftw-3.3.4/.libs//libfftw3f.a(hc2cf2_16.o)
 .comment       0x00000000       0x69 ../../fftw-3.3.4/.libs//libfftw3f.a(hc2cf2_20.o)
 .comment       0x00000000       0x69 ../../fftw-3.3.4/.libs//libfftw3f.a(hc2cf2_32.o)
 .comment       0x00000000       0x69 ../../fftw-3.3.4/.libs//libfftw3f.a(hc2cf2_4.o)
 .comment       0x00000000       0x69 ../../fftw-3.3.4/.libs//libfftw3f.a(hc2cf2_8.o)
 .comment       0x00000000       0x69 ../../fftw-3.3.4/.libs//libfftw3f.a(hc2cf_10.o)
 .comment       0x00000000       0x69 ../../fftw-3.3.4/.libs//libfftw3f.a(hc2cf_12.o)
 .comment       0x00000000       0x69 ../../fftw-3.3.4/.libs//libfftw3f.a(hc2cf_16.o)
 .comment       0x00000000       0x69 ../../fftw-3.3.4/.libs//libfftw3f.a(hc2cf_2.o)
 .comment       0x00000000       0x69 ../../fftw-3.3.4/.libs//libfftw3f.a(hc2cf_20.o)
 .comment       0x00000000       0x69 ../../fftw-3.3.4/.libs//libfftw3f.a(hc2cf_32.o)
 .comment       0x00000000       0x69 ../../fftw-3.3.4/.libs//libfftw3f.a(hc2cf_4.o)
 .comment       0x00000000       0x69 ../../fftw-3.3.4/.libs//libfftw3f.a(hc2cf_6.o)
 .comment       0x00000000       0x69 ../../fftw-3.3.4/.libs//libfftw3f.a(hc2cf_8.o)
 .comment       0x00000000       0x69 ../../fftw-3.3.4/.libs//libfftw3f.a(hc2cfdft2_16.o)
 .comment       0x00000000       0x69 ../../fftw-3.3.4/.libs//libfftw3f.a(hc2cfdft2_20.o)
 .comment       0x00000000       0x69 ../../fftw-3.3.4/.libs//libfftw3f.a(hc2cfdft2_32.o)
 .comment       0x00000000       0x69 ../../fftw-3.3.4/.libs//libfftw3f.a(hc2cfdft2_4.o)
 .comment       0x00000000       0x69 ../../fftw-3.3.4/.libs//libfftw3f.a(hc2cfdft2_8.o)
 .comment       0x00000000       0x69 ../../fftw-3.3.4/.libs//libfftw3f.a(hc2cfdft_10.o)
 .comment       0x00000000       0x69 ../../fftw-3.3.4/.libs//libfftw3f.a(hc2cfdft_12.o)
 .comment       0x00000000       0x69 ../../fftw-3.3.4/.libs//libfftw3f.a(hc2cfdft_16.o)
 .comment       0x00000000       0x69 ../../fftw-3.3.4/.libs//libfftw3f.a(hc2cfdft_2.o)
 .comment       0x00000000       0x69 ../../fftw-3.3.4/.libs//libfftw3f.a(hc2cfdft_20.o)
 .comment       0x00000000       0x69 ../../fftw-3.3.4/.libs//libfftw3f.a(hc2cfdft_32.o)
 .comment       0x00000000       0x69 ../../fftw-3.3.4/.libs//libfftw3f.a(hc2cfdft_4.o)
 .comment       0x00000000       0x69 ../../fftw-3.3.4/.libs//libfftw3f.a(hc2cfdft_6.o)
 .comment       0x00000000       0x69 ../../fftw-3.3.4/.libs//libfftw3f.a(hc2cfdft_8.o)
 .comment       0x00000000       0x69 ../../fftw-3.3.4/.libs//libfftw3f.a(hf2_16.o)
 .comment       0x00000000       0x69 ../../fftw-3.3.4/.libs//libfftw3f.a(hf2_20.o)
 .comment       0x00000000       0x69 ../../fftw-3.3.4/.libs//libfftw3f.a(hf2_25.o)
 .comment       0x00000000       0x69 ../../fftw-3.3.4/.libs//libfftw3f.a(hf2_32.o)
 .comment       0x00000000       0x69 ../../fftw-3.3.4/.libs//libfftw3f.a(hf2_4.o)
 .comment       0x00000000       0x69 ../../fftw-3.3.4/.libs//libfftw3f.a(hf2_5.o)
 .comment       0x00000000       0x69 ../../fftw-3.3.4/.libs//libfftw3f.a(hf2_8.o)
 .comment       0x00000000       0x69 ../../fftw-3.3.4/.libs//libfftw3f.a(hf_10.o)
 .comment       0x00000000       0x69 ../../fftw-3.3.4/.libs//libfftw3f.a(hf_12.o)
 .comment       0x00000000       0x69 ../../fftw-3.3.4/.libs//libfftw3f.a(hf_15.o)
 .comment       0x00000000       0x69 ../../fftw-3.3.4/.libs//libfftw3f.a(hf_16.o)
 .comment       0x00000000       0x69 ../../fftw-3.3.4/.libs//libfftw3f.a(hf_2.o)
 .comment       0x00000000       0x69 ../../fftw-3.3.4/.libs//libfftw3f.a(hf_20.o)
 .comment       0x00000000       0x69 ../../fftw-3.3.4/.libs//libfftw3f.a(hf_25.o)
 .comment       0x00000000       0x69 ../../fftw-3.3.4/.libs//libfftw3f.a(hf_3.o)
 .comment       0x00000000       0x69 ../../fftw-3.3.4/.libs//libfftw3f.a(hf_32.o)
 .comment       0x00000000       0x69 ../../fftw-3.3.4/.libs//libfftw3f.a(hf_4.o)
 .comment       0x00000000       0x69 ../../fftw-3.3.4/.libs//libfftw3f.a(hf_5.o)
 .comment       0x00000000       0x69 ../../fftw-3.3.4/.libs//libfftw3f.a(hf_6.o)
 .comment       0x00000000       0x69 ../../fftw-3.3.4/.libs//libfftw3f.a(hf_64.o)
 .comment       0x00000000       0x69 ../../fftw-3.3.4/.libs//libfftw3f.a(hf_7.o)
 .comment       0x00000000       0x69 ../../fftw-3.3.4/.libs//libfftw3f.a(hf_8.o)
 .comment       0x00000000       0x69 ../../fftw-3.3.4/.libs//libfftw3f.a(hf_9.o)
 .comment       0x00000000       0x69 ../../fftw-3.3.4/.libs//libfftw3f.a(r2cfII_10.o)
 .comment       0x00000000       0x69 ../../fftw-3.3.4/.libs//libfftw3f.a(r2cfII_12.o)
 .comment       0x00000000       0x69 ../../fftw-3.3.4/.libs//libfftw3f.a(r2cfII_15.o)
 .comment       0x00000000       0x69 ../../fftw-3.3.4/.libs//libfftw3f.a(r2cfII_16.o)
 .comment       0x00000000       0x69 ../../fftw-3.3.4/.libs//libfftw3f.a(r2cfII_2.o)
 .comment       0x00000000       0x69 ../../fftw-3.3.4/.libs//libfftw3f.a(r2cfII_20.o)
 .comment       0x00000000       0x69 ../../fftw-3.3.4/.libs//libfftw3f.a(r2cfII_25.o)
 .comment       0x00000000       0x69 ../../fftw-3.3.4/.libs//libfftw3f.a(r2cfII_3.o)
 .comment       0x00000000       0x69 ../../fftw-3.3.4/.libs//libfftw3f.a(r2cfII_32.o)
 .comment       0x00000000       0x69 ../../fftw-3.3.4/.libs//libfftw3f.a(r2cfII_4.o)
 .comment       0x00000000       0x69 ../../fftw-3.3.4/.libs//libfftw3f.a(r2cfII_5.o)
 .comment       0x00000000       0x69 ../../fftw-3.3.4/.libs//libfftw3f.a(r2cfII_6.o)
 .comment       0x00000000       0x69 ../../fftw-3.3.4/.libs//libfftw3f.a(r2cfII_64.o)
 .comment       0x00000000       0x69 ../../fftw-3.3.4/.libs//libfftw3f.a(r2cfII_7.o)
 .comment       0x00000000       0x69 ../../fftw-3.3.4/.libs//libfftw3f.a(r2cfII_8.o)
 .comment       0x00000000       0x69 ../../fftw-3.3.4/.libs//libfftw3f.a(r2cfII_9.o)
 .comment       0x00000000       0x69 ../../fftw-3.3.4/.libs//libfftw3f.a(r2cf_10.o)
 .comment       0x00000000       0x69 ../../fftw-3.3.4/.libs//libfftw3f.a(r2cf_11.o)
 .comment       0x00000000       0x69 ../../fftw-3.3.4/.libs//libfftw3f.a(r2cf_12.o)
 .comment       0x00000000       0x69 ../../fftw-3.3.4/.libs//libfftw3f.a(r2cf_128.o)
 .comment       0x00000000       0x69 ../../fftw-3.3.4/.libs//libfftw3f.a(r2cf_13.o)
 .comment       0x00000000       0x69 ../../fftw-3.3.4/.libs//libfftw3f.a(r2cf_14.o)
 .comment       0x00000000       0x69 ../../fftw-3.3.4/.libs//libfftw3f.a(r2cf_15.o)
 .comment       0x00000000       0x69 ../../fftw-3.3.4/.libs//libfftw3f.a(r2cf_16.o)
 .comment       0x00000000       0x69 ../../fftw-3.3.4/.libs//libfftw3f.a(r2cf_2.o)
 .comment       0x00000000       0x69 ../../fftw-3.3.4/.libs//libfftw3f.a(r2cf_20.o)
 .comment       0x00000000       0x69 ../../fftw-3.3.4/.libs//libfftw3f.a(r2cf_25.o)
 .comment       0x00000000       0x69 ../../fftw-3.3.4/.libs//libfftw3f.a(r2cf_3.o)
 .comment       0x00000000       0x69 ../../fftw-3.3.4/.libs//libfftw3f.a(r2cf_32.o)
 .comment       0x00000000       0x69 ../../fftw-3.3.4/.libs//libfftw3f.a(r2cf_4.o)
 .comment       0x00000000       0x69 ../../fftw-3.3.4/.libs//libfftw3f.a(r2cf_5.o)
 .comment       0x00000000       0x69 ../../fftw-3.3.4/.libs//libfftw3f.a(r2cf_6.o)
 .comment       0x00000000       0x69 ../../fftw-3.3.4/.libs//libfftw3f.a(r2cf_64.o)
 .comment       0x00000000       0x69 ../../fftw-3.3.4/.libs//libfftw3f.a(r2cf_7.o)
 .comment       0x00000000       0x69 ../../fftw-3.3.4/.libs//libfftw3f.a(r2cf_8.o)
 .comment       0x00000000       0x69 ../../fftw-3.3.4/.libs//libfftw3f.a(r2cf_9.o)
 .comment       0x00000000       0x69 ../../fftw-3.3.4/.libs//libfftw3f.a(lt17-codlist.o)
 .comment       0x00000000       0x69 ../../fftw-3.3.4/.libs//libfftw3f.a(hb2_16.o)
 .comment       0x00000000       0x69 ../../fftw-3.3.4/.libs//libfftw3f.a(hb2_20.o)
 .comment       0x00000000       0x69 ../../fftw-3.3.4/.libs//libfftw3f.a(hb2_25.o)
 .comment       0x00000000       0x69 ../../fftw-3.3.4/.libs//libfftw3f.a(hb2_32.o)
 .comment       0x00000000       0x69 ../../fftw-3.3.4/.libs//libfftw3f.a(hb2_4.o)
 .comment       0x00000000       0x69 ../../fftw-3.3.4/.libs//libfftw3f.a(hb2_5.o)
 .comment       0x00000000       0x69 ../../fftw-3.3.4/.libs//libfftw3f.a(hb2_8.o)
 .comment       0x00000000       0x69 ../../fftw-3.3.4/.libs//libfftw3f.a(hb_10.o)
 .comment       0x00000000       0x69 ../../fftw-3.3.4/.libs//libfftw3f.a(hb_12.o)
 .comment       0x00000000       0x69 ../../fftw-3.3.4/.libs//libfftw3f.a(hb_15.o)
 .comment       0x00000000       0x69 ../../fftw-3.3.4/.libs//libfftw3f.a(hb_16.o)
 .comment       0x00000000       0x69 ../../fftw-3.3.4/.libs//libfftw3f.a(hb_2.o)
 .comment       0x00000000       0x69 ../../fftw-3.3.4/.libs//libfftw3f.a(hb_20.o)
 .comment       0x00000000       0x69 ../../fftw-3.3.4/.libs//libfftw3f.a(hb_25.o)
 .comment       0x00000000       0x69 ../../fftw-3.3.4/.libs//libfftw3f.a(hb_3.o)
 .comment       0x00000000       0x69 ../../fftw-3.3.4/.libs//libfftw3f.a(hb_32.o)
 .comment       0x00000000       0x69 ../../fftw-3.3.4/.libs//libfftw3f.a(hb_4.o)
 .comment       0x00000000       0x69 ../../fftw-3.3.4/.libs//libfftw3f.a(hb_5.o)
 .comment       0x00000000       0x69 ../../fftw-3.3.4/.libs//libfftw3f.a(hb_6.o)
 .comment       0x00000000       0x69 ../../fftw-3.3.4/.libs//libfftw3f.a(hb_64.o)
 .comment       0x00000000       0x69 ../../fftw-3.3.4/.libs//libfftw3f.a(hb_7.o)
 .comment       0x00000000       0x69 ../../fftw-3.3.4/.libs//libfftw3f.a(hb_8.o)
 .comment       0x00000000       0x69 ../../fftw-3.3.4/.libs//libfftw3f.a(hb_9.o)
 .comment       0x00000000       0x69 ../../fftw-3.3.4/.libs//libfftw3f.a(hc2cb2_16.o)
 .comment       0x00000000       0x69 ../../fftw-3.3.4/.libs//libfftw3f.a(hc2cb2_20.o)
 .comment       0x00000000       0x69 ../../fftw-3.3.4/.libs//libfftw3f.a(hc2cb2_32.o)
 .comment       0x00000000       0x69 ../../fftw-3.3.4/.libs//libfftw3f.a(hc2cb2_4.o)
 .comment       0x00000000       0x69 ../../fftw-3.3.4/.libs//libfftw3f.a(hc2cb2_8.o)
 .comment       0x00000000       0x69 ../../fftw-3.3.4/.libs//libfftw3f.a(hc2cb_10.o)
 .comment       0x00000000       0x69 ../../fftw-3.3.4/.libs//libfftw3f.a(hc2cb_12.o)
 .comment       0x00000000       0x69 ../../fftw-3.3.4/.libs//libfftw3f.a(hc2cb_16.o)
 .comment       0x00000000       0x69 ../../fftw-3.3.4/.libs//libfftw3f.a(hc2cb_2.o)
 .comment       0x00000000       0x69 ../../fftw-3.3.4/.libs//libfftw3f.a(hc2cb_20.o)
 .comment       0x00000000       0x69 ../../fftw-3.3.4/.libs//libfftw3f.a(hc2cb_32.o)
 .comment       0x00000000       0x69 ../../fftw-3.3.4/.libs//libfftw3f.a(hc2cb_4.o)
 .comment       0x00000000       0x69 ../../fftw-3.3.4/.libs//libfftw3f.a(hc2cb_6.o)
 .comment       0x00000000       0x69 ../../fftw-3.3.4/.libs//libfftw3f.a(hc2cb_8.o)
 .comment       0x00000000       0x69 ../../fftw-3.3.4/.libs//libfftw3f.a(hc2cbdft2_16.o)
 .comment       0x00000000       0x69 ../../fftw-3.3.4/.libs//libfftw3f.a(hc2cbdft2_20.o)
 .comment       0x00000000       0x69 ../../fftw-3.3.4/.libs//libfftw3f.a(hc2cbdft2_32.o)
 .comment       0x00000000       0x69 ../../fftw-3.3.4/.libs//libfftw3f.a(hc2cbdft2_4.o)
 .comment       0x00000000       0x69 ../../fftw-3.3.4/.libs//libfftw3f.a(hc2cbdft2_8.o)
 .comment       0x00000000       0x69 ../../fftw-3.3.4/.libs//libfftw3f.a(hc2cbdft_10.o)
 .comment       0x00000000       0x69 ../../fftw-3.3.4/.libs//libfftw3f.a(hc2cbdft_12.o)
 .comment       0x00000000       0x69 ../../fftw-3.3.4/.libs//libfftw3f.a(hc2cbdft_16.o)
 .comment       0x00000000       0x69 ../../fftw-3.3.4/.libs//libfftw3f.a(hc2cbdft_2.o)
 .comment       0x00000000       0x69 ../../fftw-3.3.4/.libs//libfftw3f.a(hc2cbdft_20.o)
 .comment       0x00000000       0x69 ../../fftw-3.3.4/.libs//libfftw3f.a(hc2cbdft_32.o)
 .comment       0x00000000       0x69 ../../fftw-3.3.4/.libs//libfftw3f.a(hc2cbdft_4.o)
 .comment       0x00000000       0x69 ../../fftw-3.3.4/.libs//libfftw3f.a(hc2cbdft_6.o)
 .comment       0x00000000       0x69 ../../fftw-3.3.4/.libs//libfftw3f.a(hc2cbdft_8.o)
 .comment       0x00000000       0x69 ../../fftw-3.3.4/.libs//libfftw3f.a(r2cbIII_10.o)
 .comment       0x00000000       0x69 ../../fftw-3.3.4/.libs//libfftw3f.a(r2cbIII_12.o)
 .comment       0x00000000       0x69 ../../fftw-3.3.4/.libs//libfftw3f.a(r2cbIII_15.o)
 .comment       0x00000000       0x69 ../../fftw-3.3.4/.libs//libfftw3f.a(r2cbIII_16.o)
 .comment       0x00000000       0x69 ../../fftw-3.3.4/.libs//libfftw3f.a(r2cbIII_2.o)
 .comment       0x00000000       0x69 ../../fftw-3.3.4/.libs//libfftw3f.a(r2cbIII_20.o)
 .comment       0x00000000       0x69 ../../fftw-3.3.4/.libs//libfftw3f.a(r2cbIII_25.o)
 .comment       0x00000000       0x69 ../../fftw-3.3.4/.libs//libfftw3f.a(r2cbIII_3.o)
 .comment       0x00000000       0x69 ../../fftw-3.3.4/.libs//libfftw3f.a(r2cbIII_32.o)
 .comment       0x00000000       0x69 ../../fftw-3.3.4/.libs//libfftw3f.a(r2cbIII_4.o)
 .comment       0x00000000       0x69 ../../fftw-3.3.4/.libs//libfftw3f.a(r2cbIII_5.o)
 .comment       0x00000000       0x69 ../../fftw-3.3.4/.libs//libfftw3f.a(r2cbIII_6.o)
 .comment       0x00000000       0x69 ../../fftw-3.3.4/.libs//libfftw3f.a(r2cbIII_64.o)
 .comment       0x00000000       0x69 ../../fftw-3.3.4/.libs//libfftw3f.a(r2cbIII_7.o)
 .comment       0x00000000       0x69 ../../fftw-3.3.4/.libs//libfftw3f.a(r2cbIII_8.o)
 .comment       0x00000000       0x69 ../../fftw-3.3.4/.libs//libfftw3f.a(r2cbIII_9.o)
 .comment       0x00000000       0x69 ../../fftw-3.3.4/.libs//libfftw3f.a(r2cb_10.o)
 .comment       0x00000000       0x69 ../../fftw-3.3.4/.libs//libfftw3f.a(r2cb_11.o)
 .comment       0x00000000       0x69 ../../fftw-3.3.4/.libs//libfftw3f.a(r2cb_12.o)
 .comment       0x00000000       0x69 ../../fftw-3.3.4/.libs//libfftw3f.a(r2cb_128.o)
 .comment       0x00000000       0x69 ../../fftw-3.3.4/.libs//libfftw3f.a(r2cb_13.o)
 .comment       0x00000000       0x69 ../../fftw-3.3.4/.libs//libfftw3f.a(r2cb_14.o)
 .comment       0x00000000       0x69 ../../fftw-3.3.4/.libs//libfftw3f.a(r2cb_15.o)
 .comment       0x00000000       0x69 ../../fftw-3.3.4/.libs//libfftw3f.a(r2cb_16.o)
 .comment       0x00000000       0x69 ../../fftw-3.3.4/.libs//libfftw3f.a(r2cb_2.o)
 .comment       0x00000000       0x69 ../../fftw-3.3.4/.libs//libfftw3f.a(r2cb_20.o)
 .comment       0x00000000       0x69 ../../fftw-3.3.4/.libs//libfftw3f.a(r2cb_25.o)
 .comment       0x00000000       0x69 ../../fftw-3.3.4/.libs//libfftw3f.a(r2cb_3.o)
 .comment       0x00000000       0x69 ../../fftw-3.3.4/.libs//libfftw3f.a(r2cb_32.o)
 .comment       0x00000000       0x69 ../../fftw-3.3.4/.libs//libfftw3f.a(r2cb_4.o)
 .comment       0x00000000       0x69 ../../fftw-3.3.4/.libs//libfftw3f.a(r2cb_5.o)
 .comment       0x00000000       0x69 ../../fftw-3.3.4/.libs//libfftw3f.a(r2cb_6.o)
 .comment       0x00000000       0x69 ../../fftw-3.3.4/.libs//libfftw3f.a(r2cb_64.o)
 .comment       0x00000000       0x69 ../../fftw-3.3.4/.libs//libfftw3f.a(r2cb_7.o)
 .comment       0x00000000       0x69 ../../fftw-3.3.4/.libs//libfftw3f.a(r2cb_8.o)
 .comment       0x00000000       0x69 ../../fftw-3.3.4/.libs//libfftw3f.a(r2cb_9.o)
 .comment       0x00000000       0x69 ../../fftw-3.3.4/.libs//libfftw3f.a(lt18-codlist.o)
 .comment       0x00000000       0x69 ../../fftw-3.3.4/.libs//libfftw3f.a(e01_8.o)
 .comment       0x00000000       0x69 ../../fftw-3.3.4/.libs//libfftw3f.a(e10_8.o)
 .comment       0x00000000       0x69 ../../fftw-3.3.4/.libs//libfftw3f.a(lt19-conf.o)
 .comment       0x00000000       0x69 ../../fftw-3.3.4/.libs//libfftw3f.a(redft00e-r2hc-pad.o)
 .comment       0x00000000       0x69 ../../fftw-3.3.4/.libs//libfftw3f.a(reodft00e-splitradix.o)
 .comment       0x00000000       0x69 ../../fftw-3.3.4/.libs//libfftw3f.a(reodft010e-r2hc.o)
 .comment       0x00000000       0x69 ../../fftw-3.3.4/.libs//libfftw3f.a(reodft11e-r2hc-odd.o)
 .comment       0x00000000       0x69 ../../fftw-3.3.4/.libs//libfftw3f.a(reodft11e-radix2.o)
 .comment       0x00000000       0x69 ../../fftw-3.3.4/.libs//libfftw3f.a(rodft00e-r2hc-pad.o)
 .comment       0x00000000       0x69 ../../fftw-3.3.4/.libs//libfftw3f.a(neon.o)
 .comment       0x00000000       0x69 ../../fftw-3.3.4/.libs//libfftw3f.a(lt20-codlist.o)
 .comment       0x00000000       0x69 ../../fftw-3.3.4/.libs//libfftw3f.a(n1bv_10.o)
 .comment       0x00000000       0x69 ../../fftw-3.3.4/.libs//libfftw3f.a(n1bv_11.o)
 .comment       0x00000000       0x69 ../../fftw-3.3.4/.libs//libfftw3f.a(n1bv_12.o)
 .comment       0x00000000       0x69 ../../fftw-3.3.4/.libs//libfftw3f.a(n1bv_128.o)
 .comment       0x00000000       0x69 ../../fftw-3.3.4/.libs//libfftw3f.a(n1bv_13.o)
 .comment       0x00000000       0x69 ../../fftw-3.3.4/.libs//libfftw3f.a(n1bv_14.o)
 .comment       0x00000000       0x69 ../../fftw-3.3.4/.libs//libfftw3f.a(n1bv_15.o)
 .comment       0x00000000       0x69 ../../fftw-3.3.4/.libs//libfftw3f.a(n1bv_16.o)
 .comment       0x00000000       0x69 ../../fftw-3.3.4/.libs//libfftw3f.a(n1bv_2.o)
 .comment       0x00000000       0x69 ../../fftw-3.3.4/.libs//libfftw3f.a(n1bv_20.o)
 .comment       0x00000000       0x69 ../../fftw-3.3.4/.libs//libfftw3f.a(n1bv_25.o)
 .comment       0x00000000       0x69 ../../fftw-3.3.4/.libs//libfftw3f.a(n1bv_3.o)
 .comment       0x00000000       0x69 ../../fftw-3.3.4/.libs//libfftw3f.a(n1bv_32.o)
 .comment       0x00000000       0x69 ../../fftw-3.3.4/.libs//libfftw3f.a(n1bv_4.o)
 .comment       0x00000000       0x69 ../../fftw-3.3.4/.libs//libfftw3f.a(n1bv_5.o)
 .comment       0x00000000       0x69 ../../fftw-3.3.4/.libs//libfftw3f.a(n1bv_6.o)
 .comment       0x00000000       0x69 ../../fftw-3.3.4/.libs//libfftw3f.a(n1bv_64.o)
 .comment       0x00000000       0x69 ../../fftw-3.3.4/.libs//libfftw3f.a(n1bv_7.o)
 .comment       0x00000000       0x69 ../../fftw-3.3.4/.libs//libfftw3f.a(n1bv_8.o)
 .comment       0x00000000       0x69 ../../fftw-3.3.4/.libs//libfftw3f.a(n1bv_9.o)
 .comment       0x00000000       0x69 ../../fftw-3.3.4/.libs//libfftw3f.a(n1fv_10.o)
 .comment       0x00000000       0x69 ../../fftw-3.3.4/.libs//libfftw3f.a(n1fv_11.o)
 .comment       0x00000000       0x69 ../../fftw-3.3.4/.libs//libfftw3f.a(n1fv_12.o)
 .comment       0x00000000       0x69 ../../fftw-3.3.4/.libs//libfftw3f.a(n1fv_128.o)
 .comment       0x00000000       0x69 ../../fftw-3.3.4/.libs//libfftw3f.a(n1fv_13.o)
 .comment       0x00000000       0x69 ../../fftw-3.3.4/.libs//libfftw3f.a(n1fv_14.o)
 .comment       0x00000000       0x69 ../../fftw-3.3.4/.libs//libfftw3f.a(n1fv_15.o)
 .comment       0x00000000       0x69 ../../fftw-3.3.4/.libs//libfftw3f.a(n1fv_16.o)
 .comment       0x00000000       0x69 ../../fftw-3.3.4/.libs//libfftw3f.a(n1fv_2.o)
 .comment       0x00000000       0x69 ../../fftw-3.3.4/.libs//libfftw3f.a(n1fv_20.o)
 .comment       0x00000000       0x69 ../../fftw-3.3.4/.libs//libfftw3f.a(n1fv_25.o)
 .comment       0x00000000       0x69 ../../fftw-3.3.4/.libs//libfftw3f.a(n1fv_3.o)
 .comment       0x00000000       0x69 ../../fftw-3.3.4/.libs//libfftw3f.a(n1fv_32.o)
 .comment       0x00000000       0x69 ../../fftw-3.3.4/.libs//libfftw3f.a(n1fv_4.o)
 .comment       0x00000000       0x69 ../../fftw-3.3.4/.libs//libfftw3f.a(n1fv_5.o)
 .comment       0x00000000       0x69 ../../fftw-3.3.4/.libs//libfftw3f.a(n1fv_6.o)
 .comment       0x00000000       0x69 ../../fftw-3.3.4/.libs//libfftw3f.a(n1fv_64.o)
 .comment       0x00000000       0x69 ../../fftw-3.3.4/.libs//libfftw3f.a(n1fv_7.o)
 .comment       0x00000000       0x69 ../../fftw-3.3.4/.libs//libfftw3f.a(n1fv_8.o)
 .comment       0x00000000       0x69 ../../fftw-3.3.4/.libs//libfftw3f.a(n1fv_9.o)
 .comment       0x00000000       0x69 ../../fftw-3.3.4/.libs//libfftw3f.a(n2bv_10.o)
 .comment       0x00000000       0x69 ../../fftw-3.3.4/.libs//libfftw3f.a(n2bv_12.o)
 .comment       0x00000000       0x69 ../../fftw-3.3.4/.libs//libfftw3f.a(n2bv_14.o)
 .comment       0x00000000       0x69 ../../fftw-3.3.4/.libs//libfftw3f.a(n2bv_16.o)
 .comment       0x00000000       0x69 ../../fftw-3.3.4/.libs//libfftw3f.a(n2bv_2.o)
 .comment       0x00000000       0x69 ../../fftw-3.3.4/.libs//libfftw3f.a(n2bv_20.o)
 .comment       0x00000000       0x69 ../../fftw-3.3.4/.libs//libfftw3f.a(n2bv_32.o)
 .comment       0x00000000       0x69 ../../fftw-3.3.4/.libs//libfftw3f.a(n2bv_4.o)
 .comment       0x00000000       0x69 ../../fftw-3.3.4/.libs//libfftw3f.a(n2bv_6.o)
 .comment       0x00000000       0x69 ../../fftw-3.3.4/.libs//libfftw3f.a(n2bv_64.o)
 .comment       0x00000000       0x69 ../../fftw-3.3.4/.libs//libfftw3f.a(n2bv_8.o)
 .comment       0x00000000       0x69 ../../fftw-3.3.4/.libs//libfftw3f.a(n2fv_10.o)
 .comment       0x00000000       0x69 ../../fftw-3.3.4/.libs//libfftw3f.a(n2fv_12.o)
 .comment       0x00000000       0x69 ../../fftw-3.3.4/.libs//libfftw3f.a(n2fv_14.o)
 .comment       0x00000000       0x69 ../../fftw-3.3.4/.libs//libfftw3f.a(n2fv_16.o)
 .comment       0x00000000       0x69 ../../fftw-3.3.4/.libs//libfftw3f.a(n2fv_2.o)
 .comment       0x00000000       0x69 ../../fftw-3.3.4/.libs//libfftw3f.a(n2fv_20.o)
 .comment       0x00000000       0x69 ../../fftw-3.3.4/.libs//libfftw3f.a(n2fv_32.o)
 .comment       0x00000000       0x69 ../../fftw-3.3.4/.libs//libfftw3f.a(n2fv_4.o)
 .comment       0x00000000       0x69 ../../fftw-3.3.4/.libs//libfftw3f.a(n2fv_6.o)
 .comment       0x00000000       0x69 ../../fftw-3.3.4/.libs//libfftw3f.a(n2fv_64.o)
 .comment       0x00000000       0x69 ../../fftw-3.3.4/.libs//libfftw3f.a(n2fv_8.o)
 .comment       0x00000000       0x69 ../../fftw-3.3.4/.libs//libfftw3f.a(n2sv_16.o)
 .comment       0x00000000       0x69 ../../fftw-3.3.4/.libs//libfftw3f.a(n2sv_32.o)
 .comment       0x00000000       0x69 ../../fftw-3.3.4/.libs//libfftw3f.a(n2sv_4.o)
 .comment       0x00000000       0x69 ../../fftw-3.3.4/.libs//libfftw3f.a(n2sv_64.o)
 .comment       0x00000000       0x69 ../../fftw-3.3.4/.libs//libfftw3f.a(n2sv_8.o)
 .comment       0x00000000       0x69 ../../fftw-3.3.4/.libs//libfftw3f.a(q1bv_2.o)
 .comment       0x00000000       0x69 ../../fftw-3.3.4/.libs//libfftw3f.a(q1bv_4.o)
 .comment       0x00000000       0x69 ../../fftw-3.3.4/.libs//libfftw3f.a(q1bv_5.o)
 .comment       0x00000000       0x69 ../../fftw-3.3.4/.libs//libfftw3f.a(q1bv_8.o)
 .comment       0x00000000       0x69 ../../fftw-3.3.4/.libs//libfftw3f.a(q1fv_2.o)
 .comment       0x00000000       0x69 ../../fftw-3.3.4/.libs//libfftw3f.a(q1fv_4.o)
 .comment       0x00000000       0x69 ../../fftw-3.3.4/.libs//libfftw3f.a(q1fv_5.o)
 .comment       0x00000000       0x69 ../../fftw-3.3.4/.libs//libfftw3f.a(q1fv_8.o)
 .comment       0x00000000       0x69 ../../fftw-3.3.4/.libs//libfftw3f.a(t1buv_10.o)
 .comment       0x00000000       0x69 ../../fftw-3.3.4/.libs//libfftw3f.a(t1buv_2.o)
 .comment       0x00000000       0x69 ../../fftw-3.3.4/.libs//libfftw3f.a(t1buv_3.o)
 .comment       0x00000000       0x69 ../../fftw-3.3.4/.libs//libfftw3f.a(t1buv_4.o)
 .comment       0x00000000       0x69 ../../fftw-3.3.4/.libs//libfftw3f.a(t1buv_5.o)
 .comment       0x00000000       0x69 ../../fftw-3.3.4/.libs//libfftw3f.a(t1buv_6.o)
 .comment       0x00000000       0x69 ../../fftw-3.3.4/.libs//libfftw3f.a(t1buv_7.o)
 .comment       0x00000000       0x69 ../../fftw-3.3.4/.libs//libfftw3f.a(t1buv_8.o)
 .comment       0x00000000       0x69 ../../fftw-3.3.4/.libs//libfftw3f.a(t1buv_9.o)
 .comment       0x00000000       0x69 ../../fftw-3.3.4/.libs//libfftw3f.a(t1bv_10.o)
 .comment       0x00000000       0x69 ../../fftw-3.3.4/.libs//libfftw3f.a(t1bv_12.o)
 .comment       0x00000000       0x69 ../../fftw-3.3.4/.libs//libfftw3f.a(t1bv_15.o)
 .comment       0x00000000       0x69 ../../fftw-3.3.4/.libs//libfftw3f.a(t1bv_16.o)
 .comment       0x00000000       0x69 ../../fftw-3.3.4/.libs//libfftw3f.a(t1bv_2.o)
 .comment       0x00000000       0x69 ../../fftw-3.3.4/.libs//libfftw3f.a(t1bv_20.o)
 .comment       0x00000000       0x69 ../../fftw-3.3.4/.libs//libfftw3f.a(t1bv_25.o)
 .comment       0x00000000       0x69 ../../fftw-3.3.4/.libs//libfftw3f.a(t1bv_3.o)
 .comment       0x00000000       0x69 ../../fftw-3.3.4/.libs//libfftw3f.a(t1bv_32.o)
 .comment       0x00000000       0x69 ../../fftw-3.3.4/.libs//libfftw3f.a(t1bv_4.o)
 .comment       0x00000000       0x69 ../../fftw-3.3.4/.libs//libfftw3f.a(t1bv_5.o)
 .comment       0x00000000       0x69 ../../fftw-3.3.4/.libs//libfftw3f.a(t1bv_6.o)
 .comment       0x00000000       0x69 ../../fftw-3.3.4/.libs//libfftw3f.a(t1bv_64.o)
 .comment       0x00000000       0x69 ../../fftw-3.3.4/.libs//libfftw3f.a(t1bv_7.o)
 .comment       0x00000000       0x69 ../../fftw-3.3.4/.libs//libfftw3f.a(t1bv_8.o)
 .comment       0x00000000       0x69 ../../fftw-3.3.4/.libs//libfftw3f.a(t1bv_9.o)
 .comment       0x00000000       0x69 ../../fftw-3.3.4/.libs//libfftw3f.a(t1fuv_10.o)
 .comment       0x00000000       0x69 ../../fftw-3.3.4/.libs//libfftw3f.a(t1fuv_2.o)
 .comment       0x00000000       0x69 ../../fftw-3.3.4/.libs//libfftw3f.a(t1fuv_3.o)
 .comment       0x00000000       0x69 ../../fftw-3.3.4/.libs//libfftw3f.a(t1fuv_4.o)
 .comment       0x00000000       0x69 ../../fftw-3.3.4/.libs//libfftw3f.a(t1fuv_5.o)
 .comment       0x00000000       0x69 ../../fftw-3.3.4/.libs//libfftw3f.a(t1fuv_6.o)
 .comment       0x00000000       0x69 ../../fftw-3.3.4/.libs//libfftw3f.a(t1fuv_7.o)
 .comment       0x00000000       0x69 ../../fftw-3.3.4/.libs//libfftw3f.a(t1fuv_8.o)
 .comment       0x00000000       0x69 ../../fftw-3.3.4/.libs//libfftw3f.a(t1fuv_9.o)
 .comment       0x00000000       0x69 ../../fftw-3.3.4/.libs//libfftw3f.a(t1fv_10.o)
 .comment       0x00000000       0x69 ../../fftw-3.3.4/.libs//libfftw3f.a(t1fv_12.o)
 .comment       0x00000000       0x69 ../../fftw-3.3.4/.libs//libfftw3f.a(t1fv_15.o)
 .comment       0x00000000       0x69 ../../fftw-3.3.4/.libs//libfftw3f.a(t1fv_16.o)
 .comment       0x00000000       0x69 ../../fftw-3.3.4/.libs//libfftw3f.a(t1fv_2.o)
 .comment       0x00000000       0x69 ../../fftw-3.3.4/.libs//libfftw3f.a(t1fv_20.o)
 .comment       0x00000000       0x69 ../../fftw-3.3.4/.libs//libfftw3f.a(t1fv_25.o)
 .comment       0x00000000       0x69 ../../fftw-3.3.4/.libs//libfftw3f.a(t1fv_3.o)
 .comment       0x00000000       0x69 ../../fftw-3.3.4/.libs//libfftw3f.a(t1fv_32.o)
 .comment       0x00000000       0x69 ../../fftw-3.3.4/.libs//libfftw3f.a(t1fv_4.o)
 .comment       0x00000000       0x69 ../../fftw-3.3.4/.libs//libfftw3f.a(t1fv_5.o)
 .comment       0x00000000       0x69 ../../fftw-3.3.4/.libs//libfftw3f.a(t1fv_6.o)
 .comment       0x00000000       0x69 ../../fftw-3.3.4/.libs//libfftw3f.a(t1fv_64.o)
 .comment       0x00000000       0x69 ../../fftw-3.3.4/.libs//libfftw3f.a(t1fv_7.o)
 .comment       0x00000000       0x69 ../../fftw-3.3.4/.libs//libfftw3f.a(t1fv_8.o)
 .comment       0x00000000       0x69 ../../fftw-3.3.4/.libs//libfftw3f.a(t1fv_9.o)
 .comment       0x00000000       0x69 ../../fftw-3.3.4/.libs//libfftw3f.a(t1sv_16.o)
 .comment       0x00000000       0x69 ../../fftw-3.3.4/.libs//libfftw3f.a(t1sv_2.o)
 .comment       0x00000000       0x69 ../../fftw-3.3.4/.libs//libfftw3f.a(t1sv_32.o)
 .comment       0x00000000       0x69 ../../fftw-3.3.4/.libs//libfftw3f.a(t1sv_4.o)
 .comment       0x00000000       0x69 ../../fftw-3.3.4/.libs//libfftw3f.a(t1sv_8.o)
 .comment       0x00000000       0x69 ../../fftw-3.3.4/.libs//libfftw3f.a(t2bv_10.o)
 .comment       0x00000000       0x69 ../../fftw-3.3.4/.libs//libfftw3f.a(t2bv_16.o)
 .comment       0x00000000       0x69 ../../fftw-3.3.4/.libs//libfftw3f.a(t2bv_2.o)
 .comment       0x00000000       0x69 ../../fftw-3.3.4/.libs//libfftw3f.a(t2bv_20.o)
 .comment       0x00000000       0x69 ../../fftw-3.3.4/.libs//libfftw3f.a(t2bv_25.o)
 .comment       0x00000000       0x69 ../../fftw-3.3.4/.libs//libfftw3f.a(t2bv_32.o)
 .comment       0x00000000       0x69 ../../fftw-3.3.4/.libs//libfftw3f.a(t2bv_4.o)
 .comment       0x00000000       0x69 ../../fftw-3.3.4/.libs//libfftw3f.a(t2bv_5.o)
 .comment       0x00000000       0x69 ../../fftw-3.3.4/.libs//libfftw3f.a(t2bv_64.o)
 .comment       0x00000000       0x69 ../../fftw-3.3.4/.libs//libfftw3f.a(t2bv_8.o)
 .comment       0x00000000       0x69 ../../fftw-3.3.4/.libs//libfftw3f.a(t2fv_10.o)
 .comment       0x00000000       0x69 ../../fftw-3.3.4/.libs//libfftw3f.a(t2fv_16.o)
 .comment       0x00000000       0x69 ../../fftw-3.3.4/.libs//libfftw3f.a(t2fv_2.o)
 .comment       0x00000000       0x69 ../../fftw-3.3.4/.libs//libfftw3f.a(t2fv_20.o)
 .comment       0x00000000       0x69 ../../fftw-3.3.4/.libs//libfftw3f.a(t2fv_25.o)
 .comment       0x00000000       0x69 ../../fftw-3.3.4/.libs//libfftw3f.a(t2fv_32.o)
 .comment       0x00000000       0x69 ../../fftw-3.3.4/.libs//libfftw3f.a(t2fv_4.o)
 .comment       0x00000000       0x69 ../../fftw-3.3.4/.libs//libfftw3f.a(t2fv_5.o)
 .comment       0x00000000       0x69 ../../fftw-3.3.4/.libs//libfftw3f.a(t2fv_64.o)
 .comment       0x00000000       0x69 ../../fftw-3.3.4/.libs//libfftw3f.a(t2fv_8.o)
 .comment       0x00000000       0x69 ../../fftw-3.3.4/.libs//libfftw3f.a(t2sv_16.o)
 .comment       0x00000000       0x69 ../../fftw-3.3.4/.libs//libfftw3f.a(t2sv_32.o)
 .comment       0x00000000       0x69 ../../fftw-3.3.4/.libs//libfftw3f.a(t2sv_4.o)
 .comment       0x00000000       0x69 ../../fftw-3.3.4/.libs//libfftw3f.a(t2sv_8.o)
 .comment       0x00000000       0x69 ../../fftw-3.3.4/.libs//libfftw3f.a(t3bv_10.o)
 .comment       0x00000000       0x69 ../../fftw-3.3.4/.libs//libfftw3f.a(t3bv_16.o)
 .comment       0x00000000       0x69 ../../fftw-3.3.4/.libs//libfftw3f.a(t3bv_20.o)
 .comment       0x00000000       0x69 ../../fftw-3.3.4/.libs//libfftw3f.a(t3bv_25.o)
 .comment       0x00000000       0x69 ../../fftw-3.3.4/.libs//libfftw3f.a(t3bv_32.o)
 .comment       0x00000000       0x69 ../../fftw-3.3.4/.libs//libfftw3f.a(t3bv_4.o)
 .comment       0x00000000       0x69 ../../fftw-3.3.4/.libs//libfftw3f.a(t3bv_5.o)
 .comment       0x00000000       0x69 ../../fftw-3.3.4/.libs//libfftw3f.a(t3bv_8.o)
 .comment       0x00000000       0x69 ../../fftw-3.3.4/.libs//libfftw3f.a(t3fv_10.o)
 .comment       0x00000000       0x69 ../../fftw-3.3.4/.libs//libfftw3f.a(t3fv_16.o)
 .comment       0x00000000       0x69 ../../fftw-3.3.4/.libs//libfftw3f.a(t3fv_20.o)
 .comment       0x00000000       0x69 ../../fftw-3.3.4/.libs//libfftw3f.a(t3fv_25.o)
 .comment       0x00000000       0x69 ../../fftw-3.3.4/.libs//libfftw3f.a(t3fv_32.o)
 .comment       0x00000000       0x69 ../../fftw-3.3.4/.libs//libfftw3f.a(t3fv_4.o)
 .comment       0x00000000       0x69 ../../fftw-3.3.4/.libs//libfftw3f.a(t3fv_5.o)
 .comment       0x00000000       0x69 ../../fftw-3.3.4/.libs//libfftw3f.a(t3fv_8.o)
 .comment       0x00000000       0x69 ../../fftw-3.3.4/.libs//libfftw3f.a(lt21-codlist.o)
 .comment       0x00000000       0x69 ../../fftw-3.3.4/.libs//libfftw3f.a(hc2cbdftv_10.o)
 .comment       0x00000000       0x69 ../../fftw-3.3.4/.libs//libfftw3f.a(hc2cbdftv_12.o)
 .comment       0x00000000       0x69 ../../fftw-3.3.4/.libs//libfftw3f.a(hc2cbdftv_16.o)
 .comment       0x00000000       0x69 ../../fftw-3.3.4/.libs//libfftw3f.a(hc2cbdftv_2.o)
 .comment       0x00000000       0x69 ../../fftw-3.3.4/.libs//libfftw3f.a(hc2cbdftv_20.o)
 .comment       0x00000000       0x69 ../../fftw-3.3.4/.libs//libfftw3f.a(hc2cbdftv_32.o)
 .comment       0x00000000       0x69 ../../fftw-3.3.4/.libs//libfftw3f.a(hc2cbdftv_4.o)
 .comment       0x00000000       0x69 ../../fftw-3.3.4/.libs//libfftw3f.a(hc2cbdftv_6.o)
 .comment       0x00000000       0x69 ../../fftw-3.3.4/.libs//libfftw3f.a(hc2cbdftv_8.o)
 .comment       0x00000000       0x69 ../../fftw-3.3.4/.libs//libfftw3f.a(hc2cfdftv_10.o)
 .comment       0x00000000       0x69 ../../fftw-3.3.4/.libs//libfftw3f.a(hc2cfdftv_12.o)
 .comment       0x00000000       0x69 ../../fftw-3.3.4/.libs//libfftw3f.a(hc2cfdftv_16.o)
 .comment       0x00000000       0x69 ../../fftw-3.3.4/.libs//libfftw3f.a(hc2cfdftv_2.o)
 .comment       0x00000000       0x69 ../../fftw-3.3.4/.libs//libfftw3f.a(hc2cfdftv_20.o)
 .comment       0x00000000       0x69 ../../fftw-3.3.4/.libs//libfftw3f.a(hc2cfdftv_32.o)
 .comment       0x00000000       0x69 ../../fftw-3.3.4/.libs//libfftw3f.a(hc2cfdftv_4.o)
 .comment       0x00000000       0x69 ../../fftw-3.3.4/.libs//libfftw3f.a(hc2cfdftv_6.o)
 .comment       0x00000000       0x69 ../../fftw-3.3.4/.libs//libfftw3f.a(hc2cfdftv_8.o)
 .comment       0x00000000       0x69 ../../fftw-3.3.4/.libs//libfftw3f.a(awake.o)
 .comment       0x00000000       0x69 ../../fftw-3.3.4/.libs//libfftw3f.a(buffered.o)
 .comment       0x00000000       0x69 ../../fftw-3.3.4/.libs//libfftw3f.a(cpy1d.o)
 .comment       0x00000000       0x69 ../../fftw-3.3.4/.libs//libfftw3f.a(cpy2d-pair.o)
 .comment       0x00000000       0x69 ../../fftw-3.3.4/.libs//libfftw3f.a(cpy2d.o)
 .comment       0x00000000       0x69 ../../fftw-3.3.4/.libs//libfftw3f.a(iabs.o)
 .comment       0x00000000       0x69 ../../fftw-3.3.4/.libs//libfftw3f.a(minmax.o)
 .comment       0x00000000       0x69 ../../fftw-3.3.4/.libs//libfftw3f.a(pickdim.o)
 .comment       0x00000000       0x69 ../../fftw-3.3.4/.libs//libfftw3f.a(rader.o)
 .comment       0x00000000       0x69 ../../fftw-3.3.4/.libs//libfftw3f.a(solvtab.o)
 .comment       0x00000000       0x69 ../../fftw-3.3.4/.libs//libfftw3f.a(stride.o)
 .comment       0x00000000       0x69 ../../fftw-3.3.4/.libs//libfftw3f.a(tensor2.o)
 .comment       0x00000000       0x69 ../../fftw-3.3.4/.libs//libfftw3f.a(tensor4.o)
 .comment       0x00000000       0x69 ../../fftw-3.3.4/.libs//libfftw3f.a(tile2d.o)
 .comment       0x00000000       0x69 ../../fftw-3.3.4/.libs//libfftw3f.a(transpose.o)
 .comment       0x00000000       0x69 ../../fftw-3.3.4/.libs//libfftw3f.a(trig.o)
 .comment       0x00000000       0x69 ../../fftw-3.3.4/.libs//libfftw3f.a(twiddle.o)
 .comment       0x00000000       0x69 ../../fftw-3.3.4/.libs//libfftw3f.a(bluestein.o)
 .comment       0x00000000       0x69 ../../fftw-3.3.4/.libs//libfftw3f.a(lt1-buffered.o)
 .comment       0x00000000       0x69 ../../fftw-3.3.4/.libs//libfftw3f.a(lt2-ct.o)
 .comment       0x00000000       0x69 ../../fftw-3.3.4/.libs//libfftw3f.a(kdft-difsq.o)
 .comment       0x00000000       0x69 ../../fftw-3.3.4/.libs//libfftw3f.a(kdft-dit.o)
 .comment       0x00000000       0x69 ../../fftw-3.3.4/.libs//libfftw3f.a(kdft.o)
 .comment       0x00000000       0x69 ../../fftw-3.3.4/.libs//libfftw3f.a(n.o)
 .comment       0x00000000       0x69 ../../fftw-3.3.4/.libs//libfftw3f.a(t.o)
 .comment       0x00000000       0x69 ../../fftw-3.3.4/.libs//libfftw3f.a(lt6-buffered.o)
 .comment       0x00000000       0x69 ../../fftw-3.3.4/.libs//libfftw3f.a(buffered2.o)
 .comment       0x00000000       0x69 ../../fftw-3.3.4/.libs//libfftw3f.a(khc2c.o)
 .comment       0x00000000       0x69 ../../fftw-3.3.4/.libs//libfftw3f.a(khc2hc.o)
 .comment       0x00000000       0x69 ../../fftw-3.3.4/.libs//libfftw3f.a(kr2c.o)
 .comment       0x00000000       0x69 ../../fftw-3.3.4/.libs//libfftw3f.a(kr2r.o)
 .comment       0x00000000       0x69 ../../fftw-3.3.4/.libs//libfftw3f.a(hc2c.o)
 .comment       0x00000000       0x69 ../../fftw-3.3.4/.libs//libfftw3f.a(hfb.o)
 .comment       0x00000000       0x69 ../../fftw-3.3.4/.libs//libfftw3f.a(r2c.o)
 .comment       0x00000000       0x69 ../../fftw-3.3.4/.libs//libfftw3f.a(r2r.o)
 .comment       0x00000000       0x69 ../../fftw-3.3.4/.libs//libfftw3f.a(genus.o)
 .comment       0x00000000       0x69 ../../fftw-3.3.4/.libs//libfftw3f.a(lt22-genus.o)
 .comment       0x00000000       0x69 ../../fftw-3.3.4/.libs//libfftw3f.a(dftw-direct.o)
 .comment       0x00000000       0x69 ../../fftw-3.3.4/.libs//libfftw3f.a(dftw-directsq.o)
 .comment       0x00000000       0x69 ../../fftw-3.3.4/.libs//libfftw3f.a(direct.o)
 .comment       0x00000000       0x69 ../../fftw-3.3.4/.libs//libfftw3f.a(ct-hc2c-direct.o)
 .comment       0x00000000       0x69 ../../fftw-3.3.4/.libs//libfftw3f.a(ct-hc2c.o)
 .comment       0x00000000       0x69 ../../fftw-3.3.4/.libs//libfftw3f.a(direct-r2c.o)
 .comment       0x00000000       0x69 ../../fftw-3.3.4/.libs//libfftw3f.a(direct-r2r.o)
 .comment       0x00000000       0x69 ../../fftw-3.3.4/.libs//libfftw3f.a(direct2.o)
 .comment       0x00000000       0x69 ../../fftw-3.3.4/.libs//libfftw3f.a(hc2hc-direct.o)
 .comment       0x00000000       0x69 ../../fftw-3.3.4/.libs//libfftw3f.a(ct.o)

.ARM.attributes
                0x00000000       0x37
 .ARM.attributes
                0x00000000       0x35 /opt/ti-sdk-am335x-evm-07.00.00.00/linux-devkit/sysroots/i686-arago-linux/usr/bin/../arm-linux-gnueabihf/libc/usr/lib/arm-linux-gnueabihf/4.7.3/crt1.o
 .ARM.attributes
                0x00000035       0x37 /opt/ti-sdk-am335x-evm-07.00.00.00/linux-devkit/sysroots/i686-arago-linux/usr/bin/../arm-linux-gnueabihf/libc/usr/lib/arm-linux-gnueabihf/4.7.3/crti.o
 .ARM.attributes
                0x0000006c       0x35 /opt/ti-sdk-am335x-evm-07.00.00.00/linux-devkit/sysroots/i686-arago-linux/usr/bin/../lib/gcc/arm-linux-gnueabihf/4.7.3/crtbegin.o
 .ARM.attributes
                0x000000a1       0x37 release/main.o
 .ARM.attributes
                0x000000d8       0x37 release/mongoose.o
 .ARM.attributes
                0x0000010f       0x37 release/dt78xx_aio.o
 .ARM.attributes
                0x00000146       0x37 release/dt78xx_misc.o
 .ARM.attributes
                0x0000017d       0x37 ../../fftw-3.3.4/.libs//libfftw3f.a(apiplan.o)
 .ARM.attributes
                0x000001b4       0x37 ../../fftw-3.3.4/.libs//libfftw3f.a(execute.o)
 .ARM.attributes
                0x000001eb       0x37 ../../fftw-3.3.4/.libs//libfftw3f.a(malloc.o)
 .ARM.attributes
                0x00000222       0x37 ../../fftw-3.3.4/.libs//libfftw3f.a(mapflags.o)
 .ARM.attributes
                0x00000259       0x37 ../../fftw-3.3.4/.libs//libfftw3f.a(plan-dft-r2c-1d.o)
 .ARM.attributes
                0x00000290       0x37 ../../fftw-3.3.4/.libs//libfftw3f.a(plan-dft-r2c.o)
 .ARM.attributes
                0x000002c7       0x37 ../../fftw-3.3.4/.libs//libfftw3f.a(plan-many-dft-r2c.o)
 .ARM.attributes
                0x000002fe       0x37 ../../fftw-3.3.4/.libs//libfftw3f.a(rdft2-pad.o)
 .ARM.attributes
                0x00000335       0x37 ../../fftw-3.3.4/.libs//libfftw3f.a(the-planner.o)
 .ARM.attributes
                0x0000036c       0x37 ../../fftw-3.3.4/.libs//libfftw3f.a(alloc.o)
 .ARM.attributes
                0x000003a3       0x37 ../../fftw-3.3.4/.libs//libfftw3f.a(assert.o)
 .ARM.attributes
                0x000003da       0x37 ../../fftw-3.3.4/.libs//libfftw3f.a(extract-reim.o)
 .ARM.attributes
                0x00000411       0x37 ../../fftw-3.3.4/.libs//libfftw3f.a(kalloc.o)
 .ARM.attributes
                0x00000448       0x37 ../../fftw-3.3.4/.libs//libfftw3f.a(plan.o)
 .ARM.attributes
                0x0000047f       0x37 ../../fftw-3.3.4/.libs//libfftw3f.a(planner.o)
 .ARM.attributes
                0x000004b6       0x37 ../../fftw-3.3.4/.libs//libfftw3f.a(primes.o)
 .ARM.attributes
                0x000004ed       0x37 ../../fftw-3.3.4/.libs//libfftw3f.a(problem.o)
 .ARM.attributes
                0x00000524       0x37 ../../fftw-3.3.4/.libs//libfftw3f.a(solver.o)
 .ARM.attributes
                0x0000055b       0x37 ../../fftw-3.3.4/.libs//libfftw3f.a(tensor1.o)
 .ARM.attributes
                0x00000592       0x37 ../../fftw-3.3.4/.libs//libfftw3f.a(timer.o)
 .ARM.attributes
                0x000005c9       0x37 ../../fftw-3.3.4/.libs//libfftw3f.a(problem2.o)
 .ARM.attributes
                0x00000600       0x37 ../../fftw-3.3.4/.libs//libfftw3f.a(configure.o)
 .ARM.attributes
                0x00000637       0x37 ../../fftw-3.3.4/.libs//libfftw3f.a(mktensor-rowmajor.o)
 .ARM.attributes
                0x0000066e       0x37 ../../fftw-3.3.4/.libs//libfftw3f.a(align.o)
 .ARM.attributes
                0x000006a5       0x37 ../../fftw-3.3.4/.libs//libfftw3f.a(hash.o)
 .ARM.attributes
                0x000006dc       0x37 ../../fftw-3.3.4/.libs//libfftw3f.a(md5-1.o)
 .ARM.attributes
                0x00000713       0x37 ../../fftw-3.3.4/.libs//libfftw3f.a(md5.o)
 .ARM.attributes
                0x0000074a       0x37 ../../fftw-3.3.4/.libs//libfftw3f.a(ops.o)
 .ARM.attributes
                0x00000781       0x37 ../../fftw-3.3.4/.libs//libfftw3f.a(tensor.o)
 .ARM.attributes
                0x000007b8       0x37 ../../fftw-3.3.4/.libs//libfftw3f.a(tensor5.o)
 .ARM.attributes
                0x000007ef       0x37 ../../fftw-3.3.4/.libs//libfftw3f.a(tensor7.o)
 .ARM.attributes
                0x00000826       0x37 ../../fftw-3.3.4/.libs//libfftw3f.a(tensor8.o)
 .ARM.attributes
                0x0000085d       0x37 ../../fftw-3.3.4/.libs//libfftw3f.a(conf.o)
 .ARM.attributes
                0x00000894       0x37 ../../fftw-3.3.4/.libs//libfftw3f.a(dftw-generic.o)
 .ARM.attributes
                0x000008cb       0x37 ../../fftw-3.3.4/.libs//libfftw3f.a(dftw-genericbuf.o)
 .ARM.attributes
                0x00000902       0x37 ../../fftw-3.3.4/.libs//libfftw3f.a(generic.o)
 .ARM.attributes
                0x00000939       0x37 ../../fftw-3.3.4/.libs//libfftw3f.a(indirect-transpose.o)
 .ARM.attributes
                0x00000970       0x37 ../../fftw-3.3.4/.libs//libfftw3f.a(indirect.o)
 .ARM.attributes
                0x000009a7       0x37 ../../fftw-3.3.4/.libs//libfftw3f.a(nop.o)
 .ARM.attributes
                0x000009de       0x37 ../../fftw-3.3.4/.libs//libfftw3f.a(lt3-plan.o)
 .ARM.attributes
                0x00000a15       0x37 ../../fftw-3.3.4/.libs//libfftw3f.a(lt4-problem.o)
 .ARM.attributes
                0x00000a4c       0x37 ../../fftw-3.3.4/.libs//libfftw3f.a(lt5-rader.o)
 .ARM.attributes
                0x00000a83       0x37 ../../fftw-3.3.4/.libs//libfftw3f.a(rank-geq2.o)
 .ARM.attributes
                0x00000aba       0x37 ../../fftw-3.3.4/.libs//libfftw3f.a(solve.o)
 .ARM.attributes
                0x00000af1       0x37 ../../fftw-3.3.4/.libs//libfftw3f.a(vrank-geq1.o)
 .ARM.attributes
                0x00000b28       0x37 ../../fftw-3.3.4/.libs//libfftw3f.a(zero.o)
 .ARM.attributes
                0x00000b5f       0x37 ../../fftw-3.3.4/.libs//libfftw3f.a(codlist.o)
 .ARM.attributes
                0x00000b96       0x37 ../../fftw-3.3.4/.libs//libfftw3f.a(n1_10.o)
 .ARM.attributes
                0x00000bcd       0x37 ../../fftw-3.3.4/.libs//libfftw3f.a(n1_11.o)
 .ARM.attributes
                0x00000c04       0x37 ../../fftw-3.3.4/.libs//libfftw3f.a(n1_12.o)
 .ARM.attributes
                0x00000c3b       0x37 ../../fftw-3.3.4/.libs//libfftw3f.a(n1_13.o)
 .ARM.attributes
                0x00000c72       0x37 ../../fftw-3.3.4/.libs//libfftw3f.a(n1_14.o)
 .ARM.attributes
                0x00000ca9       0x37 ../../fftw-3.3.4/.libs//libfftw3f.a(n1_15.o)
 .ARM.attributes
                0x00000ce0       0x37 ../../fftw-3.3.4/.libs//libfftw3f.a(n1_16.o)
 .ARM.attributes
                0x00000d17       0x37 ../../fftw-3.3.4/.libs//libfftw3f.a(n1_2.o)
 .ARM.attributes
                0x00000d4e       0x37 ../../fftw-3.3.4/.libs//libfftw3f.a(n1_20.o)
 .ARM.attributes
                0x00000d85       0x37 ../../fftw-3.3.4/.libs//libfftw3f.a(n1_25.o)
 .ARM.attributes
                0x00000dbc       0x37 ../../fftw-3.3.4/.libs//libfftw3f.a(n1_3.o)
 .ARM.attributes
                0x00000df3       0x37 ../../fftw-3.3.4/.libs//libfftw3f.a(n1_32.o)
 .ARM.attributes
                0x00000e2a       0x37 ../../fftw-3.3.4/.libs//libfftw3f.a(n1_4.o)
 .ARM.attributes
                0x00000e61       0x37 ../../fftw-3.3.4/.libs//libfftw3f.a(n1_5.o)
 .ARM.attributes
                0x00000e98       0x37 ../../fftw-3.3.4/.libs//libfftw3f.a(n1_6.o)
 .ARM.attributes
                0x00000ecf       0x37 ../../fftw-3.3.4/.libs//libfftw3f.a(n1_64.o)
 .ARM.attributes
                0x00000f06       0x37 ../../fftw-3.3.4/.libs//libfftw3f.a(n1_7.o)
 .ARM.attributes
                0x00000f3d       0x37 ../../fftw-3.3.4/.libs//libfftw3f.a(n1_8.o)
 .ARM.attributes
                0x00000f74       0x37 ../../fftw-3.3.4/.libs//libfftw3f.a(n1_9.o)
 .ARM.attributes
                0x00000fab       0x37 ../../fftw-3.3.4/.libs//libfftw3f.a(q1_2.o)
 .ARM.attributes
                0x00000fe2       0x37 ../../fftw-3.3.4/.libs//libfftw3f.a(q1_3.o)
 .ARM.attributes
                0x00001019       0x37 ../../fftw-3.3.4/.libs//libfftw3f.a(q1_4.o)
 .ARM.attributes
                0x00001050       0x37 ../../fftw-3.3.4/.libs//libfftw3f.a(q1_5.o)
 .ARM.attributes
                0x00001087       0x37 ../../fftw-3.3.4/.libs//libfftw3f.a(q1_6.o)
 .ARM.attributes
                0x000010be       0x37 ../../fftw-3.3.4/.libs//libfftw3f.a(q1_8.o)
 .ARM.attributes
                0x000010f5       0x37 ../../fftw-3.3.4/.libs//libfftw3f.a(t1_10.o)
 .ARM.attributes
                0x0000112c       0x37 ../../fftw-3.3.4/.libs//libfftw3f.a(t1_12.o)
 .ARM.attributes
                0x00001163       0x37 ../../fftw-3.3.4/.libs//libfftw3f.a(t1_15.o)
 .ARM.attributes
                0x0000119a       0x37 ../../fftw-3.3.4/.libs//libfftw3f.a(t1_16.o)
 .ARM.attributes
                0x000011d1       0x37 ../../fftw-3.3.4/.libs//libfftw3f.a(t1_2.o)
 .ARM.attributes
                0x00001208       0x37 ../../fftw-3.3.4/.libs//libfftw3f.a(t1_20.o)
 .ARM.attributes
                0x0000123f       0x37 ../../fftw-3.3.4/.libs//libfftw3f.a(t1_25.o)
 .ARM.attributes
                0x00001276       0x37 ../../fftw-3.3.4/.libs//libfftw3f.a(t1_3.o)
 .ARM.attributes
                0x000012ad       0x37 ../../fftw-3.3.4/.libs//libfftw3f.a(t1_32.o)
 .ARM.attributes
                0x000012e4       0x37 ../../fftw-3.3.4/.libs//libfftw3f.a(t1_4.o)
 .ARM.attributes
                0x0000131b       0x37 ../../fftw-3.3.4/.libs//libfftw3f.a(t1_5.o)
 .ARM.attributes
                0x00001352       0x37 ../../fftw-3.3.4/.libs//libfftw3f.a(t1_6.o)
 .ARM.attributes
                0x00001389       0x37 ../../fftw-3.3.4/.libs//libfftw3f.a(t1_64.o)
 .ARM.attributes
                0x000013c0       0x37 ../../fftw-3.3.4/.libs//libfftw3f.a(t1_7.o)
 .ARM.attributes
                0x000013f7       0x37 ../../fftw-3.3.4/.libs//libfftw3f.a(t1_8.o)
 .ARM.attributes
                0x0000142e       0x37 ../../fftw-3.3.4/.libs//libfftw3f.a(t1_9.o)
 .ARM.attributes
                0x00001465       0x37 ../../fftw-3.3.4/.libs//libfftw3f.a(t2_10.o)
 .ARM.attributes
                0x0000149c       0x37 ../../fftw-3.3.4/.libs//libfftw3f.a(t2_16.o)
 .ARM.attributes
                0x000014d3       0x37 ../../fftw-3.3.4/.libs//libfftw3f.a(t2_20.o)
 .ARM.attributes
                0x0000150a       0x37 ../../fftw-3.3.4/.libs//libfftw3f.a(t2_25.o)
 .ARM.attributes
                0x00001541       0x37 ../../fftw-3.3.4/.libs//libfftw3f.a(t2_32.o)
 .ARM.attributes
                0x00001578       0x37 ../../fftw-3.3.4/.libs//libfftw3f.a(t2_4.o)
 .ARM.attributes
                0x000015af       0x37 ../../fftw-3.3.4/.libs//libfftw3f.a(t2_5.o)
 .ARM.attributes
                0x000015e6       0x37 ../../fftw-3.3.4/.libs//libfftw3f.a(t2_64.o)
 .ARM.attributes
                0x0000161d       0x37 ../../fftw-3.3.4/.libs//libfftw3f.a(t2_8.o)
 .ARM.attributes
                0x00001654       0x37 ../../fftw-3.3.4/.libs//libfftw3f.a(lt7-conf.o)
 .ARM.attributes
                0x0000168b       0x37 ../../fftw-3.3.4/.libs//libfftw3f.a(dft-r2hc.o)
 .ARM.attributes
                0x000016c2       0x37 ../../fftw-3.3.4/.libs//libfftw3f.a(dht-r2hc.o)
 .ARM.attributes
                0x000016f9       0x37 ../../fftw-3.3.4/.libs//libfftw3f.a(dht-rader.o)
 .ARM.attributes
                0x00001730       0x37 ../../fftw-3.3.4/.libs//libfftw3f.a(lt8-generic.o)
 .ARM.attributes
                0x00001767       0x37 ../../fftw-3.3.4/.libs//libfftw3f.a(hc2hc-generic.o)
 .ARM.attributes
                0x0000179e       0x37 ../../fftw-3.3.4/.libs//libfftw3f.a(hc2hc.o)
 .ARM.attributes
                0x000017d5       0x37 ../../fftw-3.3.4/.libs//libfftw3f.a(lt9-indirect.o)
 .ARM.attributes
                0x0000180c       0x37 ../../fftw-3.3.4/.libs//libfftw3f.a(lt10-nop.o)
 .ARM.attributes
                0x00001843       0x37 ../../fftw-3.3.4/.libs//libfftw3f.a(nop2.o)
 .ARM.attributes
                0x0000187a       0x37 ../../fftw-3.3.4/.libs//libfftw3f.a(lt11-plan.o)
 .ARM.attributes
                0x000018b1       0x37 ../../fftw-3.3.4/.libs//libfftw3f.a(plan2.o)
 .ARM.attributes
                0x000018e8       0x37 ../../fftw-3.3.4/.libs//libfftw3f.a(lt12-problem.o)
 .ARM.attributes
                0x0000191f       0x37 ../../fftw-3.3.4/.libs//libfftw3f.a(rank-geq2-rdft2.o)
 .ARM.attributes
                0x00001956       0x37 ../../fftw-3.3.4/.libs//libfftw3f.a(lt13-rank-geq2.o)
 .ARM.attributes
                0x0000198d       0x37 ../../fftw-3.3.4/.libs//libfftw3f.a(rank0-rdft2.o)
 .ARM.attributes
                0x000019c4       0x37 ../../fftw-3.3.4/.libs//libfftw3f.a(rank0.o)
 .ARM.attributes
                0x000019fb       0x37 ../../fftw-3.3.4/.libs//libfftw3f.a(rdft-dht.o)
 .ARM.attributes
                0x00001a32       0x37 ../../fftw-3.3.4/.libs//libfftw3f.a(rdft2-inplace-strides.o)
 .ARM.attributes
                0x00001a69       0x37 ../../fftw-3.3.4/.libs//libfftw3f.a(rdft2-rdft.o)
 .ARM.attributes
                0x00001aa0       0x37 ../../fftw-3.3.4/.libs//libfftw3f.a(rdft2-strides.o)
 .ARM.attributes
                0x00001ad7       0x37 ../../fftw-3.3.4/.libs//libfftw3f.a(rdft2-tensor-max-index.o)
 .ARM.attributes
                0x00001b0e       0x37 ../../fftw-3.3.4/.libs//libfftw3f.a(lt14-solve.o)
 .ARM.attributes
                0x00001b45       0x37 ../../fftw-3.3.4/.libs//libfftw3f.a(solve2.o)
 .ARM.attributes
                0x00001b7c       0x37 ../../fftw-3.3.4/.libs//libfftw3f.a(vrank-geq1-rdft2.o)
 .ARM.attributes
                0x00001bb3       0x37 ../../fftw-3.3.4/.libs//libfftw3f.a(lt15-vrank-geq1.o)
 .ARM.attributes
                0x00001bea       0x37 ../../fftw-3.3.4/.libs//libfftw3f.a(vrank3-transpose.o)
 .ARM.attributes
                0x00001c21       0x37 ../../fftw-3.3.4/.libs//libfftw3f.a(lt16-codlist.o)
 .ARM.attributes
                0x00001c58       0x37 ../../fftw-3.3.4/.libs//libfftw3f.a(hc2cf2_16.o)
 .ARM.attributes
                0x00001c8f       0x37 ../../fftw-3.3.4/.libs//libfftw3f.a(hc2cf2_20.o)
 .ARM.attributes
                0x00001cc6       0x37 ../../fftw-3.3.4/.libs//libfftw3f.a(hc2cf2_32.o)
 .ARM.attributes
                0x00001cfd       0x37 ../../fftw-3.3.4/.libs//libfftw3f.a(hc2cf2_4.o)
 .ARM.attributes
                0x00001d34       0x37 ../../fftw-3.3.4/.libs//libfftw3f.a(hc2cf2_8.o)
 .ARM.attributes
                0x00001d6b       0x37 ../../fftw-3.3.4/.libs//libfftw3f.a(hc2cf_10.o)
 .ARM.attributes
                0x00001da2       0x37 ../../fftw-3.3.4/.libs//libfftw3f.a(hc2cf_12.o)
 .ARM.attributes
                0x00001dd9       0x37 ../../fftw-3.3.4/.libs//libfftw3f.a(hc2cf_16.o)
 .ARM.attributes
                0x00001e10       0x37 ../../fftw-3.3.4/.libs//libfftw3f.a(hc2cf_2.o)
 .ARM.attributes
                0x00001e47       0x37 ../../fftw-3.3.4/.libs//libfftw3f.a(hc2cf_20.o)
 .ARM.attributes
                0x00001e7e       0x37 ../../fftw-3.3.4/.libs//libfftw3f.a(hc2cf_32.o)
 .ARM.attributes
                0x00001eb5       0x37 ../../fftw-3.3.4/.libs//libfftw3f.a(hc2cf_4.o)
 .ARM.attributes
                0x00001eec       0x37 ../../fftw-3.3.4/.libs//libfftw3f.a(hc2cf_6.o)
 .ARM.attributes
                0x00001f23       0x37 ../../fftw-3.3.4/.libs//libfftw3f.a(hc2cf_8.o)
 .ARM.attributes
                0x00001f5a       0x37 ../../fftw-3.3.4/.libs//libfftw3f.a(hc2cfdft2_16.o)
 .ARM.attributes
                0x00001f91       0x37 ../../fftw-3.3.4/.libs//libfftw3f.a(hc2cfdft2_20.o)
 .ARM.attributes
                0x00001fc8       0x37 ../../fftw-3.3.4/.libs//libfftw3f.a(hc2cfdft2_32.o)
 .ARM.attributes
                0x00001fff       0x37 ../../fftw-3.3.4/.libs//libfftw3f.a(hc2cfdft2_4.o)
 .ARM.attributes
                0x00002036       0x37 ../../fftw-3.3.4/.libs//libfftw3f.a(hc2cfdft2_8.o)
 .ARM.attributes
                0x0000206d       0x37 ../../fftw-3.3.4/.libs//libfftw3f.a(hc2cfdft_10.o)
 .ARM.attributes
                0x000020a4       0x37 ../../fftw-3.3.4/.libs//libfftw3f.a(hc2cfdft_12.o)
 .ARM.attributes
                0x000020db       0x37 ../../fftw-3.3.4/.libs//libfftw3f.a(hc2cfdft_16.o)
 .ARM.attributes
                0x00002112       0x37 ../../fftw-3.3.4/.libs//libfftw3f.a(hc2cfdft_2.o)
 .ARM.attributes
                0x00002149       0x37 ../../fftw-3.3.4/.libs//libfftw3f.a(hc2cfdft_20.o)
 .ARM.attributes
                0x00002180       0x37 ../../fftw-3.3.4/.libs//libfftw3f.a(hc2cfdft_32.o)
 .ARM.attributes
                0x000021b7       0x37 ../../fftw-3.3.4/.libs//libfftw3f.a(hc2cfdft_4.o)
 .ARM.attributes
                0x000021ee       0x37 ../../fftw-3.3.4/.libs//libfftw3f.a(hc2cfdft_6.o)
 .ARM.attributes
                0x00002225       0x37 ../../fftw-3.3.4/.libs//libfftw3f.a(hc2cfdft_8.o)
 .ARM.attributes
                0x0000225c       0x37 ../../fftw-3.3.4/.libs//libfftw3f.a(hf2_16.o)
 .ARM.attributes
                0x00002293       0x37 ../../fftw-3.3.4/.libs//libfftw3f.a(hf2_20.o)
 .ARM.attributes
                0x000022ca       0x37 ../../fftw-3.3.4/.libs//libfftw3f.a(hf2_25.o)
 .ARM.attributes
                0x00002301       0x37 ../../fftw-3.3.4/.libs//libfftw3f.a(hf2_32.o)
 .ARM.attributes
                0x00002338       0x37 ../../fftw-3.3.4/.libs//libfftw3f.a(hf2_4.o)
 .ARM.attributes
                0x0000236f       0x37 ../../fftw-3.3.4/.libs//libfftw3f.a(hf2_5.o)
 .ARM.attributes
                0x000023a6       0x37 ../../fftw-3.3.4/.libs//libfftw3f.a(hf2_8.o)
 .ARM.attributes
                0x000023dd       0x37 ../../fftw-3.3.4/.libs//libfftw3f.a(hf_10.o)
 .ARM.attributes
                0x00002414       0x37 ../../fftw-3.3.4/.libs//libfftw3f.a(hf_12.o)
 .ARM.attributes
                0x0000244b       0x37 ../../fftw-3.3.4/.libs//libfftw3f.a(hf_15.o)
 .ARM.attributes
                0x00002482       0x37 ../../fftw-3.3.4/.libs//libfftw3f.a(hf_16.o)
 .ARM.attributes
                0x000024b9       0x37 ../../fftw-3.3.4/.libs//libfftw3f.a(hf_2.o)
 .ARM.attributes
                0x000024f0       0x37 ../../fftw-3.3.4/.libs//libfftw3f.a(hf_20.o)
 .ARM.attributes
                0x00002527       0x37 ../../fftw-3.3.4/.libs//libfftw3f.a(hf_25.o)
 .ARM.attributes
                0x0000255e       0x37 ../../fftw-3.3.4/.libs//libfftw3f.a(hf_3.o)
 .ARM.attributes
                0x00002595       0x37 ../../fftw-3.3.4/.libs//libfftw3f.a(hf_32.o)
 .ARM.attributes
                0x000025cc       0x37 ../../fftw-3.3.4/.libs//libfftw3f.a(hf_4.o)
 .ARM.attributes
                0x00002603       0x37 ../../fftw-3.3.4/.libs//libfftw3f.a(hf_5.o)
 .ARM.attributes
                0x0000263a       0x37 ../../fftw-3.3.4/.libs//libfftw3f.a(hf_6.o)
 .ARM.attributes
                0x00002671       0x37 ../../fftw-3.3.4/.libs//libfftw3f.a(hf_64.o)
 .ARM.attributes
                0x000026a8       0x37 ../../fftw-3.3.4/.libs//libfftw3f.a(hf_7.o)
 .ARM.attributes
                0x000026df       0x37 ../../fftw-3.3.4/.libs//libfftw3f.a(hf_8.o)
 .ARM.attributes
                0x00002716       0x37 ../../fftw-3.3.4/.libs//libfftw3f.a(hf_9.o)
 .ARM.attributes
                0x0000274d       0x37 ../../fftw-3.3.4/.libs//libfftw3f.a(r2cfII_10.o)
 .ARM.attributes
                0x00002784       0x37 ../../fftw-3.3.4/.libs//libfftw3f.a(r2cfII_12.o)
 .ARM.attributes
                0x000027bb       0x37 ../../fftw-3.3.4/.libs//libfftw3f.a(r2cfII_15.o)
 .ARM.attributes
                0x000027f2       0x37 ../../fftw-3.3.4/.libs//libfftw3f.a(r2cfII_16.o)
 .ARM.attributes
                0x00002829       0x37 ../../fftw-3.3.4/.libs//libfftw3f.a(r2cfII_2.o)
 .ARM.attributes
                0x00002860       0x37 ../../fftw-3.3.4/.libs//libfftw3f.a(r2cfII_20.o)
 .ARM.attributes
                0x00002897       0x37 ../../fftw-3.3.4/.libs//libfftw3f.a(r2cfII_25.o)
 .ARM.attributes
                0x000028ce       0x37 ../../fftw-3.3.4/.libs//libfftw3f.a(r2cfII_3.o)
 .ARM.attributes
                0x00002905       0x37 ../../fftw-3.3.4/.libs//libfftw3f.a(r2cfII_32.o)
 .ARM.attributes
                0x0000293c       0x37 ../../fftw-3.3.4/.libs//libfftw3f.a(r2cfII_4.o)
 .ARM.attributes
                0x00002973       0x37 ../../fftw-3.3.4/.libs//libfftw3f.a(r2cfII_5.o)
 .ARM.attributes
                0x000029aa       0x37 ../../fftw-3.3.4/.libs//libfftw3f.a(r2cfII_6.o)
 .ARM.attributes
                0x000029e1       0x37 ../../fftw-3.3.4/.libs//libfftw3f.a(r2cfII_64.o)
 .ARM.attributes
                0x00002a18       0x37 ../../fftw-3.3.4/.libs//libfftw3f.a(r2cfII_7.o)
 .ARM.attributes
                0x00002a4f       0x37 ../../fftw-3.3.4/.libs//libfftw3f.a(r2cfII_8.o)
 .ARM.attributes
                0x00002a86       0x37 ../../fftw-3.3.4/.libs//libfftw3f.a(r2cfII_9.o)
 .ARM.attributes
                0x00002abd       0x37 ../../fftw-3.3.4/.libs//libfftw3f.a(r2cf_10.o)
 .ARM.attributes
                0x00002af4       0x37 ../../fftw-3.3.4/.libs//libfftw3f.a(r2cf_11.o)
 .ARM.attributes
                0x00002b2b       0x37 ../../fftw-3.3.4/.libs//libfftw3f.a(r2cf_12.o)
 .ARM.attributes
                0x00002b62       0x37 ../../fftw-3.3.4/.libs//libfftw3f.a(r2cf_128.o)
 .ARM.attributes
                0x00002b99       0x37 ../../fftw-3.3.4/.libs//libfftw3f.a(r2cf_13.o)
 .ARM.attributes
                0x00002bd0       0x37 ../../fftw-3.3.4/.libs//libfftw3f.a(r2cf_14.o)
 .ARM.attributes
                0x00002c07       0x37 ../../fftw-3.3.4/.libs//libfftw3f.a(r2cf_15.o)
 .ARM.attributes
                0x00002c3e       0x37 ../../fftw-3.3.4/.libs//libfftw3f.a(r2cf_16.o)
 .ARM.attributes
                0x00002c75       0x37 ../../fftw-3.3.4/.libs//libfftw3f.a(r2cf_2.o)
 .ARM.attributes
                0x00002cac       0x37 ../../fftw-3.3.4/.libs//libfftw3f.a(r2cf_20.o)
 .ARM.attributes
                0x00002ce3       0x37 ../../fftw-3.3.4/.libs//libfftw3f.a(r2cf_25.o)
 .ARM.attributes
                0x00002d1a       0x37 ../../fftw-3.3.4/.libs//libfftw3f.a(r2cf_3.o)
 .ARM.attributes
                0x00002d51       0x37 ../../fftw-3.3.4/.libs//libfftw3f.a(r2cf_32.o)
 .ARM.attributes
                0x00002d88       0x37 ../../fftw-3.3.4/.libs//libfftw3f.a(r2cf_4.o)
 .ARM.attributes
                0x00002dbf       0x37 ../../fftw-3.3.4/.libs//libfftw3f.a(r2cf_5.o)
 .ARM.attributes
                0x00002df6       0x37 ../../fftw-3.3.4/.libs//libfftw3f.a(r2cf_6.o)
 .ARM.attributes
                0x00002e2d       0x37 ../../fftw-3.3.4/.libs//libfftw3f.a(r2cf_64.o)
 .ARM.attributes
                0x00002e64       0x37 ../../fftw-3.3.4/.libs//libfftw3f.a(r2cf_7.o)
 .ARM.attributes
                0x00002e9b       0x37 ../../fftw-3.3.4/.libs//libfftw3f.a(r2cf_8.o)
 .ARM.attributes
                0x00002ed2       0x37 ../../fftw-3.3.4/.libs//libfftw3f.a(r2cf_9.o)
 .ARM.attributes
                0x00002f09       0x37 ../../fftw-3.3.4/.libs//libfftw3f.a(lt17-codlist.o)
 .ARM.attributes
                0x00002f40       0x37 ../../fftw-3.3.4/.libs//libfftw3f.a(hb2_16.o)
 .ARM.attributes
                0x00002f77       0x37 ../../fftw-3.3.4/.libs//libfftw3f.a(hb2_20.o)
 .ARM.attributes
                0x00002fae       0x37 ../../fftw-3.3.4/.libs//libfftw3f.a(hb2_25.o)
 .ARM.attributes
                0x00002fe5       0x37 ../../fftw-3.3.4/.libs//libfftw3f.a(hb2_32.o)
 .ARM.attributes
                0x0000301c       0x37 ../../fftw-3.3.4/.libs//libfftw3f.a(hb2_4.o)
 .ARM.attributes
                0x00003053       0x37 ../../fftw-3.3.4/.libs//libfftw3f.a(hb2_5.o)
 .ARM.attributes
                0x0000308a       0x37 ../../fftw-3.3.4/.libs//libfftw3f.a(hb2_8.o)
 .ARM.attributes
                0x000030c1       0x37 ../../fftw-3.3.4/.libs//libfftw3f.a(hb_10.o)
 .ARM.attributes
                0x000030f8       0x37 ../../fftw-3.3.4/.libs//libfftw3f.a(hb_12.o)
 .ARM.attributes
                0x0000312f       0x37 ../../fftw-3.3.4/.libs//libfftw3f.a(hb_15.o)
 .ARM.attributes
                0x00003166       0x37 ../../fftw-3.3.4/.libs//libfftw3f.a(hb_16.o)
 .ARM.attributes
                0x0000319d       0x37 ../../fftw-3.3.4/.libs//libfftw3f.a(hb_2.o)
 .ARM.attributes
                0x000031d4       0x37 ../../fftw-3.3.4/.libs//libfftw3f.a(hb_20.o)
 .ARM.attributes
                0x0000320b       0x37 ../../fftw-3.3.4/.libs//libfftw3f.a(hb_25.o)
 .ARM.attributes
                0x00003242       0x37 ../../fftw-3.3.4/.libs//libfftw3f.a(hb_3.o)
 .ARM.attributes
                0x00003279       0x37 ../../fftw-3.3.4/.libs//libfftw3f.a(hb_32.o)
 .ARM.attributes
                0x000032b0       0x37 ../../fftw-3.3.4/.libs//libfftw3f.a(hb_4.o)
 .ARM.attributes
                0x000032e7       0x37 ../../fftw-3.3.4/.libs//libfftw3f.a(hb_5.o)
 .ARM.attributes
                0x0000331e       0x37 ../../fftw-3.3.4/.libs//libfftw3f.a(hb_6.o)
 .ARM.attributes
                0x00003355       0x37 ../../fftw-3.3.4/.libs//libfftw3f.a(hb_64.o)
 .ARM.attributes
                0x0000338c       0x37 ../../fftw-3.3.4/.libs//libfftw3f.a(hb_7.o)
 .ARM.attributes
                0x000033c3       0x37 ../../fftw-3.3.4/.libs//libfftw3f.a(hb_8.o)
 .ARM.attributes
                0x000033fa       0x37 ../../fftw-3.3.4/.libs//libfftw3f.a(hb_9.o)
 .ARM.attributes
                0x00003431       0x37 ../../fftw-3.3.4/.libs//libfftw3f.a(hc2cb2_16.o)
 .ARM.attributes
                0x00003468       0x37 ../../fftw-3.3.4/.libs//libfftw3f.a(hc2cb2_20.o)
 .ARM.attributes
                0x0000349f       0x37 ../../fftw-3.3.4/.libs//libfftw3f.a(hc2cb2_32.o)
 .ARM.attributes
                0x000034d6       0x37 ../../fftw-3.3.4/.libs//libfftw3f.a(hc2cb2_4.o)
 .ARM.attributes
                0x0000350d       0x37 ../../fftw-3.3.4/.libs//libfftw3f.a(hc2cb2_8.o)
 .ARM.attributes
                0x00003544       0x37 ../../fftw-3.3.4/.libs//libfftw3f.a(hc2cb_10.o)
 .ARM.attributes
                0x0000357b       0x37 ../../fftw-3.3.4/.libs//libfftw3f.a(hc2cb_12.o)
 .ARM.attributes
                0x000035b2       0x37 ../../fftw-3.3.4/.libs//libfftw3f.a(hc2cb_16.o)
 .ARM.attributes
                0x000035e9       0x37 ../../fftw-3.3.4/.libs//libfftw3f.a(hc2cb_2.o)
 .ARM.attributes
                0x00003620       0x37 ../../fftw-3.3.4/.libs//libfftw3f.a(hc2cb_20.o)
 .ARM.attributes
                0x00003657       0x37 ../../fftw-3.3.4/.libs//libfftw3f.a(hc2cb_32.o)
 .ARM.attributes
                0x0000368e       0x37 ../../fftw-3.3.4/.libs//libfftw3f.a(hc2cb_4.o)
 .ARM.attributes
                0x000036c5       0x37 ../../fftw-3.3.4/.libs//libfftw3f.a(hc2cb_6.o)
 .ARM.attributes
                0x000036fc       0x37 ../../fftw-3.3.4/.libs//libfftw3f.a(hc2cb_8.o)
 .ARM.attributes
                0x00003733       0x37 ../../fftw-3.3.4/.libs//libfftw3f.a(hc2cbdft2_16.o)
 .ARM.attributes
                0x0000376a       0x37 ../../fftw-3.3.4/.libs//libfftw3f.a(hc2cbdft2_20.o)
 .ARM.attributes
                0x000037a1       0x37 ../../fftw-3.3.4/.libs//libfftw3f.a(hc2cbdft2_32.o)
 .ARM.attributes
                0x000037d8       0x37 ../../fftw-3.3.4/.libs//libfftw3f.a(hc2cbdft2_4.o)
 .ARM.attributes
                0x0000380f       0x37 ../../fftw-3.3.4/.libs//libfftw3f.a(hc2cbdft2_8.o)
 .ARM.attributes
                0x00003846       0x37 ../../fftw-3.3.4/.libs//libfftw3f.a(hc2cbdft_10.o)
 .ARM.attributes
                0x0000387d       0x37 ../../fftw-3.3.4/.libs//libfftw3f.a(hc2cbdft_12.o)
 .ARM.attributes
                0x000038b4       0x37 ../../fftw-3.3.4/.libs//libfftw3f.a(hc2cbdft_16.o)
 .ARM.attributes
                0x000038eb       0x37 ../../fftw-3.3.4/.libs//libfftw3f.a(hc2cbdft_2.o)
 .ARM.attributes
                0x00003922       0x37 ../../fftw-3.3.4/.libs//libfftw3f.a(hc2cbdft_20.o)
 .ARM.attributes
                0x00003959       0x37 ../../fftw-3.3.4/.libs//libfftw3f.a(hc2cbdft_32.o)
 .ARM.attributes
                0x00003990       0x37 ../../fftw-3.3.4/.libs//libfftw3f.a(hc2cbdft_4.o)
 .ARM.attributes
                0x000039c7       0x37 ../../fftw-3.3.4/.libs//libfftw3f.a(hc2cbdft_6.o)
 .ARM.attributes
                0x000039fe       0x37 ../../fftw-3.3.4/.libs//libfftw3f.a(hc2cbdft_8.o)
 .ARM.attributes
                0x00003a35       0x37 ../../fftw-3.3.4/.libs//libfftw3f.a(r2cbIII_10.o)
 .ARM.attributes
                0x00003a6c       0x37 ../../fftw-3.3.4/.libs//libfftw3f.a(r2cbIII_12.o)
 .ARM.attributes
                0x00003aa3       0x37 ../../fftw-3.3.4/.libs//libfftw3f.a(r2cbIII_15.o)
 .ARM.attributes
                0x00003ada       0x37 ../../fftw-3.3.4/.libs//libfftw3f.a(r2cbIII_16.o)
 .ARM.attributes
                0x00003b11       0x37 ../../fftw-3.3.4/.libs//libfftw3f.a(r2cbIII_2.o)
 .ARM.attributes
                0x00003b48       0x37 ../../fftw-3.3.4/.libs//libfftw3f.a(r2cbIII_20.o)
 .ARM.attributes
                0x00003b7f       0x37 ../../fftw-3.3.4/.libs//libfftw3f.a(r2cbIII_25.o)
 .ARM.attributes
                0x00003bb6       0x37 ../../fftw-3.3.4/.libs//libfftw3f.a(r2cbIII_3.o)
 .ARM.attributes
                0x00003bed       0x37 ../../fftw-3.3.4/.libs//libfftw3f.a(r2cbIII_32.o)
 .ARM.attributes
                0x00003c24       0x37 ../../fftw-3.3.4/.libs//libfftw3f.a(r2cbIII_4.o)
 .ARM.attributes
                0x00003c5b       0x37 ../../fftw-3.3.4/.libs//libfftw3f.a(r2cbIII_5.o)
 .ARM.attributes
                0x00003c92       0x37 ../../fftw-3.3.4/.libs//libfftw3f.a(r2cbIII_6.o)
 .ARM.attributes
                0x00003cc9       0x37 ../../fftw-3.3.4/.libs//libfftw3f.a(r2cbIII_64.o)
 .ARM.attributes
                0x00003d00       0x37 ../../fftw-3.3.4/.libs//libfftw3f.a(r2cbIII_7.o)
 .ARM.attributes
                0x00003d37       0x37 ../../fftw-3.3.4/.libs//libfftw3f.a(r2cbIII_8.o)
 .ARM.attributes
                0x00003d6e       0x37 ../../fftw-3.3.4/.libs//libfftw3f.a(r2cbIII_9.o)
 .ARM.attributes
                0x00003da5       0x37 ../../fftw-3.3.4/.libs//libfftw3f.a(r2cb_10.o)
 .ARM.attributes
                0x00003ddc       0x37 ../../fftw-3.3.4/.libs//libfftw3f.a(r2cb_11.o)
 .ARM.attributes
                0x00003e13       0x37 ../../fftw-3.3.4/.libs//libfftw3f.a(r2cb_12.o)
 .ARM.attributes
                0x00003e4a       0x37 ../../fftw-3.3.4/.libs//libfftw3f.a(r2cb_128.o)
 .ARM.attributes
                0x00003e81       0x37 ../../fftw-3.3.4/.libs//libfftw3f.a(r2cb_13.o)
 .ARM.attributes
                0x00003eb8       0x37 ../../fftw-3.3.4/.libs//libfftw3f.a(r2cb_14.o)
 .ARM.attributes
                0x00003eef       0x37 ../../fftw-3.3.4/.libs//libfftw3f.a(r2cb_15.o)
 .ARM.attributes
                0x00003f26       0x37 ../../fftw-3.3.4/.libs//libfftw3f.a(r2cb_16.o)
 .ARM.attributes
                0x00003f5d       0x37 ../../fftw-3.3.4/.libs//libfftw3f.a(r2cb_2.o)
 .ARM.attributes
                0x00003f94       0x37 ../../fftw-3.3.4/.libs//libfftw3f.a(r2cb_20.o)
 .ARM.attributes
                0x00003fcb       0x37 ../../fftw-3.3.4/.libs//libfftw3f.a(r2cb_25.o)
 .ARM.attributes
                0x00004002       0x37 ../../fftw-3.3.4/.libs//libfftw3f.a(r2cb_3.o)
 .ARM.attributes
                0x00004039       0x37 ../../fftw-3.3.4/.libs//libfftw3f.a(r2cb_32.o)
 .ARM.attributes
                0x00004070       0x37 ../../fftw-3.3.4/.libs//libfftw3f.a(r2cb_4.o)
 .ARM.attributes
                0x000040a7       0x37 ../../fftw-3.3.4/.libs//libfftw3f.a(r2cb_5.o)
 .ARM.attributes
                0x000040de       0x37 ../../fftw-3.3.4/.libs//libfftw3f.a(r2cb_6.o)
 .ARM.attributes
                0x00004115       0x37 ../../fftw-3.3.4/.libs//libfftw3f.a(r2cb_64.o)
 .ARM.attributes
                0x0000414c       0x37 ../../fftw-3.3.4/.libs//libfftw3f.a(r2cb_7.o)
 .ARM.attributes
                0x00004183       0x37 ../../fftw-3.3.4/.libs//libfftw3f.a(r2cb_8.o)
 .ARM.attributes
                0x000041ba       0x37 ../../fftw-3.3.4/.libs//libfftw3f.a(r2cb_9.o)
 .ARM.attributes
                0x000041f1       0x37 ../../fftw-3.3.4/.libs//libfftw3f.a(lt18-codlist.o)
 .ARM.attributes
                0x00004228       0x37 ../../fftw-3.3.4/.libs//libfftw3f.a(e01_8.o)
 .ARM.attributes
                0x0000425f       0x37 ../../fftw-3.3.4/.libs//libfftw3f.a(e10_8.o)
 .ARM.attributes
                0x00004296       0x37 ../../fftw-3.3.4/.libs//libfftw3f.a(lt19-conf.o)
 .ARM.attributes
                0x000042cd       0x37 ../../fftw-3.3.4/.libs//libfftw3f.a(redft00e-r2hc-pad.o)
 .ARM.attributes
                0x00004304       0x37 ../../fftw-3.3.4/.libs//libfftw3f.a(reodft00e-splitradix.o)
 .ARM.attributes
                0x0000433b       0x37 ../../fftw-3.3.4/.libs//libfftw3f.a(reodft010e-r2hc.o)
 .ARM.attributes
                0x00004372       0x37 ../../fftw-3.3.4/.libs//libfftw3f.a(reodft11e-r2hc-odd.o)
 .ARM.attributes
                0x000043a9       0x37 ../../fftw-3.3.4/.libs//libfftw3f.a(reodft11e-radix2.o)
 .ARM.attributes
                0x000043e0       0x37 ../../fftw-3.3.4/.libs//libfftw3f.a(rodft00e-r2hc-pad.o)
 .ARM.attributes
                0x00004417       0x37 ../../fftw-3.3.4/.libs//libfftw3f.a(neon.o)
 .ARM.attributes
                0x0000444e       0x37 ../../fftw-3.3.4/.libs//libfftw3f.a(lt20-codlist.o)
 .ARM.attributes
                0x00004485       0x37 ../../fftw-3.3.4/.libs//libfftw3f.a(n1bv_10.o)
 .ARM.attributes
                0x000044bc       0x37 ../../fftw-3.3.4/.libs//libfftw3f.a(n1bv_11.o)
 .ARM.attributes
                0x000044f3       0x37 ../../fftw-3.3.4/.libs//libfftw3f.a(n1bv_12.o)
 .ARM.attributes
                0x0000452a       0x37 ../../fftw-3.3.4/.libs//libfftw3f.a(n1bv_128.o)
 .ARM.attributes
                0x00004561       0x37 ../../fftw-3.3.4/.libs//libfftw3f.a(n1bv_13.o)
 .ARM.attributes
                0x00004598       0x37 ../../fftw-3.3.4/.libs//libfftw3f.a(n1bv_14.o)
 .ARM.attributes
                0x000045cf       0x37 ../../fftw-3.3.4/.libs//libfftw3f.a(n1bv_15.o)
 .ARM.attributes
                0x00004606       0x37 ../../fftw-3.3.4/.libs//libfftw3f.a(n1bv_16.o)
 .ARM.attributes
                0x0000463d       0x37 ../../fftw-3.3.4/.libs//libfftw3f.a(n1bv_2.o)
 .ARM.attributes
                0x00004674       0x37 ../../fftw-3.3.4/.libs//libfftw3f.a(n1bv_20.o)
 .ARM.attributes
                0x000046ab       0x37 ../../fftw-3.3.4/.libs//libfftw3f.a(n1bv_25.o)
 .ARM.attributes
                0x000046e2       0x37 ../../fftw-3.3.4/.libs//libfftw3f.a(n1bv_3.o)
 .ARM.attributes
                0x00004719       0x37 ../../fftw-3.3.4/.libs//libfftw3f.a(n1bv_32.o)
 .ARM.attributes
                0x00004750       0x37 ../../fftw-3.3.4/.libs//libfftw3f.a(n1bv_4.o)
 .ARM.attributes
                0x00004787       0x37 ../../fftw-3.3.4/.libs//libfftw3f.a(n1bv_5.o)
 .ARM.attributes
                0x000047be       0x37 ../../fftw-3.3.4/.libs//libfftw3f.a(n1bv_6.o)
 .ARM.attributes
                0x000047f5       0x37 ../../fftw-3.3.4/.libs//libfftw3f.a(n1bv_64.o)
 .ARM.attributes
                0x0000482c       0x37 ../../fftw-3.3.4/.libs//libfftw3f.a(n1bv_7.o)
 .ARM.attributes
                0x00004863       0x37 ../../fftw-3.3.4/.libs//libfftw3f.a(n1bv_8.o)
 .ARM.attributes
                0x0000489a       0x37 ../../fftw-3.3.4/.libs//libfftw3f.a(n1bv_9.o)
 .ARM.attributes
                0x000048d1       0x37 ../../fftw-3.3.4/.libs//libfftw3f.a(n1fv_10.o)
 .ARM.attributes
                0x00004908       0x37 ../../fftw-3.3.4/.libs//libfftw3f.a(n1fv_11.o)
 .ARM.attributes
                0x0000493f       0x37 ../../fftw-3.3.4/.libs//libfftw3f.a(n1fv_12.o)
 .ARM.attributes
                0x00004976       0x37 ../../fftw-3.3.4/.libs//libfftw3f.a(n1fv_128.o)
 .ARM.attributes
                0x000049ad       0x37 ../../fftw-3.3.4/.libs//libfftw3f.a(n1fv_13.o)
 .ARM.attributes
                0x000049e4       0x37 ../../fftw-3.3.4/.libs//libfftw3f.a(n1fv_14.o)
 .ARM.attributes
                0x00004a1b       0x37 ../../fftw-3.3.4/.libs//libfftw3f.a(n1fv_15.o)
 .ARM.attributes
                0x00004a52       0x37 ../../fftw-3.3.4/.libs//libfftw3f.a(n1fv_16.o)
 .ARM.attributes
                0x00004a89       0x37 ../../fftw-3.3.4/.libs//libfftw3f.a(n1fv_2.o)
 .ARM.attributes
                0x00004ac0       0x37 ../../fftw-3.3.4/.libs//libfftw3f.a(n1fv_20.o)
 .ARM.attributes
                0x00004af7       0x37 ../../fftw-3.3.4/.libs//libfftw3f.a(n1fv_25.o)
 .ARM.attributes
                0x00004b2e       0x37 ../../fftw-3.3.4/.libs//libfftw3f.a(n1fv_3.o)
 .ARM.attributes
                0x00004b65       0x37 ../../fftw-3.3.4/.libs//libfftw3f.a(n1fv_32.o)
 .ARM.attributes
                0x00004b9c       0x37 ../../fftw-3.3.4/.libs//libfftw3f.a(n1fv_4.o)
 .ARM.attributes
                0x00004bd3       0x37 ../../fftw-3.3.4/.libs//libfftw3f.a(n1fv_5.o)
 .ARM.attributes
                0x00004c0a       0x37 ../../fftw-3.3.4/.libs//libfftw3f.a(n1fv_6.o)
 .ARM.attributes
                0x00004c41       0x37 ../../fftw-3.3.4/.libs//libfftw3f.a(n1fv_64.o)
 .ARM.attributes
                0x00004c78       0x37 ../../fftw-3.3.4/.libs//libfftw3f.a(n1fv_7.o)
 .ARM.attributes
                0x00004caf       0x37 ../../fftw-3.3.4/.libs//libfftw3f.a(n1fv_8.o)
 .ARM.attributes
                0x00004ce6       0x37 ../../fftw-3.3.4/.libs//libfftw3f.a(n1fv_9.o)
 .ARM.attributes
                0x00004d1d       0x37 ../../fftw-3.3.4/.libs//libfftw3f.a(n2bv_10.o)
 .ARM.attributes
                0x00004d54       0x37 ../../fftw-3.3.4/.libs//libfftw3f.a(n2bv_12.o)
 .ARM.attributes
                0x00004d8b       0x37 ../../fftw-3.3.4/.libs//libfftw3f.a(n2bv_14.o)
 .ARM.attributes
                0x00004dc2       0x37 ../../fftw-3.3.4/.libs//libfftw3f.a(n2bv_16.o)
 .ARM.attributes
                0x00004df9       0x37 ../../fftw-3.3.4/.libs//libfftw3f.a(n2bv_2.o)
 .ARM.attributes
                0x00004e30       0x37 ../../fftw-3.3.4/.libs//libfftw3f.a(n2bv_20.o)
 .ARM.attributes
                0x00004e67       0x37 ../../fftw-3.3.4/.libs//libfftw3f.a(n2bv_32.o)
 .ARM.attributes
                0x00004e9e       0x37 ../../fftw-3.3.4/.libs//libfftw3f.a(n2bv_4.o)
 .ARM.attributes
                0x00004ed5       0x37 ../../fftw-3.3.4/.libs//libfftw3f.a(n2bv_6.o)
 .ARM.attributes
                0x00004f0c       0x37 ../../fftw-3.3.4/.libs//libfftw3f.a(n2bv_64.o)
 .ARM.attributes
                0x00004f43       0x37 ../../fftw-3.3.4/.libs//libfftw3f.a(n2bv_8.o)
 .ARM.attributes
                0x00004f7a       0x37 ../../fftw-3.3.4/.libs//libfftw3f.a(n2fv_10.o)
 .ARM.attributes
                0x00004fb1       0x37 ../../fftw-3.3.4/.libs//libfftw3f.a(n2fv_12.o)
 .ARM.attributes
                0x00004fe8       0x37 ../../fftw-3.3.4/.libs//libfftw3f.a(n2fv_14.o)
 .ARM.attributes
                0x0000501f       0x37 ../../fftw-3.3.4/.libs//libfftw3f.a(n2fv_16.o)
 .ARM.attributes
                0x00005056       0x37 ../../fftw-3.3.4/.libs//libfftw3f.a(n2fv_2.o)
 .ARM.attributes
                0x0000508d       0x37 ../../fftw-3.3.4/.libs//libfftw3f.a(n2fv_20.o)
 .ARM.attributes
                0x000050c4       0x37 ../../fftw-3.3.4/.libs//libfftw3f.a(n2fv_32.o)
 .ARM.attributes
                0x000050fb       0x37 ../../fftw-3.3.4/.libs//libfftw3f.a(n2fv_4.o)
 .ARM.attributes
                0x00005132       0x37 ../../fftw-3.3.4/.libs//libfftw3f.a(n2fv_6.o)
 .ARM.attributes
                0x00005169       0x37 ../../fftw-3.3.4/.libs//libfftw3f.a(n2fv_64.o)
 .ARM.attributes
                0x000051a0       0x37 ../../fftw-3.3.4/.libs//libfftw3f.a(n2fv_8.o)
 .ARM.attributes
                0x000051d7       0x37 ../../fftw-3.3.4/.libs//libfftw3f.a(n2sv_16.o)
 .ARM.attributes
                0x0000520e       0x37 ../../fftw-3.3.4/.libs//libfftw3f.a(n2sv_32.o)
 .ARM.attributes
                0x00005245       0x37 ../../fftw-3.3.4/.libs//libfftw3f.a(n2sv_4.o)
 .ARM.attributes
                0x0000527c       0x37 ../../fftw-3.3.4/.libs//libfftw3f.a(n2sv_64.o)
 .ARM.attributes
                0x000052b3       0x37 ../../fftw-3.3.4/.libs//libfftw3f.a(n2sv_8.o)
 .ARM.attributes
                0x000052ea       0x37 ../../fftw-3.3.4/.libs//libfftw3f.a(q1bv_2.o)
 .ARM.attributes
                0x00005321       0x37 ../../fftw-3.3.4/.libs//libfftw3f.a(q1bv_4.o)
 .ARM.attributes
                0x00005358       0x37 ../../fftw-3.3.4/.libs//libfftw3f.a(q1bv_5.o)
 .ARM.attributes
                0x0000538f       0x37 ../../fftw-3.3.4/.libs//libfftw3f.a(q1bv_8.o)
 .ARM.attributes
                0x000053c6       0x37 ../../fftw-3.3.4/.libs//libfftw3f.a(q1fv_2.o)
 .ARM.attributes
                0x000053fd       0x37 ../../fftw-3.3.4/.libs//libfftw3f.a(q1fv_4.o)
 .ARM.attributes
                0x00005434       0x37 ../../fftw-3.3.4/.libs//libfftw3f.a(q1fv_5.o)
 .ARM.attributes
                0x0000546b       0x37 ../../fftw-3.3.4/.libs//libfftw3f.a(q1fv_8.o)
 .ARM.attributes
                0x000054a2       0x37 ../../fftw-3.3.4/.libs//libfftw3f.a(t1buv_10.o)
 .ARM.attributes
                0x000054d9       0x37 ../../fftw-3.3.4/.libs//libfftw3f.a(t1buv_2.o)
 .ARM.attributes
                0x00005510       0x37 ../../fftw-3.3.4/.libs//libfftw3f.a(t1buv_3.o)
 .ARM.attributes
                0x00005547       0x37 ../../fftw-3.3.4/.libs//libfftw3f.a(t1buv_4.o)
 .ARM.attributes
                0x0000557e       0x37 ../../fftw-3.3.4/.libs//libfftw3f.a(t1buv_5.o)
 .ARM.attributes
                0x000055b5       0x37 ../../fftw-3.3.4/.libs//libfftw3f.a(t1buv_6.o)
 .ARM.attributes
                0x000055ec       0x37 ../../fftw-3.3.4/.libs//libfftw3f.a(t1buv_7.o)
 .ARM.attributes
                0x00005623       0x37 ../../fftw-3.3.4/.libs//libfftw3f.a(t1buv_8.o)
 .ARM.attributes
                0x0000565a       0x37 ../../fftw-3.3.4/.libs//libfftw3f.a(t1buv_9.o)
 .ARM.attributes
                0x00005691       0x37 ../../fftw-3.3.4/.libs//libfftw3f.a(t1bv_10.o)
 .ARM.attributes
                0x000056c8       0x37 ../../fftw-3.3.4/.libs//libfftw3f.a(t1bv_12.o)
 .ARM.attributes
                0x000056ff       0x37 ../../fftw-3.3.4/.libs//libfftw3f.a(t1bv_15.o)
 .ARM.attributes
                0x00005736       0x37 ../../fftw-3.3.4/.libs//libfftw3f.a(t1bv_16.o)
 .ARM.attributes
                0x0000576d       0x37 ../../fftw-3.3.4/.libs//libfftw3f.a(t1bv_2.o)
 .ARM.attributes
                0x000057a4       0x37 ../../fftw-3.3.4/.libs//libfftw3f.a(t1bv_20.o)
 .ARM.attributes
                0x000057db       0x37 ../../fftw-3.3.4/.libs//libfftw3f.a(t1bv_25.o)
 .ARM.attributes
                0x00005812       0x37 ../../fftw-3.3.4/.libs//libfftw3f.a(t1bv_3.o)
 .ARM.attributes
                0x00005849       0x37 ../../fftw-3.3.4/.libs//libfftw3f.a(t1bv_32.o)
 .ARM.attributes
                0x00005880       0x37 ../../fftw-3.3.4/.libs//libfftw3f.a(t1bv_4.o)
 .ARM.attributes
                0x000058b7       0x37 ../../fftw-3.3.4/.libs//libfftw3f.a(t1bv_5.o)
 .ARM.attributes
                0x000058ee       0x37 ../../fftw-3.3.4/.libs//libfftw3f.a(t1bv_6.o)
 .ARM.attributes
                0x00005925       0x37 ../../fftw-3.3.4/.libs//libfftw3f.a(t1bv_64.o)
 .ARM.attributes
                0x0000595c       0x37 ../../fftw-3.3.4/.libs//libfftw3f.a(t1bv_7.o)
 .ARM.attributes
                0x00005993       0x37 ../../fftw-3.3.4/.libs//libfftw3f.a(t1bv_8.o)
 .ARM.attributes
                0x000059ca       0x37 ../../fftw-3.3.4/.libs//libfftw3f.a(t1bv_9.o)
 .ARM.attributes
                0x00005a01       0x37 ../../fftw-3.3.4/.libs//libfftw3f.a(t1fuv_10.o)
 .ARM.attributes
                0x00005a38       0x37 ../../fftw-3.3.4/.libs//libfftw3f.a(t1fuv_2.o)
 .ARM.attributes
                0x00005a6f       0x37 ../../fftw-3.3.4/.libs//libfftw3f.a(t1fuv_3.o)
 .ARM.attributes
                0x00005aa6       0x37 ../../fftw-3.3.4/.libs//libfftw3f.a(t1fuv_4.o)
 .ARM.attributes
                0x00005add       0x37 ../../fftw-3.3.4/.libs//libfftw3f.a(t1fuv_5.o)
 .ARM.attributes
                0x00005b14       0x37 ../../fftw-3.3.4/.libs//libfftw3f.a(t1fuv_6.o)
 .ARM.attributes
                0x00005b4b       0x37 ../../fftw-3.3.4/.libs//libfftw3f.a(t1fuv_7.o)
 .ARM.attributes
                0x00005b82       0x37 ../../fftw-3.3.4/.libs//libfftw3f.a(t1fuv_8.o)
 .ARM.attributes
                0x00005bb9       0x37 ../../fftw-3.3.4/.libs//libfftw3f.a(t1fuv_9.o)
 .ARM.attributes
                0x00005bf0       0x37 ../../fftw-3.3.4/.libs//libfftw3f.a(t1fv_10.o)
 .ARM.attributes
                0x00005c27       0x37 ../../fftw-3.3.4/.libs//libfftw3f.a(t1fv_12.o)
 .ARM.attributes
                0x00005c5e       0x37 ../../fftw-3.3.4/.libs//libfftw3f.a(t1fv_15.o)
 .ARM.attributes
                0x00005c95       0x37 ../../fftw-3.3.4/.libs//libfftw3f.a(t1fv_16.o)
 .ARM.attributes
                0x00005ccc       0x37 ../../fftw-3.3.4/.libs//libfftw3f.a(t1fv_2.o)
 .ARM.attributes
                0x00005d03       0x37 ../../fftw-3.3.4/.libs//libfftw3f.a(t1fv_20.o)
 .ARM.attributes
                0x00005d3a       0x37 ../../fftw-3.3.4/.libs//libfftw3f.a(t1fv_25.o)
 .ARM.attributes
                0x00005d71       0x37 ../../fftw-3.3.4/.libs//libfftw3f.a(t1fv_3.o)
 .ARM.attributes
                0x00005da8       0x37 ../../fftw-3.3.4/.libs//libfftw3f.a(t1fv_32.o)
 .ARM.attributes
                0x00005ddf       0x37 ../../fftw-3.3.4/.libs//libfftw3f.a(t1fv_4.o)
 .ARM.attributes
                0x00005e16       0x37 ../../fftw-3.3.4/.libs//libfftw3f.a(t1fv_5.o)
 .ARM.attributes
                0x00005e4d       0x37 ../../fftw-3.3.4/.libs//libfftw3f.a(t1fv_6.o)
 .ARM.attributes
                0x00005e84       0x37 ../../fftw-3.3.4/.libs//libfftw3f.a(t1fv_64.o)
 .ARM.attributes
                0x00005ebb       0x37 ../../fftw-3.3.4/.libs//libfftw3f.a(t1fv_7.o)
 .ARM.attributes
                0x00005ef2       0x37 ../../fftw-3.3.4/.libs//libfftw3f.a(t1fv_8.o)
 .ARM.attributes
                0x00005f29       0x37 ../../fftw-3.3.4/.libs//libfftw3f.a(t1fv_9.o)
 .ARM.attributes
                0x00005f60       0x37 ../../fftw-3.3.4/.libs//libfftw3f.a(t1sv_16.o)
 .ARM.attributes
                0x00005f97       0x37 ../../fftw-3.3.4/.libs//libfftw3f.a(t1sv_2.o)
 .ARM.attributes
                0x00005fce       0x37 ../../fftw-3.3.4/.libs//libfftw3f.a(t1sv_32.o)
 .ARM.attributes
                0x00006005       0x37 ../../fftw-3.3.4/.libs//libfftw3f.a(t1sv_4.o)
 .ARM.attributes
                0x0000603c       0x37 ../../fftw-3.3.4/.libs//libfftw3f.a(t1sv_8.o)
 .ARM.attributes
                0x00006073       0x37 ../../fftw-3.3.4/.libs//libfftw3f.a(t2bv_10.o)
 .ARM.attributes
                0x000060aa       0x37 ../../fftw-3.3.4/.libs//libfftw3f.a(t2bv_16.o)
 .ARM.attributes
                0x000060e1       0x37 ../../fftw-3.3.4/.libs//libfftw3f.a(t2bv_2.o)
 .ARM.attributes
                0x00006118       0x37 ../../fftw-3.3.4/.libs//libfftw3f.a(t2bv_20.o)
 .ARM.attributes
                0x0000614f       0x37 ../../fftw-3.3.4/.libs//libfftw3f.a(t2bv_25.o)
 .ARM.attributes
                0x00006186       0x37 ../../fftw-3.3.4/.libs//libfftw3f.a(t2bv_32.o)
 .ARM.attributes
                0x000061bd       0x37 ../../fftw-3.3.4/.libs//libfftw3f.a(t2bv_4.o)
 .ARM.attributes
                0x000061f4       0x37 ../../fftw-3.3.4/.libs//libfftw3f.a(t2bv_5.o)
 .ARM.attributes
                0x0000622b       0x37 ../../fftw-3.3.4/.libs//libfftw3f.a(t2bv_64.o)
 .ARM.attributes
                0x00006262       0x37 ../../fftw-3.3.4/.libs//libfftw3f.a(t2bv_8.o)
 .ARM.attributes
                0x00006299       0x37 ../../fftw-3.3.4/.libs//libfftw3f.a(t2fv_10.o)
 .ARM.attributes
                0x000062d0       0x37 ../../fftw-3.3.4/.libs//libfftw3f.a(t2fv_16.o)
 .ARM.attributes
                0x00006307       0x37 ../../fftw-3.3.4/.libs//libfftw3f.a(t2fv_2.o)
 .ARM.attributes
                0x0000633e       0x37 ../../fftw-3.3.4/.libs//libfftw3f.a(t2fv_20.o)
 .ARM.attributes
                0x00006375       0x37 ../../fftw-3.3.4/.libs//libfftw3f.a(t2fv_25.o)
 .ARM.attributes
                0x000063ac       0x37 ../../fftw-3.3.4/.libs//libfftw3f.a(t2fv_32.o)
 .ARM.attributes
                0x000063e3       0x37 ../../fftw-3.3.4/.libs//libfftw3f.a(t2fv_4.o)
 .ARM.attributes
                0x0000641a       0x37 ../../fftw-3.3.4/.libs//libfftw3f.a(t2fv_5.o)
 .ARM.attributes
                0x00006451       0x37 ../../fftw-3.3.4/.libs//libfftw3f.a(t2fv_64.o)
 .ARM.attributes
                0x00006488       0x37 ../../fftw-3.3.4/.libs//libfftw3f.a(t2fv_8.o)
 .ARM.attributes
                0x000064bf       0x37 ../../fftw-3.3.4/.libs//libfftw3f.a(t2sv_16.o)
 .ARM.attributes
                0x000064f6       0x37 ../../fftw-3.3.4/.libs//libfftw3f.a(t2sv_32.o)
 .ARM.attributes
                0x0000652d       0x37 ../../fftw-3.3.4/.libs//libfftw3f.a(t2sv_4.o)
 .ARM.attributes
                0x00006564       0x37 ../../fftw-3.3.4/.libs//libfftw3f.a(t2sv_8.o)
 .ARM.attributes
                0x0000659b       0x37 ../../fftw-3.3.4/.libs//libfftw3f.a(t3bv_10.o)
 .ARM.attributes
                0x000065d2       0x37 ../../fftw-3.3.4/.libs//libfftw3f.a(t3bv_16.o)
 .ARM.attributes
                0x00006609       0x37 ../../fftw-3.3.4/.libs//libfftw3f.a(t3bv_20.o)
 .ARM.attributes
                0x00006640       0x37 ../../fftw-3.3.4/.libs//libfftw3f.a(t3bv_25.o)
 .ARM.attributes
                0x00006677       0x37 ../../fftw-3.3.4/.libs//libfftw3f.a(t3bv_32.o)
 .ARM.attributes
                0x000066ae       0x37 ../../fftw-3.3.4/.libs//libfftw3f.a(t3bv_4.o)
 .ARM.attributes
                0x000066e5       0x37 ../../fftw-3.3.4/.libs//libfftw3f.a(t3bv_5.o)
 .ARM.attributes
                0x0000671c       0x37 ../../fftw-3.3.4/.libs//libfftw3f.a(t3bv_8.o)
 .ARM.attributes
                0x00006753       0x37 ../../fftw-3.3.4/.libs//libfftw3f.a(t3fv_10.o)
 .ARM.attributes
                0x0000678a       0x37 ../../fftw-3.3.4/.libs//libfftw3f.a(t3fv_16.o)
 .ARM.attributes
                0x000067c1       0x37 ../../fftw-3.3.4/.libs//libfftw3f.a(t3fv_20.o)
 .ARM.attributes
                0x000067f8       0x37 ../../fftw-3.3.4/.libs//libfftw3f.a(t3fv_25.o)
 .ARM.attributes
                0x0000682f       0x37 ../../fftw-3.3.4/.libs//libfftw3f.a(t3fv_32.o)
 .ARM.attributes
                0x00006866       0x37 ../../fftw-3.3.4/.libs//libfftw3f.a(t3fv_4.o)
 .ARM.attributes
                0x0000689d       0x37 ../../fftw-3.3.4/.libs//libfftw3f.a(t3fv_5.o)
 .ARM.attributes
                0x000068d4       0x37 ../../fftw-3.3.4/.libs//libfftw3f.a(t3fv_8.o)
 .ARM.attributes
                0x0000690b       0x37 ../../fftw-3.3.4/.libs//libfftw3f.a(lt21-codlist.o)
 .ARM.attributes
                0x00006942       0x37 ../../fftw-3.3.4/.libs//libfftw3f.a(hc2cbdftv_10.o)
 .ARM.attributes
                0x00006979       0x37 ../../fftw-3.3.4/.libs//libfftw3f.a(hc2cbdftv_12.o)
 .ARM.attributes
                0x000069b0       0x37 ../../fftw-3.3.4/.libs//libfftw3f.a(hc2cbdftv_16.o)
 .ARM.attributes
                0x000069e7       0x37 ../../fftw-3.3.4/.libs//libfftw3f.a(hc2cbdftv_2.o)
 .ARM.attributes
                0x00006a1e       0x37 ../../fftw-3.3.4/.libs//libfftw3f.a(hc2cbdftv_20.o)
 .ARM.attributes
                0x00006a55       0x37 ../../fftw-3.3.4/.libs//libfftw3f.a(hc2cbdftv_32.o)
 .ARM.attributes
                0x00006a8c       0x37 ../../fftw-3.3.4/.libs//libfftw3f.a(hc2cbdftv_4.o)
 .ARM.attributes
                0x00006ac3       0x37 ../../fftw-3.3.4/.libs//libfftw3f.a(hc2cbdftv_6.o)
 .ARM.attributes
                0x00006afa       0x37 ../../fftw-3.3.4/.libs//libfftw3f.a(hc2cbdftv_8.o)
 .ARM.attributes
                0x00006b31       0x37 ../../fftw-3.3.4/.libs//libfftw3f.a(hc2cfdftv_10.o)
 .ARM.attributes
                0x00006b68       0x37 ../../fftw-3.3.4/.libs//libfftw3f.a(hc2cfdftv_12.o)
 .ARM.attributes
                0x00006b9f       0x37 ../../fftw-3.3.4/.libs//libfftw3f.a(hc2cfdftv_16.o)
 .ARM.attributes
                0x00006bd6       0x37 ../../fftw-3.3.4/.libs//libfftw3f.a(hc2cfdftv_2.o)
 .ARM.attributes
                0x00006c0d       0x37 ../../fftw-3.3.4/.libs//libfftw3f.a(hc2cfdftv_20.o)
 .ARM.attributes
                0x00006c44       0x37 ../../fftw-3.3.4/.libs//libfftw3f.a(hc2cfdftv_32.o)
 .ARM.attributes
                0x00006c7b       0x37 ../../fftw-3.3.4/.libs//libfftw3f.a(hc2cfdftv_4.o)
 .ARM.attributes
                0x00006cb2       0x37 ../../fftw-3.3.4/.libs//libfftw3f.a(hc2cfdftv_6.o)
 .ARM.attributes
                0x00006ce9       0x37 ../../fftw-3.3.4/.libs//libfftw3f.a(hc2cfdftv_8.o)
 .ARM.attributes
                0x00006d20       0x37 ../../fftw-3.3.4/.libs//libfftw3f.a(awake.o)
 .ARM.attributes
                0x00006d57       0x37 ../../fftw-3.3.4/.libs//libfftw3f.a(buffered.o)
 .ARM.attributes
                0x00006d8e       0x37 ../../fftw-3.3.4/.libs//libfftw3f.a(cpy1d.o)
 .ARM.attributes
                0x00006dc5       0x37 ../../fftw-3.3.4/.libs//libfftw3f.a(cpy2d-pair.o)
 .ARM.attributes
                0x00006dfc       0x37 ../../fftw-3.3.4/.libs//libfftw3f.a(cpy2d.o)
 .ARM.attributes
                0x00006e33       0x37 ../../fftw-3.3.4/.libs//libfftw3f.a(iabs.o)
 .ARM.attributes
                0x00006e6a       0x37 ../../fftw-3.3.4/.libs//libfftw3f.a(minmax.o)
 .ARM.attributes
                0x00006ea1       0x37 ../../fftw-3.3.4/.libs//libfftw3f.a(pickdim.o)
 .ARM.attributes
                0x00006ed8       0x37 ../../fftw-3.3.4/.libs//libfftw3f.a(rader.o)
 .ARM.attributes
                0x00006f0f       0x37 ../../fftw-3.3.4/.libs//libfftw3f.a(solvtab.o)
 .ARM.attributes
                0x00006f46       0x37 ../../fftw-3.3.4/.libs//libfftw3f.a(stride.o)
 .ARM.attributes
                0x00006f7d       0x37 ../../fftw-3.3.4/.libs//libfftw3f.a(tensor2.o)
 .ARM.attributes
                0x00006fb4       0x37 ../../fftw-3.3.4/.libs//libfftw3f.a(tensor4.o)
 .ARM.attributes
                0x00006feb       0x37 ../../fftw-3.3.4/.libs//libfftw3f.a(tile2d.o)
 .ARM.attributes
                0x00007022       0x37 ../../fftw-3.3.4/.libs//libfftw3f.a(transpose.o)
 .ARM.attributes
                0x00007059       0x37 ../../fftw-3.3.4/.libs//libfftw3f.a(trig.o)
 .ARM.attributes
                0x00007090       0x37 ../../fftw-3.3.4/.libs//libfftw3f.a(twiddle.o)
 .ARM.attributes
                0x000070c7       0x37 ../../fftw-3.3.4/.libs//libfftw3f.a(bluestein.o)
 .ARM.attributes
                0x000070fe       0x37 ../../fftw-3.3.4/.libs//libfftw3f.a(lt1-buffered.o)
 .ARM.attributes
                0x00007135       0x37 ../../fftw-3.3.4/.libs//libfftw3f.a(lt2-ct.o)
 .ARM.attributes
                0x0000716c       0x37 ../../fftw-3.3.4/.libs//libfftw3f.a(kdft-difsq.o)
 .ARM.attributes
                0x000071a3       0x37 ../../fftw-3.3.4/.libs//libfftw3f.a(kdft-dit.o)
 .ARM.attributes
                0x000071da       0x37 ../../fftw-3.3.4/.libs//libfftw3f.a(kdft.o)
 .ARM.attributes
                0x00007211       0x37 ../../fftw-3.3.4/.libs//libfftw3f.a(n.o)
 .ARM.attributes
                0x00007248       0x37 ../../fftw-3.3.4/.libs//libfftw3f.a(t.o)
 .ARM.attributes
                0x0000727f       0x37 ../../fftw-3.3.4/.libs//libfftw3f.a(lt6-buffered.o)
 .ARM.attributes
                0x000072b6       0x37 ../../fftw-3.3.4/.libs//libfftw3f.a(buffered2.o)
 .ARM.attributes
                0x000072ed       0x37 ../../fftw-3.3.4/.libs//libfftw3f.a(khc2c.o)
 .ARM.attributes
                0x00007324       0x37 ../../fftw-3.3.4/.libs//libfftw3f.a(khc2hc.o)
 .ARM.attributes
                0x0000735b       0x37 ../../fftw-3.3.4/.libs//libfftw3f.a(kr2c.o)
 .ARM.attributes
                0x00007392       0x37 ../../fftw-3.3.4/.libs//libfftw3f.a(kr2r.o)
 .ARM.attributes
                0x000073c9       0x37 ../../fftw-3.3.4/.libs//libfftw3f.a(hc2c.o)
 .ARM.attributes
                0x00007400       0x37 ../../fftw-3.3.4/.libs//libfftw3f.a(hfb.o)
 .ARM.attributes
                0x00007437       0x37 ../../fftw-3.3.4/.libs//libfftw3f.a(r2c.o)
 .ARM.attributes
                0x0000746e       0x37 ../../fftw-3.3.4/.libs//libfftw3f.a(r2r.o)
 .ARM.attributes
                0x000074a5       0x37 ../../fftw-3.3.4/.libs//libfftw3f.a(genus.o)
 .ARM.attributes
                0x000074dc       0x37 ../../fftw-3.3.4/.libs//libfftw3f.a(lt22-genus.o)
 .ARM.attributes
                0x00007513       0x37 ../../fftw-3.3.4/.libs//libfftw3f.a(dftw-direct.o)
 .ARM.attributes
                0x0000754a       0x37 ../../fftw-3.3.4/.libs//libfftw3f.a(dftw-directsq.o)
 .ARM.attributes
                0x00007581       0x37 ../../fftw-3.3.4/.libs//libfftw3f.a(direct.o)
 .ARM.attributes
                0x000075b8       0x37 ../../fftw-3.3.4/.libs//libfftw3f.a(ct-hc2c-direct.o)
 .ARM.attributes
                0x000075ef       0x37 ../../fftw-3.3.4/.libs//libfftw3f.a(ct-hc2c.o)
 .ARM.attributes
                0x00007626       0x37 ../../fftw-3.3.4/.libs//libfftw3f.a(direct-r2c.o)
 .ARM.attributes
                0x0000765d       0x37 ../../fftw-3.3.4/.libs//libfftw3f.a(direct-r2r.o)
 .ARM.attributes
                0x00007694       0x37 ../../fftw-3.3.4/.libs//libfftw3f.a(direct2.o)
 .ARM.attributes
                0x000076cb       0x37 ../../fftw-3.3.4/.libs//libfftw3f.a(hc2hc-direct.o)
 .ARM.attributes
                0x00007702       0x37 ../../fftw-3.3.4/.libs//libfftw3f.a(ct.o)
 .ARM.attributes
                0x00007739       0x21 /opt/ti-sdk-am335x-evm-07.00.00.00/linux-devkit/sysroots/i686-arago-linux/usr/bin/../lib/gcc/arm-linux-gnueabihf/4.7.3/libgcc.a(_udivsi3.o)
 .ARM.attributes
                0x0000775a       0x21 /opt/ti-sdk-am335x-evm-07.00.00.00/linux-devkit/sysroots/i686-arago-linux/usr/bin/../lib/gcc/arm-linux-gnueabihf/4.7.3/libgcc.a(_divsi3.o)
 .ARM.attributes
                0x0000777b       0x21 /opt/ti-sdk-am335x-evm-07.00.00.00/linux-devkit/sysroots/i686-arago-linux/usr/bin/../lib/gcc/arm-linux-gnueabihf/4.7.3/libgcc.a(_arm_addsubdf3.o)
 .ARM.attributes
                0x0000779c       0x21 /opt/ti-sdk-am335x-evm-07.00.00.00/linux-devkit/sysroots/i686-arago-linux/usr/bin/../lib/gcc/arm-linux-gnueabihf/4.7.3/libgcc.a(_dvmd_lnx.o)
 .ARM.attributes
                0x000077bd       0x37 /opt/ti-sdk-am335x-evm-07.00.00.00/linux-devkit/sysroots/i686-arago-linux/usr/bin/../arm-linux-gnueabihf/libc/usr/lib/arm-linux-gnueabihf/4.7.3/./libc_nonshared.a(elf-init.oS)
 .ARM.attributes
                0x000077f4       0x35 /opt/ti-sdk-am335x-evm-07.00.00.00/linux-devkit/sysroots/i686-arago-linux/usr/bin/../lib/gcc/arm-linux-gnueabihf/4.7.3/crtend.o
 .ARM.attributes
                0x00007829       0x37 /opt/ti-sdk-am335x-evm-07.00.00.00/linux-devkit/sysroots/i686-arago-linux/usr/bin/../arm-linux-gnueabihf/libc/usr/lib/arm-linux-gnueabihf/4.7.3/crtn.o

.debug
 *(.debug)

.line
 *(.line)

.debug_srcinfo
 *(.debug_srcinfo)

.debug_sfnames
 *(.debug_sfnames)

.debug_aranges
 *(.debug_aranges)

.debug_pubnames
 *(.debug_pubnames)

.debug_info
 *(.debug_info .gnu.linkonce.wi.*)

.debug_abbrev
 *(.debug_abbrev)

.debug_line
 *(.debug_line)

.debug_frame    0x00000000       0x40
 *(.debug_frame)
 .debug_frame   0x00000000       0x20 /opt/ti-sdk-am335x-evm-07.00.00.00/linux-devkit/sysroots/i686-arago-linux/usr/bin/../lib/gcc/arm-linux-gnueabihf/4.7.3/libgcc.a(_udivsi3.o)
 .debug_frame   0x00000020       0x20 /opt/ti-sdk-am335x-evm-07.00.00.00/linux-devkit/sysroots/i686-arago-linux/usr/bin/../lib/gcc/arm-linux-gnueabihf/4.7.3/libgcc.a(_divsi3.o)

.debug_str
 *(.debug_str)

.debug_loc
 *(.debug_loc)

.debug_macinfo
 *(.debug_macinfo)

.debug_weaknames
 *(.debug_weaknames)

.debug_funcnames
 *(.debug_funcnames)

.debug_typenames
 *(.debug_typenames)

.debug_varnames
 *(.debug_varnames)

.debug_pubtypes
 *(.debug_pubtypes)

.debug_ranges
 *(.debug_ranges)

.debug_macro
 *(.debug_macro)

.gnu.attributes
 *(.gnu.attributes)

.note.gnu.arm.ident
 *(.note.gnu.arm.ident)

/DISCARD/
 *(.note.GNU-stack)
 *(.gnu_debuglink)
 *(.gnu.lto_*)
OUTPUT(release/bat-array elf32-littlearm)
